
 Start         Length     Name                   Class
 0001:00401000 0006D050H .text                   CODE
 0002:0046F000 000008F8H .itext                  ICODE
 0003:00470000 00005E84H .data                   DATA
 0004:00476000 000070A8H .bss                    BSS
 0005:00000000 00000180H .tls                    TLS


Detailed map of segments

 0001:00000000 00006059 C=CODE     S=.text    G=(none)   M=System   ACBP=A9
 0001:0000605C 00000105 C=CODE     S=.text    G=(none)   M=SysInit  ACBP=A9
 0001:00006164 00000308 C=CODE     S=.text    G=(none)   M=SysConst ACBP=A9
 0001:0000646C 0000001A C=CODE     S=.text    G=(none)   M=Types    ACBP=A9
 0001:00006488 000007EC C=CODE     S=.text    G=(none)   M=Windows  ACBP=A9
 0001:00006C74 00006F7C C=CODE     S=.text    G=(none)   M=SysUtils ACBP=A9
 0001:0000DBF0 000007EE C=CODE     S=.text    G=(none)   M=VarUtils ACBP=A9
 0001:0000E3E0 00002788 C=CODE     S=.text    G=(none)   M=Variants ACBP=A9
 0001:00010B68 00000080 C=CODE     S=.text    G=(none)   M=RTLConsts ACBP=A9
 0001:00010BE8 000004FB C=CODE     S=.text    G=(none)   M=TypInfo  ACBP=A9
 0001:000110E4 000047F9 C=CODE     S=.text    G=(none)   M=Classes  ACBP=A9
 0001:000158E0 0000293C C=CODE     S=.text    G=(none)   M=EConsts  ACBP=A9
 0001:0001821C 00004658 C=CODE     S=.text    G=(none)   M=ECore    ACBP=A9
 0001:0001C874 000046D1 C=CODE     S=.text    G=(none)   M=EDebug   ACBP=A9
 0001:00020F48 00001E41 C=CODE     S=.text    G=(none)   M=ELeaks   ACBP=A9
 0001:00022D8C 00007441 C=CODE     S=.text    G=(none)   M=EDisAsm  ACBP=A9
 0001:0002A1D0 00000AD1 C=CODE     S=.text    G=(none)   M=EHash    ACBP=A9
 0001:0002ACA4 000012F6 C=CODE     S=.text    G=(none)   M=EListView ACBP=A9
 0001:0002BF9C 00000332 C=CODE     S=.text    G=(none)   M=EEncrypt ACBP=A9
 0001:0002C2D0 000002AC C=CODE     S=.text    G=(none)   M=EBase64  ACBP=A9
 0001:0002C57C 00000571 C=CODE     S=.text    G=(none)   M=EXMLBuilder ACBP=A9
 0001:0002CAF0 000045CE C=CODE     S=.text    G=(none)   M=ELogManager ACBP=A9
 0001:000310C0 00007BB6 C=CODE     S=.text    G=(none)   M=EWebTools ACBP=A9
 0001:00038C78 00007B8C C=CODE     S=.text    G=(none)   M=EZlib2   ACBP=A9
 0001:00040804 00000119 C=CODE     S=.text    G=(none)   M=EZip     ACBP=A9
 0001:00040920 0000006E C=CODE     S=.text    G=(none)   M=WinSock  ACBP=A9
 0001:00040990 000016E4 C=CODE     S=.text    G=(none)   M=ESockets ACBP=A9
 0001:00042074 000000B0 C=CODE     S=.text    G=(none)   M=ELang    ACBP=A9
 0001:00042124 0000152C C=CODE     S=.text    G=(none)   M=EHook    ACBP=A9
 0001:00043650 00000006 C=CODE     S=.text    G=(none)   M=ShellAPI ACBP=A9
 0001:00043658 00029638 C=CODE     S=.text    G=(none)   M=ExceptionLog ACBP=A9
 0001:0006CC90 000003C0 C=CODE     S=.text    G=(none)   M=Portscan ACBP=A9
 0002:00000000 00000095 C=ICODE    S=.itext   G=(none)   M=System   ACBP=A9
 0002:00000098 00000011 C=ICODE    S=.itext   G=(none)   M=Windows  ACBP=A9
 0002:000000AC 00000088 C=ICODE    S=.itext   G=(none)   M=SysUtils ACBP=A9
 0002:00000134 0000000F C=ICODE    S=.itext   G=(none)   M=VarUtils ACBP=A9
 0002:00000144 000000AA C=ICODE    S=.itext   G=(none)   M=Variants ACBP=A9
 0002:000001F0 00000008 C=ICODE    S=.itext   G=(none)   M=TypInfo  ACBP=A9
 0002:000001F8 00000092 C=ICODE    S=.itext   G=(none)   M=Classes  ACBP=A9
 0002:0000028C 00000008 C=ICODE    S=.itext   G=(none)   M=EConsts  ACBP=A9
 0002:00000294 00000030 C=ICODE    S=.itext   G=(none)   M=ECore    ACBP=A9
 0002:000002C4 00000008 C=ICODE    S=.itext   G=(none)   M=EDebug   ACBP=A9
 0002:000002CC 00000013 C=ICODE    S=.itext   G=(none)   M=ELeaks   ACBP=A9
 0002:000002E0 00000008 C=ICODE    S=.itext   G=(none)   M=EDisAsm  ACBP=A9
 0002:000002E8 00000008 C=ICODE    S=.itext   G=(none)   M=ELogManager ACBP=A9
 0002:000002F0 00000008 C=ICODE    S=.itext   G=(none)   M=EWebTools ACBP=A9
 0002:000002F8 00000034 C=ICODE    S=.itext   G=(none)   M=ESockets ACBP=A9
 0002:0000032C 00000030 C=ICODE    S=.itext   G=(none)   M=EHook    ACBP=A9
 0002:0000035C 00000078 C=ICODE    S=.itext   G=(none)   M=ExceptionLog ACBP=A9
 0002:000003D4 00000524 C=ICODE    S=.itext   G=(none)   M=Portscan ACBP=A9
 0003:00000000 00000798 C=DATA     S=.data    G=DGROUP   M=System   ACBP=A9
 0003:00000798 00000020 C=DATA     S=.data    G=DGROUP   M=SysInit  ACBP=A9
 0003:000007B8 0000024C C=DATA     S=.data    G=DGROUP   M=SysUtils ACBP=A9
 0003:00000A04 00000008 C=DATA     S=.data    G=DGROUP   M=VarUtils ACBP=A9
 0003:00000A0C 00000076 C=DATA     S=.data    G=DGROUP   M=Variants ACBP=A9
 0003:00000A84 0000000C C=DATA     S=.data    G=DGROUP   M=TypInfo  ACBP=A9
 0003:00000A90 00000028 C=DATA     S=.data    G=DGROUP   M=Classes  ACBP=A9
 0003:00000AB8 00000908 C=DATA     S=.data    G=DGROUP   M=EConsts  ACBP=A9
 0003:000013C0 00000044 C=DATA     S=.data    G=DGROUP   M=ECore    ACBP=A9
 0003:00001404 0000004C C=DATA     S=.data    G=DGROUP   M=EDebug   ACBP=A9
 0003:00001450 00000014 C=DATA     S=.data    G=DGROUP   M=ELeaks   ACBP=A9
 0003:00001464 000012D5 C=DATA     S=.data    G=DGROUP   M=EDisAsm  ACBP=A9
 0003:0000273C 00000212 C=DATA     S=.data    G=DGROUP   M=EHash    ACBP=A9
 0003:00002950 000000C0 C=DATA     S=.data    G=DGROUP   M=EBase64  ACBP=A9
 0003:00002A10 00000020 C=DATA     S=.data    G=DGROUP   M=EXMLBuilder ACBP=A9
 0003:00002A30 00000024 C=DATA     S=.data    G=DGROUP   M=ELogManager ACBP=A9
 0003:00002A54 00001C14 C=DATA     S=.data    G=DGROUP   M=EWebTools ACBP=A9
 0003:00004668 00000E5C C=DATA     S=.data    G=DGROUP   M=EZlib2   ACBP=A9
 0003:000054C4 00000001 C=DATA     S=.data    G=DGROUP   M=ESockets ACBP=A9
 0003:000054C8 000001A0 C=DATA     S=.data    G=DGROUP   M=EHook    ACBP=A9
 0003:00005668 0000059C C=DATA     S=.data    G=DGROUP   M=ExceptionLog ACBP=A9
 0004:00000000 000027F4 C=BSS      S=.bss     G=DGROUP   M=System   ACBP=A9
 0004:000027F4 0000000C C=BSS      S=.bss     G=DGROUP   M=SysInit  ACBP=A9
 0004:00002800 00000008 C=BSS      S=.bss     G=DGROUP   M=Windows  ACBP=A9
 0004:00002808 00000A20 C=BSS      S=.bss     G=DGROUP   M=SysUtils ACBP=A9
 0004:00003228 0000005C C=BSS      S=.bss     G=DGROUP   M=VarUtils ACBP=A9
 0004:00003284 00000040 C=BSS      S=.bss     G=DGROUP   M=Variants ACBP=A9
 0004:000032C4 00000004 C=BSS      S=.bss     G=DGROUP   M=TypInfo  ACBP=A9
 0004:000032C8 00000038 C=BSS      S=.bss     G=DGROUP   M=Classes  ACBP=A9
 0004:00003300 00000004 C=BSS      S=.bss     G=DGROUP   M=EConsts  ACBP=A9
 0004:00003304 00000009 C=BSS      S=.bss     G=DGROUP   M=ECore    ACBP=A9
 0004:00003310 00000004 C=BSS      S=.bss     G=DGROUP   M=EDebug   ACBP=A9
 0004:00003314 00000054 C=BSS      S=.bss     G=DGROUP   M=ELeaks   ACBP=A9
 0004:00003368 00000004 C=BSS      S=.bss     G=DGROUP   M=EDisAsm  ACBP=A9
 0004:0000336C 00000400 C=BSS      S=.bss     G=DGROUP   M=EHash    ACBP=A9
 0004:0000376C 00000018 C=BSS      S=.bss     G=DGROUP   M=EEncrypt ACBP=A9
 0004:00003784 00000004 C=BSS      S=.bss     G=DGROUP   M=ELogManager ACBP=A9
 0004:00003788 00000048 C=BSS      S=.bss     G=DGROUP   M=EWebTools ACBP=A9
 0004:000037D0 00002890 C=BSS      S=.bss     G=DGROUP   M=EZlib2   ACBP=A9
 0004:00006060 00000004 C=BSS      S=.bss     G=DGROUP   M=ESockets ACBP=A9
 0004:00006064 00000010 C=BSS      S=.bss     G=DGROUP   M=EHook    ACBP=A9
 0004:00006074 00000E7C C=BSS      S=.bss     G=DGROUP   M=ExceptionLog ACBP=A9
 0004:00006EF0 000001B8 C=BSS      S=.bss     G=DGROUP   M=Portscan ACBP=A9
 0005:00000000 00000008 C=TLS      S=.tls     G=(none)   M=System   ACBP=A9
 0005:00000008 00000004 C=TLS      S=.tls     G=(none)   M=Classes  ACBP=A9
 0005:0000000C 00000173 C=TLS      S=.tls     G=(none)   M=ExceptionLog ACBP=A9


  Address             Publics by Name

 0004:000032D0       Classes..95
 0001:000111A0       Classes..EFCreateError
 0001:00011254       Classes..EFilerError
 0001:00011140       Classes..EFileStreamError
 0001:000111FC       Classes..EFOpenError
 0001:0001135C       Classes..EListError
 0001:000112AC       Classes..EReadError
 0001:000110E4       Classes..EStreamError
 0001:000113B4       Classes..EStringListError
 0001:00011A5C       Classes..EThread
 0001:00011304       Classes..EWriteError
 0001:00011964       Classes..TCustomMemoryStream
 0001:000118DC       Classes..TFileStream
 0001:00011864       Classes..THandleStream
 0001:00011414       Classes..TList
 0001:000119E0       Classes..TMemoryStream
 0001:000114D0       Classes..TPersistent
 0001:00011B34       Classes..TRegGroup
 0001:00011B8C       Classes..TRegGroups
 0001:000117F4       Classes..TStream
 0001:000116DC       Classes..TStringList
 0001:000115A4       Classes..TStrings
 0001:00011AB0       Classes..TThread
 0001:00011478       Classes..TThreadList
 0001:00014F50       Classes.AddThread
 0001:00014F68       Classes.CheckSynchronize
 0002:000001F8       Classes.Classes
 0001:00014F04       Classes.DoneThreadSynchronization
 0001:000126C8       Classes.DoWrite
 0001:00015830       Classes.Finalization
 0004:000032DC       Classes.FindGlobalComponentProcs
 0001:000157BC       Classes.FreeIntConstList
 0004:000032E0       Classes.GlobalFixupList
 0005:00000008       Classes.GlobalLists
 0004:000032C8       Classes.GlobalNameSpace
 0001:00014ED0       Classes.InitThreadSynchronization
 0004:000032D4       Classes.IntConstList
 0001:00015828       Classes.ModuleUnload
 0001:00011C80       Classes.PointerInModule
 0003:00000A9C       Classes.Priorities
 0001:00014730       Classes.PropValueError
 0001:00012160       Classes.QuickSort
 0001:00013DCC       Classes.RaiseException
 0001:00014718       Classes.ReadError
 0001:00011B0C       Classes.Rect
 0004:000032D8       Classes.RegGroups
 0001:000145E8       Classes.RemoveFixupReferences
 0001:00014694       Classes.RemoveFixups
 0001:00014F5C       Classes.RemoveThread
 0001:00014F1C       Classes.ResetSyncEvent
 0001:00012828       Classes.ReturnAddr
 0001:00011FA4       Classes.ReturnAddr
 0001:00014F44       Classes.SignalSyncEvent
 0001:00014A7C       Classes.SkipBinary
 0001:00014AAC       Classes.SkipCollection
 0001:00014A54       Classes.SkipList
 0001:00013BF4       Classes.StringListCompareStrings
 0004:000032CC       Classes.SyncEvent
 0003:00000A98       Classes.SyncList
 0001:00014328       Classes.TCustomMemoryStream.Read
 0001:0001439C       Classes.TCustomMemoryStream.SaveToFile
 0001:00014384       Classes.TCustomMemoryStream.SaveToStream
 0001:00014360       Classes.TCustomMemoryStream.Seek
 0001:00014320       Classes.TCustomMemoryStream.SetPointer
 0001:00014134       Classes.TFileStream.Create
 0001:00014178       Classes.TFileStream.Create
 0001:000142EC       Classes.TFileStream.Destroy
 0001:00014070       Classes.THandleStream.Create
 0001:000140AC       Classes.THandleStream.Read
 0001:000140CC       Classes.THandleStream.Seek
 0001:000140F8       Classes.THandleStream.SetSize
 0001:0001410C       Classes.THandleStream.SetSize
 0001:000140BC       Classes.THandleStream.Write
 0004:000032FC       Classes.ThreadCount
 0004:000032E4       Classes.ThreadLock
 0001:00015140       Classes.ThreadProc
 0001:00011EF4       Classes.TList.Add
 0001:00011F28       Classes.TList.Clear
 0001:00011F40       Classes.TList.Delete
 0001:00011ED4       Classes.TList.Destroy
 0001:00011FE0       Classes.TList.Error
 0001:00011FA8       Classes.TList.Error
 0001:00012034       Classes.TList.Get
 0001:0001205C       Classes.TList.Grow
 0001:00012090       Classes.TList.IndexOf
 0001:00012204       Classes.TList.Notify
 0001:000120B0       Classes.TList.SetCapacity
 0001:000120EC       Classes.TList.SetCount
 0001:000121E4       Classes.TList.Sort
 0001:00014420       Classes.TMemoryStream.Clear
 0001:000143F4       Classes.TMemoryStream.Destroy
 0001:00014470       Classes.TMemoryStream.LoadFromFile
 0001:00014438       Classes.TMemoryStream.LoadFromStream
 0001:00014518       Classes.TMemoryStream.Realloc
 0001:000144C4       Classes.TMemoryStream.SetCapacity
 0001:000144EC       Classes.TMemoryStream.SetSize
 0001:00014598       Classes.TMemoryStream.Write
 0001:00012324       Classes.TPersistent.Assign
 0001:00012338       Classes.TPersistent.AssignError
 0001:00012408       Classes.TPersistent.AssignTo
 0001:00012410       Classes.TPersistent.DefineProperties
 0001:000122F8       Classes.TPersistent.Destroy
 0001:00012414       Classes.TPersistent.GetNamePath
 0001:000124C4       Classes.TPersistent.GetOwner
 0001:0001473C       Classes.TReader.CheckValue
 0001:00014760       Classes.TReader.EndOfList
 0001:00014774       Classes.TReader.NextValue
 0001:00014784       Classes.TReader.Read
 0001:000147D0       Classes.TReader.ReadBuffer
 0001:0001480C       Classes.TReader.ReadListBegin
 0001:00014814       Classes.TReader.ReadListEnd
 0001:0001481C       Classes.TReader.ReadStr
 0001:00014858       Classes.TReader.ReadString
 0001:000149F8       Classes.TReader.ReadValue
 0001:00014914       Classes.TReader.ReadWideString
 0001:00014D00       Classes.TReader.SkipBytes
 0001:00014CB8       Classes.TReader.SkipProperty
 0001:00014A0C       Classes.TReader.SkipSetBody
 0001:00014B08       Classes.TReader.SkipValue
 0001:00011BE4       Classes.TRegGroup.Create
 0001:00011C40       Classes.TRegGroup.Destroy
 0001:00011CA0       Classes.TRegGroup.UnregisterModuleClasses
 0001:00011D4C       Classes.TRegGroups.Create
 0001:00011DC0       Classes.TRegGroups.Destroy
 0001:00011E20       Classes.TRegGroups.Lock
 0001:00011E2C       Classes.TRegGroups.Unlock
 0001:00011E38       Classes.TRegGroups.UnregisterModuleClasses
 0001:00013F7C       Classes.TStream.CopyFrom
 0001:00013CE0       Classes.TStream.GetPosition
 0001:00013D14       Classes.TStream.GetSize
 0001:00013F0C       Classes.TStream.ReadBuffer
 0001:00013E9C       Classes.TStream.Seek
 0001:00013E18       Classes.TStream.Seek
 0001:00013D00       Classes.TStream.SetPosition
 0001:00013D78       Classes.TStream.SetSize
 0001:00013D60       Classes.TStream.SetSize
 0001:00013D64       Classes.TStream.SetSize64
 0001:00013F44       Classes.TStream.WriteBuffer
 0001:00013660       Classes.TStringList.Add
 0001:00013670       Classes.TStringList.AddObject
 0001:000136D4       Classes.TStringList.Changed
 0001:000136F0       Classes.TStringList.Changing
 0001:0001370C       Classes.TStringList.Clear
 0001:00013C5C       Classes.TStringList.CompareStrings
 0001:00013C24       Classes.TStringList.CustomSort
 0001:0001374C       Classes.TStringList.Delete
 0001:00013604       Classes.TStringList.Destroy
 0001:000137B8       Classes.TStringList.Exchange
 0001:00013814       Classes.TStringList.ExchangeItems
 0001:00013838       Classes.TStringList.Find
 0001:000138BC       Classes.TStringList.Get
 0001:000138F0       Classes.TStringList.GetCapacity
 0001:000138F4       Classes.TStringList.GetCount
 0001:000138F8       Classes.TStringList.GetObject
 0001:00013920       Classes.TStringList.Grow
 0001:00013954       Classes.TStringList.IndexOf
 0001:00013990       Classes.TStringList.Insert
 0001:000139F4       Classes.TStringList.InsertItem
 0001:000139A0       Classes.TStringList.InsertObject
 0001:00013A70       Classes.TStringList.Put
 0001:00013ACC       Classes.TStringList.PutObject
 0001:00013B0C       Classes.TStringList.QuickSort
 0001:00013BA0       Classes.TStringList.SetCapacity
 0001:00013BBC       Classes.TStringList.SetSorted
 0001:00013BDC       Classes.TStringList.SetUpdateState
 0001:00013C14       Classes.TStringList.Sort
 0001:000124F8       Classes.TStrings.Add
 0001:0001251C       Classes.TStrings.AddObject
 0001:00012540       Classes.TStrings.AddStrings
 0001:000125F8       Classes.TStrings.Assign
 0001:000126B0       Classes.TStrings.BeginUpdate
 0001:0001358C       Classes.TStrings.CompareStrings
 0001:00012720       Classes.TStrings.DefineProperties
 0001:000124C8       Classes.TStrings.Destroy
 0001:0001276C       Classes.TStrings.EndUpdate
 0001:00012780       Classes.TStrings.Equals
 0001:0001282C       Classes.TStrings.Error
 0001:00012864       Classes.TStrings.Error
 0001:000128BC       Classes.TStrings.Exchange
 0001:000129A8       Classes.TStrings.ExtractName
 0001:00012A24       Classes.TStrings.GetCapacity
 0001:0001352C       Classes.TStrings.GetLineBreak
 0001:00012A2C       Classes.TStrings.GetName
 0001:000135D0       Classes.TStrings.GetNameValueSeparator
 0001:00012A8C       Classes.TStrings.GetObject
 0001:00012A90       Classes.TStrings.GetText
 0001:00012AE4       Classes.TStrings.GetTextStr
 0001:00012C1C       Classes.TStrings.GetValue
 0001:00012CB4       Classes.TStrings.IndexOf
 0001:00012D40       Classes.TStrings.IndexOfName
 0001:00012E14       Classes.TStrings.IndexOfObject
 0001:00012E48       Classes.TStrings.InsertObject
 0001:00012E78       Classes.TStrings.LoadFromFile
 0001:00012ECC       Classes.TStrings.LoadFromStream
 0001:00012F78       Classes.TStrings.Move
 0001:00013028       Classes.TStrings.Put
 0001:00013058       Classes.TStrings.PutObject
 0001:0001305C       Classes.TStrings.ReadData
 0001:0001310C       Classes.TStrings.SaveToFile
 0001:00013164       Classes.TStrings.SaveToStream
 0001:000131C4       Classes.TStrings.SetCapacity
 0001:00013560       Classes.TStrings.SetLineBreak
 0001:000135E8       Classes.TStrings.SetNameValueSeparator
 0001:000131C8       Classes.TStrings.SetStringsAdapter
 0001:000131FC       Classes.TStrings.SetText
 0001:0001324C       Classes.TStrings.SetTextStr
 0001:000133F0       Classes.TStrings.SetUpdateState
 0001:000133F4       Classes.TStrings.SetValue
 0001:000134A8       Classes.TStrings.WriteData
 0001:0001532C       Classes.TThread.AfterConstruction
 0001:000153CC       Classes.TThread.CallOnTerminate
 0001:000153B4       Classes.TThread.CheckThreadError
 0001:00015338       Classes.TThread.CheckThreadError
 0001:000151E8       Classes.TThread.Create
 0001:000152B8       Classes.TThread.Destroy
 0001:000153E0       Classes.TThread.DoTerminate
 0001:00015420       Classes.TThread.RemoveQueuedEvents
 0001:000156E8       Classes.TThread.Resume
 0001:000153F4       Classes.TThread.SetPriority
 0001:0001567C       Classes.TThread.Synchronize
 0001:000154E0       Classes.TThread.Synchronize
 0001:000156A4       Classes.TThread.Synchronize
 0001:00015710       Classes.TThread.Terminate
 0001:00015718       Classes.TThread.WaitFor
 0001:00012208       Classes.TThreadList.Create
 0001:0001225C       Classes.TThreadList.Destroy
 0001:000122D8       Classes.TThreadList.LockList
 0001:000122EC       Classes.TThreadList.UnlockList
 0001:00014D48       Classes.TWriter.Write
 0001:00014D94       Classes.TWriter.WriteBuffer
 0001:00014DAC       Classes.TWriter.WriteListBegin
 0001:00014DB4       Classes.TWriter.WriteListEnd
 0001:00014DBC       Classes.TWriter.WriteMinStr
 0001:00014E68       Classes.TWriter.WriteString
 0001:00014EBC       Classes.TWriter.WriteValue
 0001:00011E88       Classes.UnRegisterModuleClasses
 0001:00014F28       Classes.WaitForSyncEvent
 0003:00000A90       Classes.WakeMainThread
 0001:0002C3F0       EBase64.Base64Decode
 0001:0002C4D4       EBase64.Base64DecodeStr
 0001:0002C540       EBase64.Base64DecodeString
 0001:0002C334       EBase64.Base64Encode
 0001:0002C484       EBase64.Base64EncodeStr
 0001:0002C538       EBase64.Base64EncodeString
 0001:0002C548       EBase64.Base64EncodeToString
 0001:0002C2FC       EBase64.CalcDecodedSize
 0001:0002C2D0       EBase64.CalcEncodedSize
 0003:00002950       EBase64.cBase64Codec
 0003:00002990       EBase64.cBase64Codec
 0004:00003300       EConsts..5
 0002:0000028C       EConsts.EConsts
 0003:00000AC0       EConsts.EMsgs
 0003:00001298       EConsts.EShowOptions
 0003:00000AB8       EConsts.EurekaLogCurrentVersion
 0003:00001020       EConsts.EVals
 0003:00001358       EConsts.EVariablesOptions
 0001:00018198       EConsts.Finalization
 0003:00000ABC       EConsts.UnassignedPointer
 0004:00003308       ECore..4
 0001:00018274       ECore..TEurekaExceptionsFilters
 0001:000182EC       ECore..TEurekaModuleOptions
 0001:0001AA40       ECore.BinToStr
 0001:00019AA8       ECore.CheckDirectoryExists
 0001:00019874       ECore.CheckIntoIDE
 0001:000184BC       ECore.CompleteVersion
 0001:0001C4CC       ECore.ComputerName
 0001:000190F8       ECore.ConvertAddress
 0003:000013C0       ECore.CriticalError
 0003:000013C4       ECore.Digits
 0001:0001C81C       ECore.Done
 0001:00018C94       ECore.DotNetHostedFile
 0002:00000294       ECore.ECore
 0001:00019A04       ECore.ExcludeLastBackslash
 0001:00018B7C       ECore.ExpandEnvVars
 0001:000186FC       ECore.ExtractList
 0001:000195F0       ECore.ExtractStringsEx
 0001:0001C820       ECore.Finalization
 0001:00019ACC       ECore.ForceDirectoriesEx
 0001:00018A04       ECore.GetEnvVariable
 0001:00018DF4       ECore.GetEurekaLogDir
 0001:0001982C       ECore.GetGMT
 0001:000191D4       ECore.GetLongNameFromShort
 0001:00019130       ECore.GetModifiedDate
 0001:00018CBC       ECore.GetProfileFolder
 0001:00019058       ECore.GetReadableSize
 0001:00018D78       ECore.GetUserApplicationsPath
 0001:00019C98       ECore.GetWorkingFile
 0001:00019950       ECore.IncludeLastBackslash
 0001:00018E58       ECore.IniDir
 0001:0001C810       ECore.Init
 0004:0000330C       ECore.InternalIntoIDE
 0001:0001986C       ECore.IntoIDE
 0001:00019C88       ECore.IsFileOK
 0001:00018648       ECore.IsGreaterVersion
 0001:00019C50       ECore.IsReadableFile
 0001:000190E0       ECore.IsValidBlockAddr
 0001:00019BB4       ECore.IsWritableFile
 0004:00003304       ECore.LastEurekaVersion
 0003:000013E4       ECore.NoChars
 0001:00019424       ECore.PosEx
 0001:000194C8       ECore.QuickStringReplace
 0001:0001970C       ECore.ReadKey
 0001:0001AB70       ECore.ReadString
 0001:00018E78       ECore.ReadString
 0001:000186EC       ECore.Real_GetMainModuleFileName
 0001:0001C634       ECore.SafeExec
 0001:0001893C       ECore.StringToUtf8
 0001:0001AAD4       ECore.StrToBin
 0001:00019DEC       ECore.TEurekaExceptionsFilters.Add
 0001:00019E08       ECore.TEurekaExceptionsFilters.Assign
 0001:00019ECC       ECore.TEurekaExceptionsFilters.Clear
 0001:00019EF8       ECore.TEurekaExceptionsFilters.Create
 0001:00019F30       ECore.TEurekaExceptionsFilters.Delete
 0001:00019F60       ECore.TEurekaExceptionsFilters.Destroy
 0001:00019F8C       ECore.TEurekaExceptionsFilters.GetItem
 0001:0001A08C       ECore.TEurekaModuleOptions.Assign
 0001:00019FA0       ECore.TEurekaModuleOptions.Create
 0001:0001A058       ECore.TEurekaModuleOptions.Destroy
 0001:0001B974       ECore.TEurekaModuleOptions.DisableSharedDataWrite
 0001:0001B978       ECore.TEurekaModuleOptions.EnableSharedDataWrite
 0001:0001A454       ECore.TEurekaModuleOptions.GetCustomizedExpandedTexts
 0001:0001A9EC       ECore.TEurekaModuleOptions.LoadFromFile
 0001:0001ABF8       ECore.TEurekaModuleOptions.LoadFromStream
 0001:0001B970       ECore.TEurekaModuleOptions.LoadSharedData
 0001:0001C3D0       ECore.TEurekaModuleOptions.OutputFile
 0001:0001C554       ECore.TEurekaModuleOptions.OutputLogFile
 0001:0001A470       ECore.TEurekaModuleOptions.SaveToFile
 0001:0001B97C       ECore.TEurekaModuleOptions.SaveToSharedData
 0001:0001A5E4       ECore.TEurekaModuleOptions.SaveToStream
 0001:0001BFA4       ECore.TEurekaModuleOptions.SetActivateHandle
 0001:0001BFB0       ECore.TEurekaModuleOptions.SetActivateLog
 0001:0001BF48       ECore.TEurekaModuleOptions.SetActive
 0001:0001BFBC       ECore.TEurekaModuleOptions.SetAppendLogs
 0001:0001C2EC       ECore.TEurekaModuleOptions.SetAttachedFiles
 0001:0001C330       ECore.TEurekaModuleOptions.SetAutoCloseDialogSecs
 0001:0001C33C       ECore.TEurekaModuleOptions.SetAutoCrashMinutes
 0001:0001C348       ECore.TEurekaModuleOptions.SetAutoCrashNumber
 0001:0001C354       ECore.TEurekaModuleOptions.SetAutoCrashOperation
 0001:0001C3A0       ECore.TEurekaModuleOptions.SetBehaviourOptions
 0001:0001C3B8       ECore.TEurekaModuleOptions.SetCallStackOptions
 0001:0001C2C0       ECore.TEurekaModuleOptions.SetCommonSendOptions
 0001:0001C2D8       ECore.TEurekaModuleOptions.SetCompiledFileOptions
 0001:0001BEEC       ECore.TEurekaModuleOptions.SetCustomizedTexts
 0001:0001BFC8       ECore.TEurekaModuleOptions.SetEMailAddresses
 0001:0001BFE8       ECore.TEurekaModuleOptions.SetEMailMessage
 0001:0001C008       ECore.TEurekaModuleOptions.SetEMailSendMode
 0001:0001C014       ECore.TEurekaModuleOptions.SetEMailSubject
 0001:0001BF60       ECore.TEurekaModuleOptions.SetErrorsNumberToSave
 0001:0001C034       ECore.TEurekaModuleOptions.SetErrorsNumberToShowTerminateBtn
 0001:0001C30C       ECore.TEurekaModuleOptions.SetExceptionDialogOptions
 0001:0001C324       ECore.TEurekaModuleOptions.SetExceptionDialogType
 0001:0001C040       ECore.TEurekaModuleOptions.SetForegroundTab
 0001:0001BF54       ECore.TEurekaModuleOptions.SetFreezeActivate
 0001:0001C04C       ECore.TEurekaModuleOptions.SetFreezeTimeout
 0001:0001C360       ECore.TEurekaModuleOptions.SetHTMLLayout
 0001:0001C058       ECore.TEurekaModuleOptions.SetLogOptions
 0001:0001BF98       ECore.TEurekaModuleOptions.SetModuleHandle
 0001:0001BF7C       ECore.TEurekaModuleOptions.SetModuleName
 0001:0001C070       ECore.TEurekaModuleOptions.SetOutputPath
 0001:0001C090       ECore.TEurekaModuleOptions.SetPostFailureBuildEvent
 0001:0001C0AC       ECore.TEurekaModuleOptions.SetPostSuccessfulBuildEvent
 0001:0001C0C8       ECore.TEurekaModuleOptions.SetPreBuildEvent
 0001:0001C0E4       ECore.TEurekaModuleOptions.SetProxyPassword
 0001:0001C100       ECore.TEurekaModuleOptions.SetProxyPort
 0001:0001C10C       ECore.TEurekaModuleOptions.SetProxyURL
 0001:0001C128       ECore.TEurekaModuleOptions.SetProxyUserID
 0001:0001C144       ECore.TEurekaModuleOptions.SetReproduceText
 0001:0001C164       ECore.TEurekaModuleOptions.SetSaveLogFile
 0001:0001C170       ECore.TEurekaModuleOptions.SetShowOptions
 0001:0001C184       ECore.TEurekaModuleOptions.SetSMTPFrom
 0001:0001C1A0       ECore.TEurekaModuleOptions.SetSMTPHost
 0001:0001C1BC       ECore.TEurekaModuleOptions.SetSMTPPassword
 0001:0001C1D8       ECore.TEurekaModuleOptions.SetSMTPPort
 0001:0001C1E4       ECore.TEurekaModuleOptions.SetSMTPUserID
 0001:0001C380       ECore.TEurekaModuleOptions.SetSupportURL
 0001:0001C200       ECore.TEurekaModuleOptions.SetTerminateBtnOperation
 0001:0001C20C       ECore.TEurekaModuleOptions.SetTextsCollection
 0001:0001B994       ECore.TEurekaModuleOptions.SetToDefaultOptions
 0001:0001BE44       ECore.TEurekaModuleOptions.SetTrakerAssignTo
 0001:0001BE60       ECore.TEurekaModuleOptions.SetTrakerCategory
 0001:0001BE7C       ECore.TEurekaModuleOptions.SetTrakerPassword
 0001:0001BE98       ECore.TEurekaModuleOptions.SetTrakerProject
 0001:0001BEB4       ECore.TEurekaModuleOptions.SetTrakerTrialID
 0001:0001BED0       ECore.TEurekaModuleOptions.SetTrakerUserID
 0001:0001C258       ECore.TEurekaModuleOptions.SetWebPassword
 0001:0001C278       ECore.TEurekaModuleOptions.SetWebPort
 0001:0001C22C       ECore.TEurekaModuleOptions.SetWebSendMode
 0001:0001C238       ECore.TEurekaModuleOptions.SetWebURL
 0001:0001C284       ECore.TEurekaModuleOptions.SetWebUserID
 0001:0001C2A4       ECore.TEurekaModuleOptions.SetZipPassword
 0001:0001B96C       ECore.TEurekaModuleOptions.StoreSharedData
 0001:00018860       ECore.WideStringToUtf8
 0001:00018DC4       ECore.WindowsDir
 0001:0001A4C8       ECore.WriteString
 0001:00018F90       ECore.WriteString
 0001:00018478       ECore.ZeroComplete
 0004:00003310       EDebug..03
 0001:0001D0BC       EDebug..TELAbstractMapParser
 0001:0001D1B4       EDebug..TELBinDebugScanner
 0001:0001CE48       EDebug..TELConstantSymbolInfo
 0001:0001CBF0       EDebug..TELDataSymbolInfo
 0001:0001D330       EDebug..TELDebugInfoJedy
 0001:0001D2C0       EDebug..TELDebugInfoMap
 0001:0001D24C       EDebug..TELDebugInfoSource
 0001:0001D3A4       EDebug..TELDebugInfoTD32
 0001:0001CCB8       EDebug..TELGDataSymbolInfo
 0001:0001CB20       EDebug..TELGlobalProcSymbolInfo
 0001:0001CDE4       EDebug..TELLabelSymbolInfo
 0001:0001CC54       EDebug..TELLDataSymbolInfo
 0001:0001C93C       EDebug..TELLineInfo
 0001:0001CAB8       EDebug..TELLocalProcSymbolInfo
 0001:0001D13C       EDebug..TELMapScanner
 0001:0001C8E0       EDebug..TELModuleInfo
 0001:0001CB88       EDebug..TELObjNameSymbolInfo
 0001:0001D05C       EDebug..TELPeBorTD32Image
 0001:0001CA54       EDebug..TELProcSymbolInfo
 0001:0001CD1C       EDebug..TELPublicSymbolInfo
 0001:0001C994       EDebug..TELSourceModuleInfo
 0001:0001C9F4       EDebug..TELSymbolInfo
 0001:0001CF7C       EDebug..TELTD32InfoParser
 0001:0001CFEC       EDebug..TELTD32InfoScanner
 0001:0001CEB0       EDebug..TELUdtSymbolInfo
 0001:0001CF14       EDebug..TELVftPathSymbolInfo
 0001:0001CD80       EDebug..TELWithSymbolInfo
 0001:0001D418       EDebug..THModuleStream
 0001:0001C874       EDebug..TObjectListEx
 0001:00020DE8       EDebug.AssignValidDebugInfo
 0001:0001E33C       EDebug.DecodeNameString
 0002:000002C4       EDebug.EDebug
 0001:0001D884       EDebug.Eof
 0001:00020EAC       EDebug.Finalization
 0001:0001D9EC       EDebug.FindParam
 0001:00020870       EDebug.FormatProcName
 0001:00020BBC       EDebug.GetImageNtHeaders
 0001:0001D898       EDebug.IsDecDigit
 0001:0001D494       EDebug.Max
 0001:0001D49C       EDebug.Min
 0001:00020C94       EDebug.ModuleFileName
 0001:0001EFD0       EDebug.PEInitialize
 0001:0001EF30       EDebug.PeMapImgFindSection
 0001:0001EF8C       EDebug.PeMapImgNtHeaders
 0001:0001EF1C       EDebug.PeMapImgSections
 0003:00001424       EDebug.PublicsByNameHeader
 0003:00001434       EDebug.PublicsByValueHeader
 0001:0001D980       EDebug.ReadAddress
 0001:0001D8DC       EDebug.ReadDecValue
 0001:0001D90C       EDebug.ReadHexValue
 0001:0001D9BC       EDebug.ReadString
 0001:0001D8B0       EDebug.ReadTextLine
 0003:00001444       EDebug.ResourceFilesHeader
 0001:0001D528       EDebug.SafeLoadFromFileToStream
 0001:0001D4A4       EDebug.SearchDynArray
 0001:0001DF1C       EDebug.Search_MapLineNumber
 0001:0001E0EC       EDebug.Search_MapProcName
 0003:00001414       EDebug.SegmentsHeader
 0001:0001E2F0       EDebug.SimpleCryptString
 0001:0001D864       EDebug.SkipEndLine
 0001:0001D840       EDebug.SkipWhiteSpace
 0001:00020750       EDebug.StringReplace
 0001:0001DA0C       EDebug.SyncToHeader
 0001:0001DAE8       EDebug.SyncToPrefix
 0003:00001404       EDebug.TableHeader
 0001:0001D630       EDebug.TELAbstractMapParser.Create
 0001:0001D690       EDebug.TELAbstractMapParser.Destroy
 0001:0001D6C4       EDebug.TELAbstractMapParser.MapStringToStr
 0001:0001DBC0       EDebug.TELAbstractMapParser.Parse
 0001:0001E4DC       EDebug.TELBinDebugScanner.CacheLineNumbers
 0001:0001E59C       EDebug.TELBinDebugScanner.CacheProcNames
 0001:0001E69C       EDebug.TELBinDebugScanner.CheckFormat
 0001:0001E484       EDebug.TELBinDebugScanner.Create
 0001:0001E738       EDebug.TELBinDebugScanner.DataToStr
 0001:00020E6C       EDebug.TELBinDebugScanner.Destroy
 0001:0001E768       EDebug.TELBinDebugScanner.LineNumberFromAddr
 0001:0001E85C       EDebug.TELBinDebugScanner.MakePtr
 0001:0001E868       EDebug.TELBinDebugScanner.ModuleNameFromAddr
 0001:0001E8D4       EDebug.TELBinDebugScanner.ModuleStartFromAddr
 0001:0001E92C       EDebug.TELBinDebugScanner.ProcNameFromAddr
 0001:0001EAD8       EDebug.TELBinDebugScanner.ReadValue
 0001:0001EB10       EDebug.TELBinDebugScanner.SourceNameFromAddr
 0001:0001FC18       EDebug.TELConstantSymbolInfo.Create
 0001:0001F9C8       EDebug.TELDataSymbolInfo.Create
 0001:0001EDE8       EDebug.TELDebugInfoJedy.Destroy
 0001:0001EE28       EDebug.TELDebugInfoJedy.GetLocationInfo
 0001:0001F008       EDebug.TELDebugInfoJedy.InitializeSource
 0001:0001F100       EDebug.TELDebugInfoJedy.ValidData
 0001:0001EC24       EDebug.TELDebugInfoMap.Destroy
 0001:0001EC58       EDebug.TELDebugInfoMap.GetLocationInfo
 0001:0001ED4C       EDebug.TELDebugInfoMap.InitializeSource
 0001:0001EDE0       EDebug.TELDebugInfoMap.ValidData
 0001:0001EB9C       EDebug.TELDebugInfoSource.Create
 0001:0001EBD4       EDebug.TELDebugInfoSource.GetFileName
 0001:0001EC18       EDebug.TELDebugInfoSource.VAFromAddr
 0001:0001F114       EDebug.TELDebugInfoTD32.Destroy
 0001:0001F148       EDebug.TELDebugInfoTD32.GetLocationInfo
 0001:0001F244       EDebug.TELDebugInfoTD32.InitializeSource
 0001:0001F2A0       EDebug.TELDebugInfoTD32.ValidData
 0001:0001FB58       EDebug.TELLabelSymbolInfo.Create
 0001:0001F460       EDebug.TELLineInfo.Create
 0001:0001DF14       EDebug.TELMapScanner.ClassTableItem
 0001:0001DE58       EDebug.TELMapScanner.Create
 0001:0001DEBC       EDebug.TELMapScanner.Destroy
 0001:0001DF24       EDebug.TELMapScanner.LineNumberFromAddr
 0001:0001DF90       EDebug.TELMapScanner.LineNumbersItem
 0001:0001E05C       EDebug.TELMapScanner.LineNumberUnitItem
 0001:0001E060       EDebug.TELMapScanner.ModuleNameFromAddr
 0001:0001E0B0       EDebug.TELMapScanner.ModuleStartFromAddr
 0001:0001E0F4       EDebug.TELMapScanner.ProcNameFromAddr
 0001:0001E174       EDebug.TELMapScanner.PublicsByNameItem
 0001:0001E178       EDebug.TELMapScanner.PublicsByValueItem
 0001:0001E1D8       EDebug.TELMapScanner.Scan
 0001:0001E228       EDebug.TELMapScanner.SegmentItem
 0001:0001E290       EDebug.TELMapScanner.SourceNameFromAddr
 0001:0001F308       EDebug.TELModuleInfo.Create
 0001:0001F3C4       EDebug.TELModuleInfo.GetSegment
 0001:0001F908       EDebug.TELObjNameSymbolInfo.Create
 0001:00020B48       EDebug.TELPeBorTD32Image.CheckDebugData
 0001:00020B98       EDebug.TELPeBorTD32Image.ClearDebugData
 0001:00020AB0       EDebug.TELPeBorTD32Image.Create
 0001:00020B0C       EDebug.TELPeBorTD32Image.Destroy
 0001:00020BC0       EDebug.TELPeBorTD32Image.IsDebugInfoInImage
 0001:00020CDC       EDebug.TELPeBorTD32Image.IsDebugInfoInTds
 0001:0001F840       EDebug.TELProcSymbolInfo.Create
 0001:0001F4A8       EDebug.TELSourceModuleInfo.Create
 0001:0001F608       EDebug.TELSourceModuleInfo.Destroy
 0001:0001F6EC       EDebug.TELSourceModuleInfo.FindLine
 0001:0001F63C       EDebug.TELSourceModuleInfo.GetLine
 0001:0001F650       EDebug.TELSourceModuleInfo.GetLineCount
 0001:0001F658       EDebug.TELSourceModuleInfo.GetSegment
 0001:0001F78C       EDebug.TELSymbolInfo.Create
 0001:0001FFF0       EDebug.TELTD32InfoParser.Analyse
 0001:00020174       EDebug.TELTD32InfoParser.AnalyseAlignSymbols
 0001:00020314       EDebug.TELTD32InfoParser.AnalyseModules
 0001:00020144       EDebug.TELTD32InfoParser.AnalyseNames
 0001:00020338       EDebug.TELTD32InfoParser.AnalyseSourceModules
 0001:0001FE70       EDebug.TELTD32InfoParser.Create
 0001:0001FF94       EDebug.TELTD32InfoParser.Destroy
 0001:000203F4       EDebug.TELTD32InfoParser.FindModule
 0001:0002054C       EDebug.TELTD32InfoParser.FindProc
 0001:000204AC       EDebug.TELTD32InfoParser.FindSourceModule
 0001:00020380       EDebug.TELTD32InfoParser.GetModule
 0001:00020394       EDebug.TELTD32InfoParser.GetModuleCount
 0001:0002039C       EDebug.TELTD32InfoParser.GetName
 0001:000203BC       EDebug.TELTD32InfoParser.GetSourceModule
 0001:000203D0       EDebug.TELTD32InfoParser.GetSourceModuleCount
 0001:000203D8       EDebug.TELTD32InfoParser.GetSymbol
 0001:000203EC       EDebug.TELTD32InfoParser.GetSymbolCount
 0001:000205D4       EDebug.TELTD32InfoParser.IsTD32DebugInfoValid
 0001:000206AC       EDebug.TELTD32InfoParser.IsTD32Sign
 0001:000206C4       EDebug.TELTD32InfoParser.LfaToVa
 0001:000206CC       EDebug.TELTD32InfoScanner.LineNumberFromAddr
 0001:00020718       EDebug.TELTD32InfoScanner.ModuleNameFromAddr
 0001:000209E0       EDebug.TELTD32InfoScanner.ProcNameFromAddr
 0001:00020A80       EDebug.TELTD32InfoScanner.SourceNameFromAddr
 0001:0001FCE0       EDebug.TELUdtSymbolInfo.Create
 0001:0001FDA8       EDebug.TELVftPathSymbolInfo.Create
 0001:0001FA90       EDebug.TELWithSymbolInfo.Create
 0001:0001F2BC       EDebug.THModuleStream.Create
 0001:0001D5E4       EDebug.TObjectListEx.Destroy
 0004:00003368       EDisAsm..2
 0001:00022D8C       EDisAsm..TDisAsm
 0003:00002724       EDisAsm.ByteRegs1
 0003:00002728       EDisAsm.ByteRegs2
 0002:000002E0       EDisAsm.EDisAsm
 0001:0002A134       EDisAsm.Finalization
 0003:00001E24       EDisAsm.FloatingPointOpcodes
 0001:00028B3C       EDisAsm.GetEffectiveAddress
 0001:000284E0       EDisAsm.GetRefAddress
 0001:0002864C       EDisAsm.GetRegName
 0003:00001C64       EDisAsm.GroupsOpcodes
 0003:00001DA4       EDisAsm.GroupsOperands
 0001:000285F4       EDisAsm.ModRM
 0003:00001464       EDisAsm.OneByteOpcodes
 0001:000290A8       EDisAsm.Operand
 0001:000284C0       EDisAsm.ReadByte
 0001:00028480       EDisAsm.ReadDWord
 0001:0002875C       EDisAsm.ReadSib
 0001:000284A0       EDisAsm.ReadWord
 0001:00029A68       EDisAsm.Replacer
 0001:00028620       EDisAsm.Sib
 0001:000283E0       EDisAsm.SignedIntToHex
 0001:00029D8C       EDisAsm.TDisAsm.GetInstruction
 0003:00001864       EDisAsm.TwoByteOpcodes
 0003:0000272C       EDisAsm.WordRegs1
 0003:00002734       EDisAsm.WordRegs2
 0004:0000376C       EEncrypt.CV
 0001:0002C20C       EEncrypt.Decrypt
 0001:0002C158       EEncrypt.InitKey
 0004:00003774       EEncrypt.KeyData
 0001:0002BFC4       EEncrypt.SwapDWord
 0001:0002C0A8       EEncrypt.TEA_Decrypt
 0001:0002BFF8       EEncrypt.TEA_Encrypt
 0001:0002BF9C       EEncrypt.XorBlock
 0001:0002A2D8       EHash.Compress
 0003:0000273C       EHash.Crc16Tab
 0004:0000336C       EHash.crc_table
 0003:0000293C       EHash.crc_table_computed
 0001:0002A274       EHash.GetCRC16
 0001:0002A22C       EHash.GetCRC32
 0001:0002AB94       EHash.GetMD5
 0001:0002A2C0       EHash.LRot32
 0001:0002A1D0       EHash.make_crc_table
 0003:00002940       EHash.p
 0004:00006064       EHook..1
 0001:00042124       EHook..EHookError
 0001:000421D4       EHook..EHookingError
 0001:0004217C       EHook..EProcNull
 0001:00042230       EHook..ESharedArea
 0001:000422AC       EHook..THookedMethodsList
 0001:000426F4       EHook.AddrSize
 0003:00005568       EHook.AsmConst
 0001:00042A4C       EHook.CalculateRelocatedAsmSize
 0001:00043068       EHook.CheckFail
 0004:0000606C       EHook.DllList
 0001:00043554       EHook.Done
 0002:0000032C       EHook.EHook
 0001:000435FC       EHook.Finalization
 0001:00042860       EHook.GetAsmSize
 0001:00042994       EHook.GetFunctionSize
 0001:00042458       EHook.GetVirtualMethod
 0001:000430CC       EHook.HookDllProcedure
 0004:00006070       EHook.HookedMethodsList
 0004:00006068       EHook.HookedProcedures
 0001:00042CAC       EHook.HookProcedure
 0001:00042DBC       EHook.HookProcedureEx
 0001:000424AC       EHook.HookVirtualMethod
 0001:00043520       EHook.Init
 0001:00043008       EHook.IsWin9xDebugThunk
 0001:000426A4       EHook.JumpToMem
 0001:00042720       EHook.ModRMByte
 0001:000426C4       EHook.ModuleFileName
 0003:00005528       EHook.OpCodeLongJump1Byte
 0003:00005548       EHook.OpCodeLongJump2Bytes
 0003:000054C8       EHook.OpCodePrefixes
 0003:00005508       EHook.OpCodeReturn
 0003:000054E8       EHook.OpCodeShortJump
 0001:0004301C       EHook.PeMapImgNtHeaders
 0001:00042B00       EHook.RelocateMemory
 0001:00042464       EHook.SetVirtualMethod
 0001:00042708       EHook.SIDSize
 0001:0004231C       EHook.THookedMethodsList.Create
 0001:00042388       EHook.THookedMethodsList.Delete
 0001:000423B0       EHook.THookedMethodsList.Destroy
 0001:0004235C       EHook.THookedMethodsList.GetItem
 0001:00042370       EHook.THookedMethodsList.Lock
 0001:0004237C       EHook.THookedMethodsList.Unlock
 0001:000433D4       EHook.TryHookDllProcedureEx
 0001:00042F8C       EHook.UnhookProcedure
 0001:000425A0       EHook.UnhookVirtualMethod
 0001:00042664       EHook.WriteMem
 0001:00042074       ELang.TranslateCharsetInfo
 0001:0004207C       ELang.UserCharSet
 0004:0000332C       ELeaks..1
 0004:00003328       ELeaks.AddLeak
 0004:00003344       ELeaks.AllocatedList_End
 0004:0000333C       ELeaks.AllocatedList_Lock
 0004:00003340       ELeaks.AllocatedList_Start
 0001:000219A8       ELeaks.AreTheSameLeak
 0003:00001454       ELeaks.BlockOverFoot
 0003:00001450       ELeaks.BlockOverHead
 0001:00020FFC       ELeaks.CallerOfReallocMem
 0001:000216E8       ELeaks.CheckOurPointer
 0001:000212E4       ELeaks.ConvertAddress
 0001:00022004       ELeaks.CountAllLeaks
 0001:00022AE0       ELeaks.DisableMemoryLeaksCheck
 0001:00022CCC       ELeaks.Done
 0001:0002286C       ELeaks.DoneShareMem
 0002:000002CC       ELeaks.ELeaks
 0001:00022954       ELeaks.EnableMemoryLeaksCheck
 0001:00022734       ELeaks.Error
 0001:00020F8C       ELeaks.ExtractFileName
 0001:00022D54       ELeaks.Finalization
 0004:0000331C       ELeaks.FinalizationProc
 0001:00021A74       ELeaks.FindLeakAddress
 0001:00021C98       ELeaks.FindLeakClassName
 0001:000219CC       ELeaks.FindLeakSons
 0001:00021928       ELeaks.FindNextValidLeak
 0001:00021FD4       ELeaks.FreeAllLeaks
 0001:00021800       ELeaks.GetDataCaller
 0001:0002135C       ELeaks.GetFramesCallStackDump
 0001:00021A28       ELeaks.GetLeakCount
 0001:00021814       ELeaks.GetObjectCaller
 0001:000226E4       ELeaks.GetOptionsFromExeFile
 0001:000213D4       ELeaks.GetRawCallStackDump
 0001:00022644       ELeaks.GetRawOptions
 0001:00021010       ELeaks.GetReadableSize
 0001:000225FC       ELeaks.GetResourceData
 0001:0002202C       ELeaks.HandleAnyLeak
 0001:000217C8       ELeaks.HandleError
 0001:00022B00       ELeaks.Init
 0001:00022778       ELeaks.InitShareMem
 0004:00003350       ELeaks.InstallNewMemoryManager
 0001:00021E60       ELeaks.Internal_AddLeak
 0001:00021E4C       ELeaks.Internal_ResetLeaks
 0001:00021F10       ELeaks.Internal_ShowLeaks
 0001:00021938       ELeaks.IsALeakChild
 0001:000217F8       ELeaks.IsAntiLeaksEnabled
 0001:00021218       ELeaks.IsAParentClassStr
 0001:0002293C       ELeaks.IsCompiledWithPackages
 0001:00022520       ELeaks.IsIntoIDE
 0004:00003358       ELeaks.IsMMHost
 0001:00020FDC       ELeaks.IsObjectCreation
 0001:00021098       ELeaks.IsValidBlockAddr
 0001:00021184       ELeaks.IsValidClass
 0001:0002116C       ELeaks.IsValidSymbolName
 0001:000220B4       ELeaks.LeaksCheck
 0004:00003352       ELeaks.LeaksOptions
 0001:00021320       ELeaks.LockCheck
 0001:0002132C       ELeaks.LockVariable
 0004:00003354       ELeaks.MemoryPages
 0001:000228B4       ELeaks.ModuleName
 0004:00003318       ELeaks.MultiFreeProc
 0001:0002188C       ELeaks.NewFreeMem
 0001:00021820       ELeaks.NewGetMem
 0003:00001458       ELeaks.NewMemoryManager
 0001:000218B8       ELeaks.NewReallocMem
 0004:00003330       ELeaks.OldMemoryManager
 0004:0000335C       ELeaks.OriginalMemMgr
 0004:00003314       ELeaks.OverrunProc
 0001:0002142C       ELeaks.PurgeCallStack
 0001:00021F24       ELeaks.PurgeCallStacks
 0001:00021D24       ELeaks.PurgeInvalidLeaks
 0001:00021E24       ELeaks.RemoveExtraLeaks
 0001:00021FAC       ELeaks.RemoveLeaksSons
 0001:00021BB8       ELeaks.RemoveMemBlock
 0004:00003320       ELeaks.ResetLeaks
 0001:0002162C       ELeaks.SetOurPointer
 0004:00003324       ELeaks.ShowLeaks
 0004:00003348       ELeaks.TObjectCreate
 0004:0000334C       ELeaks.TObjectNewInstance
 0001:00021358       ELeaks.UnlockVariable
 0001:00020F48       ELeaks.UpperCase
 0004:00003351       ELeaks.UseNewMemoryManager
 0001:0002ACCC       EListView..TListViewItems
 0001:0002B5B0       EListView.ClickOnSign
 0001:0002AD74       EListView.DrawBmp
 0001:0002B8FC       EListView.DrawBottom
 0001:0002B888       EListView.DrawFrame
 0001:0002B9A4       EListView.DrawItem
 0001:0002B950       EListView.DrawLine
 0001:0002BE18       EListView.GetColumnAlign
 0001:0002BDEC       EListView.GetColumnCount
 0001:0002AD4C       EListView.GetItemRect
 0001:0002B814       EListView.HandleBackgroundState
 0001:0002B004       EListView.ImageList_Add
 0001:0002AFFC       EListView.ImageList_Create
 0001:0002B00C       EListView.ImageList_Destroy
 0001:0002B268       EListView.TListViewItems.AddRow
 0001:0002B7AC       EListView.TListViewItems.Clear
 0001:0002B5F8       EListView.TListViewItems.ClickOnItem
 0001:0002B014       EListView.TListViewItems.Create
 0001:0002B768       EListView.TListViewItems.Delete
 0001:0002B588       EListView.TListViewItems.DeleteItem
 0001:0002B1D0       EListView.TListViewItems.Destroy
 0001:0002BDC4       EListView.TListViewItems.DrawList
 0001:0002B7D0       EListView.TListViewItems.GetItem
 0001:0002B7E4       EListView.TListViewItems.GetItemParam
 0001:0002BE74       EListView.TListViewItems.InitializeData
 0001:0002B458       EListView.TListViewItems.InsertItem
 0001:0002B59C       EListView.TListViewItems.RedrawItems
 0001:0002BF88       EListView.TListViewItems.SetRedrawState
 0004:00003784       ELogManager..3
 0001:0002CAF0       ELogManager..TLogFile
 0001:0002CB60       ELogManager..TLogItem
 0001:0002E35C       ELogManager.AddValueField
 0003:00002A34       ELogManager.chars
 0001:0002D544       ELogManager.CompleteStr
 0001:0002CC18       ELogManager.ConvertNotDosText
 0001:0002D1B8       ELogManager.ElaborateString
 0002:000002E8       ELogManager.ELogManager
 0003:00002A30       ELogManager.EOFLine
 0001:0002E8E8       ELogManager.ExtractValue
 0001:00031084       ELogManager.Finalization
 0001:00030DFC       ELogManager.Lines
 0001:0002CBD8       ELogManager.NeedConvertNotDosText
 0001:00030E30       ELogManager.NormalizeLines
 0001:00030C18       ELogManager.NormalizeSpaces
 0001:00030A98       ELogManager.RemoveEmptySections
 0001:0002D334       ELogManager.SearchItem
 0001:0002CDBC       ELogManager.SearchNextItem
 0001:00030BE4       ELogManager.Spaces
 0001:0002E924       ELogManager.TestDecrypt
 0001:0002D138       ELogManager.TLogFile.Append
 0001:0002CCE0       ELogManager.TLogFile.Create
 0001:0002CD8C       ELogManager.TLogFile.Destroy
 0001:0002D448       ELogManager.TLogFile.FindItem
 0001:0002DBC8       ELogManager.TLogFile.GetCount
 0001:0002D940       ELogManager.TLogFile.GetItemValue
 0001:0002DFFC       ELogManager.TLogFile.GetItem_Assembler
 0001:0002F948       ELogManager.TLogFile.GetItem_AssemblerXML
 0001:0002DD20       ELogManager.TLogFile.GetItem_CallStack
 0001:0002E95C       ELogManager.TLogFile.GetItem_CallStackXML
 0001:0002E0E0       ELogManager.TLogFile.GetItem_CPU
 0001:0002FBD4       ELogManager.TLogFile.GetItem_CPUXML
 0001:0002DC7C       ELogManager.TLogFile.GetItem_Generals
 0001:0002E4DC       ELogManager.TLogFile.GetItem_GeneralsXML
 0001:0002DDB8       ELogManager.TLogFile.GetItem_Modules
 0001:0002F2BC       ELogManager.TLogFile.GetItem_ModulesXML
 0001:0002DEC0       ELogManager.TLogFile.GetItem_Processes
 0001:0002F600       ELogManager.TLogFile.GetItem_ProcessesXML
 0001:0002E1F8       ELogManager.TLogFile.GetItem_Reproduce
 0001:00030180       ELogManager.TLogFile.GetItem_ReproduceXML
 0001:00030284       ELogManager.TLogFile.GetItem_XML
 0001:000305A8       ELogManager.TLogFile.GetLogVersion
 0001:0002DBD4       ELogManager.TLogFile.GetText
 0001:00030444       ELogManager.TLogFile.GetXML
 0001:0002CF08       ELogManager.TLogFile.LoadFromStream
 0001:0002CE10       ELogManager.TLogFile.ParseBuffer
 0001:0002D4F4       ELogManager.TLogFile.Save
 0001:0002D064       ELogManager.TLogFile.SaveToStream
 0001:00030694       ELogManager.TLogFile.SaveXMLCopy
 0001:0002DBE8       ELogManager.TLogFile.SectionIndex
 0001:0002D588       ELogManager.TLogFile.SetItemValue
 0001:00030780       ELogManager.TLogItem.AddHeader
 0001:000307F8       ELogManager.TLogItem.AddItem
 0001:00030768       ELogManager.TLogItem.Clear
 0001:00030730       ELogManager.TLogItem.Create
 0001:0003100C       ELogManager.TLogItem.GetString
 0004:00006060       ESockets..4
 0001:00040A84       ESockets..EEurekaSocketError
 0001:00040A1C       ESockets..TEurekaClientSMTP
 0001:00040990       ESockets..TEurekaClientSocket
 0001:00041748       ESockets.AddDNS
 0001:00041BA8       ESockets.CreateMXQuery
 0001:00042014       ESockets.Done
 0002:000002F8       ESockets.ESockets
 0001:0004201C       ESockets.Finalization
 0001:0004176C       ESockets.GetDNSList
 0001:00041924       ESockets.GetDomain
 0001:00041AA8       ESockets.GetDomainName
 0001:00041CF8       ESockets.GetMXBestRecord
 0001:00041C30       ESockets.GetMXRecord
 0001:00041DF0       ESockets.GetMXServerFromEmail
 0001:0004200C       ESockets.Init
 0003:000054C4       ESockets.Initialized
 0001:00040B14       ESockets.InternalCleanup
 0001:00040AE4       ESockets.InternalStartup
 0001:000416E0       ESockets.IsValidDNS
 0001:0004190C       ESockets.StrToWord
 0001:000414D8       ESockets.TEurekaClientSMTP.GetText
 0001:00041494       ESockets.TEurekaClientSMTP.Open
 0001:000415BC       ESockets.TEurekaClientSMTP.SendCommand
 0001:00040DE8       ESockets.TEurekaClientSocket.Close
 0001:00040D1C       ESockets.TEurekaClientSocket.Create
 0001:00040DB4       ESockets.TEurekaClientSocket.Destroy
 0001:00040B88       ESockets.TEurekaClientSocket.Error
 0001:00041408       ESockets.TEurekaClientSocket.GetFullText
 0001:00040B28       ESockets.TEurekaClientSocket.LookupName
 0001:00040EB0       ESockets.TEurekaClientSocket.Open
 0001:00041238       ESockets.TEurekaClientSocket.ReceiveBuf
 0001:00041440       ESockets.TEurekaClientSocket.ReceiveFullText
 0001:00041320       ESockets.TEurekaClientSocket.ReceiveText
 0001:000410A0       ESockets.TEurekaClientSocket.SendBuf
 0001:00041170       ESockets.TEurekaClientSocket.SendText
 0004:00003788       EWebTools..7
 0001:000312F8       EWebTools..THTTPBugzillaSendReport
 0001:00031188       EWebTools..THTTPConnectionBase
 0001:00031360       EWebTools..THTTPFogBugzSendReport
 0001:00031290       EWebTools..THTTPMantisSendReport
 0001:000310F4       EWebTools..THTTPResponse
 0001:00031230       EWebTools..THTTPSendReport
 0001:00032A5C       EWebTools.AddAuthenticationToURL
 0003:00004648       EWebTools.AlphaNumerics
 0001:000329C8       EWebTools.CheckError
 0001:0003487C       EWebTools.CompleteNumber
 0001:00031408       EWebTools.ConvertSpecialHTMLChars
 0001:000324A4       EWebTools.DoneLib
 0001:00032CB8       EWebTools.ElaborateURL
 0001:00032E2C       EWebTools.ElaborateWebPage
 0002:000002F0       EWebTools.EWebTools
 0001:00038C28       EWebTools.Finalization
 0001:000328B8       EWebTools.FindErrorMessage
 0001:0003200C       EWebTools.FindSelected
 0004:000037BC       EWebTools.FtpOpenFile
 0001:00038654       EWebTools.FTPUploadFiles
 0001:0003365C       EWebTools.GenerateMultipartBoundary
 0001:00037A98       EWebTools.GenerateMultipartBoundary
 0001:00033720       EWebTools.GenerateRequestBody
 0001:00037BC8       EWebTools.GenerateRequestBody
 0001:00031890       EWebTools.GetFieldValue
 0001:0003284C       EWebTools.GetFileContents
 0001:00037B5C       EWebTools.GetFileContents
 0001:00038618       EWebTools.GetFileSize
 0001:00032F04       EWebTools.GetHTTPResponse
 0001:00037E88       EWebTools.GetHTTPResponse
 0001:00032220       EWebTools.GetListDefault
 0001:00031E90       EWebTools.GetListValue
 0001:000320FC       EWebTools.GetOptionsDefault
 0001:00031C88       EWebTools.GetOptionsValue
 0001:0003162C       EWebTools.GetTagValue
 0001:00031A74       EWebTools.GetTextAreaValue
 0001:00033128       EWebTools.GetValueFromIndex
 0003:0000449C       EWebTools.HTMLChars
 0003:0000419C       EWebTools.HTMLDelimiters
 0004:00003798       EWebTools.HttpAddRequestHeaders
 0004:000037A8       EWebTools.HttpEndRequest
 0004:00003794       EWebTools.HttpOpenRequest
 0004:000037AC       EWebTools.HttpQueryInfo
 0004:0000379C       EWebTools.HttpSendRequest
 0004:000037A0       EWebTools.HttpSendRequestEx
 0001:00038140       EWebTools.HTTPUploadFiles
 0001:000324BC       EWebTools.InitLib
 0004:000037B0       EWebTools.InternetCloseHandle
 0004:00003790       EWebTools.InternetConnect
 0004:000037CC       EWebTools.InternetGetConnectedState
 0004:000037C0       EWebTools.InternetGetLastResponseInfo
 0004:0000378C       EWebTools.InternetOpen
 0004:000037C4       EWebTools.InternetOpenUrl
 0004:000037B4       EWebTools.InternetQueryOption
 0004:000037C8       EWebTools.InternetReadFile
 0004:000037B8       EWebTools.InternetSetOption
 0004:000037A4       EWebTools.InternetWriteFile
 0001:00031594       EWebTools.IsEnd
 0001:00032830       EWebTools.IsRealFile
 0003:00002A54       EWebTools.MaxBugOccurrences
 0003:00004188       EWebTools.NetLib
 0001:00037F40       EWebTools.OpenRequest
 0001:00032390       EWebTools.ParserHTML
 0003:00004198       EWebTools.PassiveMode
 0003:00004190       EWebTools.ProxyPassword
 0003:00004194       EWebTools.ProxyServer
 0003:0000418C       EWebTools.ProxyUserName
 0001:000313C8       EWebTools.PurgeHTMLCode
 0001:00031824       EWebTools.PurgeQuotes
 0001:00032BE0       EWebTools.SearchPort
 0001:00032B40       EWebTools.SearchWord
 0001:00037958       EWebTools.SendWebTrakerReport
 0001:00037A74       EWebTools.SetProxyAuthenticationData
 0001:00037A08       EWebTools.SetProxyServer
 0001:000379F0       EWebTools.SimpleCheckError
 0001:000359A4       EWebTools.THTTPBugzillaSendReport.PostBug
 0001:00034B7C       EWebTools.THTTPConnectionBase.AddBugSummary
 0001:00034404       EWebTools.THTTPConnectionBase.AddCustomFields
 0001:000344BC       EWebTools.THTTPConnectionBase.AddField
 0001:0003468C       EWebTools.THTTPConnectionBase.AddFieldByDefaultList
 0001:0003471C       EWebTools.THTTPConnectionBase.AddFieldByDefaultList2
 0001:000347B4       EWebTools.THTTPConnectionBase.AddFieldByListTitle
 0001:00034608       EWebTools.THTTPConnectionBase.AddFieldByTextArea
 0001:00034528       EWebTools.THTTPConnectionBase.AddFieldValue
 0001:000345AC       EWebTools.THTTPConnectionBase.AddOptionalField
 0001:00034C20       EWebTools.THTTPConnectionBase.AddSearchText
 0001:000335A0       EWebTools.THTTPConnectionBase.Close
 0001:000331C8       EWebTools.THTTPConnectionBase.Create
 0001:00033414       EWebTools.THTTPConnectionBase.Destroy
 0001:00034924       EWebTools.THTTPConnectionBase.GetBugCountField
 0001:00034AB0       EWebTools.THTTPConnectionBase.IsSuccessfulSend
 0001:0003346C       EWebTools.THTTPConnectionBase.Open
 0001:00033A24       EWebTools.THTTPConnectionBase.SendRequest
 0001:000343D4       EWebTools.THTTPConnectionBase.SetRequest
 0001:00036A90       EWebTools.THTTPFogBugzSendReport.PostBug
 0001:00034CAC       EWebTools.THTTPMantisSendReport.PostBug
 0001:00038B14       EWebTools.THTTPResponse.Assign
 0001:00038BF0       EWebTools.THTTPResponse.Clear
 0001:00038AD4       EWebTools.THTTPSendReport.Create
 0001:00038B10       EWebTools.THTTPSendReport.SetHTTPConnectionClass
 0001:00033054       EWebTools.URLEncode
 0003:00004628       EWebTools.ValidDomainChars
 0003:00002A58       EWebTools.WinInet_Error_Text
 0004:00006098       ExceptionLog..21
 0001:000438F0       ExceptionLog..EFrozenApplication
 0001:00043950       ExceptionLog..EMemoryLeak
 0001:000439A8       ExceptionLog..EMemoryOverrun
 0001:00043A04       ExceptionLog..EMultiFree
 0001:000440E8       ExceptionLog..TActiveXException
 0001:00043850       ExceptionLog..TEurekaFunctionsList
 0001:00043F24       ExceptionLog..TEurekaLogList
 0001:00043D78       ExceptionLog..TEurekaModuleOptionsEx
 0001:0004376C       ExceptionLog..TEurekaModulesList
 0001:000437DC       ExceptionLog..TEurekaProcessesList
 0001:000436FC       ExceptionLog..TEurekaStackList
 0001:00043B9C       ExceptionLog..TEurekaThreadsList
 0001:00043C98       ExceptionLog..TExceptionThread
 0001:00043D10       ExceptionLog..TFreezeThread
 0001:00043B20       ExceptionLog..THModuleStream
 0001:00044080       ExceptionLog..THTTPConnection
 0001:00044004       ExceptionLog..TIdThread10
 0001:00043F90       ExceptionLog..TIdThread9
 0001:00043C0C       ExceptionLog..TSafeObject
 0001:00043E04       ExceptionLog..TSendDialogThread
 0001:00043E6C       ExceptionLog..TSendObject
 0001:00043EC4       ExceptionLog..TSendThread
 0004:000061C9       ExceptionLog.AbortOperation
 0001:0005E94C       ExceptionLog.AccessViolationModuleInLongFormat
 0001:0005541C       ExceptionLog.ActicatePage
 0004:00006210       ExceptionLog.ActivateEurekaLog
 0001:000658AC       ExceptionLog.AddCallerCallStack
 0001:00059408       ExceptionLog.AddColor
 0001:00050EC0       ExceptionLog.AddCustomHeadersToLog
 0001:00050D54       ExceptionLog.AddCustomHeaderToLog
 0001:0004F99C       ExceptionLog.AddModule
 0001:0004F898       ExceptionLog.AddModuleFromFileName
 0001:0004989C       ExceptionLog.AddNewProcess
 0001:00049C6C       ExceptionLog.AddNewProcessEx
 0001:0005DBE4       ExceptionLog.AddStr
 0001:0004FA40       ExceptionLog.AddToStack
 0001:0005536C       ExceptionLog.AdjustDialog
 0001:0005280C       ExceptionLog.AdjustFlatStyle
 0001:00059FDC       ExceptionLog.AfterScreenshot
 0001:00059D00       ExceptionLog.AfterScreenshotToStream
 0001:00050238       ExceptionLog.ApplicationRestore
 0001:0004E7A4       ExceptionLog.ASMAssigned
 0001:0005E714       ExceptionLog.ASPDotNetWebSiteFile
 0001:00053DBC       ExceptionLog.AssemblerDialogProc
 0001:000451D4       ExceptionLog.AssemblerToRTF
 0001:00057920       ExceptionLog.AssignOnCloseData
 0001:000517BC       ExceptionLog.AssignPriority
 0001:0005AF44       ExceptionLog.AttachedFile
 0001:0005B1A0       ExceptionLog.AttachedFiles
 0004:0000608C       ExceptionLog.AttachedFilesRequest
 0001:00060DFC       ExceptionLog.AttrToString
 0004:00006214       ExceptionLog.AutoCloseTimer
 0001:00050BF0       ExceptionLog.AutoCloseTimerProc
 0001:0005AAD0       ExceptionLog.Base64EncodeFromFile
 0001:0005D770       ExceptionLog.BlockingSendInternetMessage
 0001:00049F04       ExceptionLog.BuildListPS
 0001:00049DC8       ExceptionLog.BuildListTH
 0001:00059564       ExceptionLog.BytesPerScanline
 0001:00058FE8       ExceptionLog.BytesSwap
 0004:0000640C       ExceptionLog.Cached_LogFile
 0001:000695BC       ExceptionLog.CalcAddr
 0001:0005901C       ExceptionLog.CalcCRC
 0001:0004C9C8       ExceptionLog.CalcDuplicatedException
 0001:0004D9B4       ExceptionLog.CallAttachedFilesRequest
 0001:0004DA24       ExceptionLog.CallAttachedFilesRequestEvents
 0001:0004DB58       ExceptionLog.CallCustomButtonClickEvent
 0001:0004DBC4       ExceptionLog.CallCustomButtonClickEvents
 0001:0004D8E4       ExceptionLog.CallCustomDataRequest
 0001:0004D954       ExceptionLog.CallCustomDataRequestEvents
 0001:0004DA88       ExceptionLog.CallCustomWebFieldsRequest
 0001:0004DAF8       ExceptionLog.CallCustomWebFieldsRequestEvents
 0001:0004D5E8       ExceptionLog.CallExceptionActionNotify
 0001:0006170C       ExceptionLog.CallExceptionActionNotify_atSavedLogFile
 0001:000616E8       ExceptionLog.CallExceptionActionNotify_atSavingLogFile
 0001:0005C540       ExceptionLog.CallExceptionActionNotify_atSendingEmail
 0001:0005C588       ExceptionLog.CallExceptionActionNotify_atSendingWebMessage
 0001:0005C564       ExceptionLog.CallExceptionActionNotify_atSentEmail
 0001:0005C5AC       ExceptionLog.CallExceptionActionNotify_atSentWebMessage
 0001:00061A88       ExceptionLog.CallExceptionActionNotify_atShowedExceptionInfo
 0001:00061A64       ExceptionLog.CallExceptionActionNotify_atShowingExceptionInfo
 0001:0005890C       ExceptionLog.CallExceptionActionNotify_atTerminating
 0001:0004D75C       ExceptionLog.CallExceptionErrorNotify
 0001:00061730       ExceptionLog.CallExceptionErrorNotify_atSavedLogFile
 0001:0005C5D0       ExceptionLog.CallExceptionErrorNotify_atSentEmail
 0001:0005C5F4       ExceptionLog.CallExceptionErrorNotify_atSentWebMessage
 0001:0004D3F0       ExceptionLog.CallExceptionNotify
 0001:0004D45C       ExceptionLog.CallExceptionNotifyEvents
 0003:00005670       ExceptionLog.CallForGetLogText
 0003:0000566C       ExceptionLog.CallFromCOMObject
 0001:0004D4C0       ExceptionLog.CallHandledExceptionNotify
 0001:0004D52C       ExceptionLog.CallHandledExceptionNotifyEvents
 0001:0004D960       ExceptionLog.CallModuleEvent_AttachedFilesRequest
 0001:0004DB04       ExceptionLog.CallModuleEvent_CustomButtonClickNotify
 0001:0004D890       ExceptionLog.CallModuleEvent_CustomDataRequest
 0001:0004DA30       ExceptionLog.CallModuleEvent_CustomWebFieldsRequest
 0001:0004D538       ExceptionLog.CallModuleEvent_ExceptionActionNotify
 0001:0004D6B0       ExceptionLog.CallModuleEvent_ExceptionErrorNotify
 0001:0004D3A0       ExceptionLog.CallModuleEvent_ExceptionNotify
 0001:0004D468       ExceptionLog.CallModuleEvent_HandledExceptionNotify
 0001:0004DBD0       ExceptionLog.CallModuleEvent_PasswordRequest
 0001:0004D824       ExceptionLog.CallPasswordRequest
 0001:0004FE80       ExceptionLog.CallStackByAddresses
 0001:000542D4       ExceptionLog.CallStackDialogProc
 0001:00061AAC       ExceptionLog.CallWriteIntraWebText
 0001:0006816C       ExceptionLog.Call_HookedExceptionObject
 0001:00067ED0       ExceptionLog.Call_HookedRaise
 0001:00068198       ExceptionLog.Call_HookedRtlUnwind
 0001:00058B74       ExceptionLog.CalsCoordinates
 0004:000061CA       ExceptionLog.CanAttachScreenshot
 0004:000061C5       ExceptionLog.CanAttachScreenshot_Show
 0004:000061CB       ExceptionLog.CanCopy
 0004:000061C6       ExceptionLog.CanCopy_Show
 0001:0004E588       ExceptionLog.CanExit
 0004:0000618D       ExceptionLog.CanHookLibraries
 0003:00005B70       ExceptionLog.CannotProcessMessagesExceptions
 0003:00005BBC       ExceptionLog.CannotShowDialog
 0004:00006390       ExceptionLog.CannotUseThread
 0001:00065924       ExceptionLog.CanPauseThisThread
 0004:000061C4       ExceptionLog.CanSendError_Show
 0004:000061C8       ExceptionLog.CanSendMessage
 0001:00069480       ExceptionLog.CanShowHandledExceptionEx
 0004:000061C7       ExceptionLog.CanSupport_Show
 0004:0000643C       ExceptionLog.CaptionFontName
 0004:00006678       ExceptionLog.CAPTION_HEIGHT
 0001:0005224C       ExceptionLog.CenterOnActiveWndMonitor
 0001:00050B74       ExceptionLog.CenterWindow
 0004:00006148       ExceptionLog.CGIHandleException
 0004:000060F4       ExceptionLog.CGIOutputFile
 0001:0006B614       ExceptionLog.ChangeFinalizationOrder
 0001:00057894       ExceptionLog.ChangeLogUserEmail
 0001:0006BF10       ExceptionLog.CheckCrc32
 0001:0006B304       ExceptionLog.CheckForMemoryLeaks
 0001:0004B59C       ExceptionLog.CheckForResult
 0001:000441C8       ExceptionLog.CheckMagicCode
 0001:0004810C       ExceptionLog.ClearInternalError
 0004:000065E1       ExceptionLog.ClickLinkActive
 0001:000465F8       ExceptionLog.CloneObject
 0001:0004C9AC       ExceptionLog.CloseLogFile
 0001:0005AE58       ExceptionLog.CloseSendDialog
 0004:00006150       ExceptionLog.CLXHandleException
 0004:00006154       ExceptionLog.CLXShowException
 0003:00005BE4       ExceptionLog.ColIdx
 0004:00006614       ExceptionLog.ColWidths
 0001:00059C44       ExceptionLog.CommonSaveToStream
 0001:0004EA7C       ExceptionLog.CompareEurekaFunctions
 0001:00049364       ExceptionLog.CompareModulesFunctions
 0001:000496F0       ExceptionLog.CompareProcessesFunctions
 0001:0005FBA4       ExceptionLog.CompleteIP
 0001:00044798       ExceptionLog.CompleteStr
 0001:00060E50       ExceptionLog.CompleteString
 0001:000460B4       ExceptionLog.ComputerName
 0001:0004DEC4       ExceptionLog.CopyStrings
 0001:00055140       ExceptionLog.CPUDialogProc
 0001:00045570       ExceptionLog.CPUToRTF
 0001:00059788       ExceptionLog.Create8bitBitmap
 0001:00050808       ExceptionLog.CreateDialogFonts
 0001:00051A74       ExceptionLog.CreateExceptionReport
 0001:00061AB8       ExceptionLog.CreateGeneralText
 0001:0004A954       ExceptionLog.CreateHTMLByLayout
 0001:0004CFCC       ExceptionLog.CreateHTMLFile
 0001:00051DC0       ExceptionLog.CreateLeakReport
 0001:00062C94       ExceptionLog.CreateLogText
 0001:000593A4       ExceptionLog.CreateOctreeNode
 0001:0004AD2C       ExceptionLog.CreateTemplateFile
 0001:00051F60       ExceptionLog.CreateThreadStr
 0001:0005C038       ExceptionLog.CreateTmpLogFile
 0001:00046C38       ExceptionLog.CreateVirtualFile
 0001:0004D098       ExceptionLog.CreateXMLLogCopy
 0001:0005C618       ExceptionLog.CreateZIPFile
 0001:0006A98C       ExceptionLog.Create_EurekaLogUnitsList
 0003:00005B94       ExceptionLog.CriticalExceptObject
 0004:0000617C       ExceptionLog.CurrentAsmErrorLine
 0004:00006184       ExceptionLog.CurrentAsmErrorText
 0005:00000060       ExceptionLog.CurrentContext
 0004:00006188       ExceptionLog.CurrentCPUErrorText
 0004:00006218       ExceptionLog.CurrentDialog
 0001:00069630       ExceptionLog.CurrentEurekaLogOptions
 0005:0000012C       ExceptionLog.CurrentExceptionRecord
 0004:00006180       ExceptionLog.CurrentGeneralErrorText
 0004:000060F0       ExceptionLog.CurrentOptions
 0004:00006230       ExceptionLog.CurrentProcessWindowsList
 0003:00005B80       ExceptionLog.CurrentStackList
 0005:00000054       ExceptionLog.CurrentStackPointer
 0004:00006094       ExceptionLog.CustomButtonClickNotify
 0004:00006088       ExceptionLog.CustomDataRequest
 0004:000061B4       ExceptionLog.CustomExceptMessage
 0001:0006B398       ExceptionLog.CustomHandler
 0004:00006090       ExceptionLog.CustomWebFieldsRequest
 0004:0000622C       ExceptionLog.DbgSection
 0004:0000636C       ExceptionLog.DebugHook_Assigned
 0001:0005DC34       ExceptionLog.DebugToStr
 0001:0005C784       ExceptionLog.DeleteExtraFiles
 0001:000492E8       ExceptionLog.DeleteFileEx
 0001:000592B0       ExceptionLog.DeleteTree
 0001:00046DA4       ExceptionLog.DeleteVirtualFile
 0001:00050A50       ExceptionLog.DestroyDialogFonts
 0004:00006654       ExceptionLog.DetailsActive
 0001:0005284C       ExceptionLog.DetailsState
 0004:00006660       ExceptionLog.DialogHeight
 0004:0000637C       ExceptionLog.DialogType
 0001:0004AD08       ExceptionLog.DirectoryExists
 0001:000504B0       ExceptionLog.DlgTemplate
 0001:0006C834       ExceptionLog.Done
 0001:0006A660       ExceptionLog.DoneCheckFreeze
 0004:00006144       ExceptionLog.DoneExcept
 0001:0006B5C8       ExceptionLog.DoneExceptAddr
 0001:0005E76C       ExceptionLog.DotNetHostedFileHandle
 0001:0005E720       ExceptionLog.DotNetMainFile
 0003:00005BA4       ExceptionLog.DotNetMetadataFile
 0003:00005BC4       ExceptionLog.Dots
 0001:000577E8       ExceptionLog.DrawButton
 0001:00057674       ExceptionLog.DrawClickHere
 0001:000575EC       ExceptionLog.DrawControl
 0001:000556FC       ExceptionLog.DrawSupportLink
 0004:000061CC       ExceptionLog.DuplicatedException
 0001:000591D4       ExceptionLog.Encode
 0001:0005C19C       ExceptionLog.EncodeURL
 0001:00048624       ExceptionLog.EnumWindowsProc
 0001:000483B4       ExceptionLog.EnumWindowsProc
 0001:00048458       ExceptionLog.EnumWindowsProc
 0001:00048510       ExceptionLog.EnumWindowsProc
 0001:0005A0A8       ExceptionLog.Error
 0004:000061E8       ExceptionLog.EurekaLogList
 0001:0005AA28       ExceptionLog.EurekaLogSendEmail
 0003:00005678       ExceptionLog.EurekaLogUnits
 0004:0000620C       ExceptionLog.EurekaLogUnitsList
 0001:0004E398       ExceptionLog.EurekaLog_AttachedFilesRequestEvent
 0001:00068850       ExceptionLog.EurekaLog_CallCreateThread
 0001:00067FE0       ExceptionLog.EurekaLog_CallExceptObject
 0001:00068988       ExceptionLog.EurekaLog_CallExitThread
 0001:00067E5C       ExceptionLog.EurekaLog_CallGeneralRaise
 0001:000688E4       ExceptionLog.EurekaLog_CallResumeThread
 0001:0004E4E0       ExceptionLog.EurekaLog_CustomButtonClickEvent
 0001:0004E2F4       ExceptionLog.EurekaLog_CustomDataRequestEventEx
 0001:0004E43C       ExceptionLog.EurekaLog_CustomWebFieldsRequestEvent
 0001:0004E1AC       ExceptionLog.EurekaLog_ExceptionActionNotifyEvent
 0001:0004E250       ExceptionLog.EurekaLog_ExceptionErrorNotifyEvent
 0001:0004E05C       ExceptionLog.EurekaLog_ExceptionNotifyEvent
 0001:0004E104       ExceptionLog.EurekaLog_HandledExceptionNotifyEvent
 0001:00068848       ExceptionLog.EurekaLog_LastDelphiException
 0001:0004DF48       ExceptionLog.EurekaLog_PasswordRequestEvent
 0001:0004DF8C       ExceptionLog.EurekaLog_PasswordRequestEventEx
 0004:0000607C       ExceptionLog.ExceptionActionNotify
 0004:000060C4       ExceptionLog.ExceptionCriticalSection
 0004:00006080       ExceptionLog.ExceptionErrorNotify
 0001:000476C0       ExceptionLog.ExceptionLine
 0002:0000035C       ExceptionLog.ExceptionLog
 0001:00069950       ExceptionLog.ExceptionManager
 0004:00006074       ExceptionLog.ExceptionNotify
 0004:000060FC       ExceptionLog.ExceptionNumber
 0004:00006220       ExceptionLog.ExceptionsTime
 0004:00006224       ExceptionLog.ExceptionTime
 0001:0004B2BC       ExceptionLog.ExceptionTypeByAddr
 0001:000674F0       ExceptionLog.ExceptNotify
 0001:0005DA58       ExceptionLog.ExceptNotifyAfter1
 0001:0005DB58       ExceptionLog.ExceptNotifyAfter2
 0001:0005DB6C       ExceptionLog.ExceptNotifyAfter3
 0001:0004EB2C       ExceptionLog.ExportedFunctions
 0001:0004C540       ExceptionLog.ExtractDebugData
 0001:00069E24       ExceptionLog.ExtractGZipStream
 0001:0004C05C       ExceptionLog.ExtractStr
 0001:000518A4       ExceptionLog.ExtractThreadByList
 0004:00006418       ExceptionLog.fActive
 0003:00005BB8       ExceptionLog.fActivePage
 0004:00006434       ExceptionLog.fBigFont
 0004:0000641C       ExceptionLog.fCaptionFont
 0004:00006410       ExceptionLog.fDlgBack
 0001:000611CC       ExceptionLog.FetchStr
 0004:00006424       ExceptionLog.fFixedFont1
 0004:00006428       ExceptionLog.fFixedFont2
 0001:0004D224       ExceptionLog.FillAttachedList
 0001:000497AC       ExceptionLog.FillThreadsCount
 0001:0006CAE0       ExceptionLog.Finalization
 0001:0005BFA8       ExceptionLog.FindEOFLine
 0001:00061A08       ExceptionLog.FindException
 0001:00049A54       ExceptionLog.FindFullPath
 0001:0004C478       ExceptionLog.FindFunction
 0001:000441DC       ExceptionLog.FindHandled
 0001:0006BE4C       ExceptionLog.FindMainInstance
 0001:00048A98       ExceptionLog.FindModuleType
 0001:000496F8       ExceptionLog.FindProcess
 0001:00044194       ExceptionLog.FirstProc
 0004:00006440       ExceptionLog.FixedFontName1
 0004:00006444       ExceptionLog.FixedFontName2
 0004:00006438       ExceptionLog.FixedFontSize
 0004:0000667C       ExceptionLog.FixedTmpOptionsFile
 0004:0000642C       ExceptionLog.fLinkFont
 0004:00006430       ExceptionLog.fLinkFont2
 0004:000065BC       ExceptionLog.fListViewItems
 0004:00006414       ExceptionLog.fMemoBack
 0004:0000659C       ExceptionLog.fMonitor
 0004:000065A4       ExceptionLog.fMonitorInfo
 0001:0006989C       ExceptionLog.ForceApplicationTermination
 0001:0006161C       ExceptionLog.FormatComplete
 0001:0004662C       ExceptionLog.FreeClonedObject
 0001:00047368       ExceptionLog.FreeOutOfMemoryCache
 0001:0005A06C       ExceptionLog.FreeScreenshot
 0004:00006190       ExceptionLog.FreezeThread
 0004:000065A0       ExceptionLog.fSendBmp
 0004:00006420       ExceptionLog.fVariableFont
 0001:00054F38       ExceptionLog.GeneralDialogProc
 0001:00067C3C       ExceptionLog.GeneralRaise
 0001:00044D54       ExceptionLog.GeneralToRTF
 0001:0005D15C       ExceptionLog.GenerateCustomWebFieldsString
 0001:0004ABE4       ExceptionLog.GenerateHTML
 0001:0005EFD8       ExceptionLog.GetActiveControlClass
 0001:0005EFF0       ExceptionLog.GetActiveControlText
 0001:0005EEF8       ExceptionLog.GetActiveFormClass
 0001:0005EF44       ExceptionLog.GetActiveFormText
 0001:00051FC8       ExceptionLog.GetActiveMonitorData
 0001:0005FCEC       ExceptionLog.GetAdapterInfo
 0001:00049778       ExceptionLog.GetAllocatedMemory
 0001:0004C458       ExceptionLog.GetAndSetFunctionSize
 0001:0005F854       ExceptionLog.GetApplicationName
 0001:00048588       ExceptionLog.GetApplicationRect
 0001:0005EED8       ExceptionLog.GetApplicationUpTime
 0001:000502AC       ExceptionLog.GetBaseOfStack
 0001:00057760       ExceptionLog.GetBottonWidth
 0001:00050184       ExceptionLog.GetCallStackByAddresses
 0001:000473A8       ExceptionLog.GetCallStackDump
 0001:00061074       ExceptionLog.GetCompanyName
 0001:0005EE78       ExceptionLog.GetCompilationDate
 0001:00044824       ExceptionLog.GetCompleteTimeStr
 0001:00066F5C       ExceptionLog.GetControlClass
 0001:00066FB8       ExceptionLog.GetControlText
 0001:00061344       ExceptionLog.GetCurrentPrinterHandle
 0001:00069948       ExceptionLog.GetCurrentStackPointer
 0001:000502B4       ExceptionLog.GetCurrentStackPointer
 0001:0004664C       ExceptionLog.GetCurrentTopOfStack
 0001:00060E94       ExceptionLog.GetCurrentUserPrivileges
 0001:0004F9FC       ExceptionLog.GetDebugDetail
 0001:0005DCD4       ExceptionLog.GetDebugInfoEx
 0001:0004C838       ExceptionLog.GetDebugInfosByAddr
 0001:0004C238       ExceptionLog.GetDebugPartialInfo
 0001:00061260       ExceptionLog.GetDefaultPrinter
 0001:00055348       ExceptionLog.GetDialogState
 0001:0005F608       ExceptionLog.GetDiskInfo
 0001:00060DA4       ExceptionLog.GetDisplayDPI
 0001:0005FB04       ExceptionLog.GetDisplayMode
 0001:00062968       ExceptionLog.GetDump
 0001:000626A8       ExceptionLog.GetEAX
 0001:00062700       ExceptionLog.GetEBX
 0001:00062758       ExceptionLog.GetECX
 0001:00062860       ExceptionLog.GetEDI
 0001:0005130C       ExceptionLog.GetEditText
 0001:000627B0       ExceptionLog.GetEDX
 0001:0004E79C       ExceptionLog.GetEF
 0001:00062910       ExceptionLog.GetEIP
 0001:00062BE8       ExceptionLog.GetEmptySection
 0001:00062808       ExceptionLog.GetESI
 0001:000628B8       ExceptionLog.GetESP
 0001:00047398       ExceptionLog.GetESP
 0001:0004F038       ExceptionLog.GetEurekaLogModuleVersion
 0001:0005F1FC       ExceptionLog.GetExceptionAddress
 0001:0005F1E4       ExceptionLog.GetExceptionDate
 0001:0005EC18       ExceptionLog.GetExceptionMessage
 0001:0005F230       ExceptionLog.GetExceptionModuleName
 0001:0005F314       ExceptionLog.GetExceptionModuleVersion
 0001:0005F398       ExceptionLog.GetExceptionType
 0001:000503C0       ExceptionLog.GetExceptMessage
 0001:000492B4       ExceptionLog.GetFileSize
 0001:0006022C       ExceptionLog.GetFileVersionEx
 0001:0005F6FC       ExceptionLog.GetFreeDisk
 0001:0005F588       ExceptionLog.GetFreeMemory
 0001:0005DFA4       ExceptionLog.GetFunctionAsm
 0001:00060428       ExceptionLog.GetIndexKeyName
 0001:00061200       ExceptionLog.GetIniDefPrinter
 0001:00067914       ExceptionLog.GetIntraWebExceptionType
 0001:00054288       ExceptionLog.GetItemText
 0001:0005F198       ExceptionLog.GetLanguageString
 0001:0005F05C       ExceptionLog.GetLocaleDataA
 0001:0005F01C       ExceptionLog.GetLocaleDataW
 0001:000483EC       ExceptionLog.GetMainWindow
 0001:0005F43C       ExceptionLog.GetMemInfo
 0001:00048E7C       ExceptionLog.GetModuleDescriptionAndVersion
 0001:00048C5C       ExceptionLog.GetModulePath
 0001:00048D4C       ExceptionLog.GetModuleSize
 0001:00049660       ExceptionLog.GetModulesList
 0001:000494D0       ExceptionLog.GetModulesWin9X
 0001:0004936C       ExceptionLog.GetModulesWinNT
 0001:00048DDC       ExceptionLog.GetModuleVer
 0001:0004D34C       ExceptionLog.GetModule_ProcedureEvent
 0001:00052228       ExceptionLog.GetMonitorWorkAreaFromActiveWnd
 0001:00052204       ExceptionLog.GetMonitorWorkAreaFromWnd
 0001:0005211C       ExceptionLog.GetMonitorWorkAreaFromWndEx
 0001:000600A8       ExceptionLog.GetNetworkData
 0001:00059718       ExceptionLog.GetOptimizedPalette
 0001:00046080       ExceptionLog.GetOSBuild
 0001:0005F1CC       ExceptionLog.GetOSCharset
 0001:0005F1C0       ExceptionLog.GetOSLanguage
 0001:00045C60       ExceptionLog.GetOSType
 0001:0005F008       ExceptionLog.GetOSUpdate
 0001:0004734C       ExceptionLog.GetOutOfMemoryCache
 0001:000592EC       ExceptionLog.GetPaletteColors
 0001:0005EDD0       ExceptionLog.GetParameters
 0001:0004A130       ExceptionLog.GetParentProcessID
 0001:00051374       ExceptionLog.GetParentWnd
 0001:0004F388       ExceptionLog.GetPassword
 0001:000613C0       ExceptionLog.GetPrinterStr
 0001:00049F64       ExceptionLog.GetProcessesList
 0001:0005F924       ExceptionLog.GetProcessor
 0001:00049228       ExceptionLog.GetProcessThreads
 0001:0004CB1C       ExceptionLog.GetRealFileName
 0001:0004B3B0       ExceptionLog.GetResourceData
 0001:0004B6F4       ExceptionLog.GetSourceInfoByAddr
 0001:00062B48       ExceptionLog.GetStack
 0001:0005F83C       ExceptionLog.GetStartDate
 0001:0004BEE8       ExceptionLog.GetSymbolAddr
 0001:0005FAC8       ExceptionLog.GetSystemUpTime
 0001:00051090       ExceptionLog.GetTextHeight
 0001:00051284       ExceptionLog.GetTextWidth
 0001:0005193C       ExceptionLog.GetThreadData
 0001:0006789C       ExceptionLog.GetThreadParams
 0001:000473A0       ExceptionLog.GetTopOfStack
 0001:0005F79C       ExceptionLog.GetTotalDisk
 0001:0005F508       ExceptionLog.GetTotalMemory
 0001:00061060       ExceptionLog.GetUserEmail
 0001:0006A38C       ExceptionLog.GetValidMainWindow
 0001:00049260       ExceptionLog.GetVersionNumber
 0001:00060604       ExceptionLog.GetVideoCardStr
 0001:00048258       ExceptionLog.GetWindowClassName
 0001:0004840C       ExceptionLog.GetWindowName
 0004:00006A7C       ExceptionLog.GlobalSendValues
 0004:000063F4       ExceptionLog.Global_AttachedFiles
 0004:0000639B       ExceptionLog.Global_CloseDialog
 0004:000063E8       ExceptionLog.Global_CurrentEvent
 0004:000063FC       ExceptionLog.Global_DataFields
 0004:000063C0       ExceptionLog.Global_ExceptionRecord
 0004:00006398       ExceptionLog.Global_Execute
 0004:00006399       ExceptionLog.Global_Handled
 0003:00005BB0       ExceptionLog.Global_IntoHandleException
 0004:00006404       ExceptionLog.Global_IntraWebText
 0004:000063F0       ExceptionLog.Global_LastInitPassword
 0004:00006400       ExceptionLog.Global_Module
 0004:000063EC       ExceptionLog.Global_Password
 0004:0000639A       ExceptionLog.Global_Retry
 0004:000063F8       ExceptionLog.Global_WebFields
 0004:00006408       ExceptionLog.Global_WebTextID
 0001:00067AE4       ExceptionLog.GoNotify
 0001:0006B4C4       ExceptionLog.HandleAnyExceptionAddr
 0004:00006100       ExceptionLog.HandleAnyExceptionAddr_Variable
 0001:0006B568       ExceptionLog.HandleAutoExceptionAddr
 0004:00006108       ExceptionLog.HandleAutoExceptionAddr_Variable
 0004:00006264       ExceptionLog.HandledCache
 0004:00006260       ExceptionLog.HandledCacheCount
 0004:00006354       ExceptionLog.HandledCacheCriticalSection
 0004:00006078       ExceptionLog.HandledExceptionNotify
 0001:0006B510       ExceptionLog.HandleOnExceptionAddr
 0004:00006104       ExceptionLog.HandleOnExceptionAddr_Variable
 0001:0004821C       ExceptionLog.HasWindowASize
 0001:0004E700       ExceptionLog.HookBPLProcedureByAddr
 0001:0004E774       ExceptionLog.HookBPLProcedureBySymbol
 0001:000689A8       ExceptionLog.HookedCreateThread
 0001:00068174       ExceptionLog.HookedExceptionObject
 0001:00068304       ExceptionLog.HookedExceptProc
 0001:00068E20       ExceptionLog.HookedExitThread
 0001:00068F10       ExceptionLog.HookedHttpExtensionProc
 0001:00067FC0       ExceptionLog.HookedRaise
 0001:00068C04       ExceptionLog.HookedResumeThread
 0001:000685E8       ExceptionLog.HookedRTLThreadProc
 0001:0006824C       ExceptionLog.HookedRtlUnwind
 0001:00068490       ExceptionLog.HookedThreadExecute
 0001:00068718       ExceptionLog.HookedThreadProc
 0001:00068EDC       ExceptionLog.HookedWriteClientProc
 0001:00068274       ExceptionLog.HookedWriteFile
 0001:00069AD8       ExceptionLog.Hooked_CGIHandleServerException
 0001:00069BEC       ExceptionLog.Hooked_CLXHandleException
 0001:00069C1C       ExceptionLog.Hooked_CLXShowException
 0001:0006A2C4       ExceptionLog.Hooked_DoneExcept
 0001:0006A294       ExceptionLog.Hooked_IndyThreadHandleException
 0001:00069C70       ExceptionLog.Hooked_IntraWebCreateServer
 0001:00069F70       ExceptionLog.Hooked_IntraWebSendResponse
 0001:00069B08       ExceptionLog.Hooked_ISAPIHandleServerException
 0001:0006A1E0       ExceptionLog.Hooked_NTServiceLogMessage
 0001:00069B38       ExceptionLog.Hooked_VCLHandleException
 0001:00069BAC       ExceptionLog.Hooked_VCLShowException
 0001:0006BE1C       ExceptionLog.HookingModuleName
 0001:0006BE40       ExceptionLog.HookingRTLModuleName
 0001:0006B7C0       ExceptionLog.HookLastFInit
 0001:0006B738       ExceptionLog.HookLastInit
 0001:0004E668       ExceptionLog.HookSymbolProcedure
 0001:0006B7D0       ExceptionLog.Hook_InitializationAndFinalization
 0001:0006B968       ExceptionLog.Hook_OnExceptionEvents
 0001:0005AE94       ExceptionLog.HostName
 0003:00005BEC       ExceptionLog.IDATHeader
 0001:0005918C       ExceptionLog.IDATWrite
 0004:0000638C       ExceptionLog.IDC_CURSOR
 0001:000445E8       ExceptionLog.ifelseStr
 0001:00044660       ExceptionLog.ifStr
 0003:00005C00       ExceptionLog.iLevel
 0001:0005DE44       ExceptionLog.ImmidiateDataProc
 0004:00006208       ExceptionLog.InactiveThreads
 0001:0005AE44       ExceptionLog.IncSendDialogBar
 0004:00006234       ExceptionLog.IndyHooked
 0004:00006140       ExceptionLog.IndyThread_HandleException
 0004:00006124       ExceptionLog.Indy_OnException
 0001:0006C014       ExceptionLog.Init
 0001:0006A5B8       ExceptionLog.InitCheckFreeze
 0001:000590A0       ExceptionLog.InitDeflate
 0004:00006162       ExceptionLog.InitFInitException
 0003:00005B88       ExceptionLog.Initialized
 0001:000598D0       ExceptionLog.InitScreenshot
 0001:000522C8       ExceptionLog.InsertColumn
 0001:0004433C       ExceptionLog.InsertHandled
 0001:0006BE34       ExceptionLog.InstanceModuleName
 0001:00047844       ExceptionLog.InternalCriticalError
 0004:000061E0       ExceptionLog.InternalErrorCode
 0004:000061E4       ExceptionLog.InternalErrorMsg
 0001:00065B88       ExceptionLog.InternalExceptNotify
 0001:0004A2E0       ExceptionLog.InternalFileExists
 0001:0005A0B4       ExceptionLog.InternalSendMail
 0001:0006AC88       ExceptionLog.Internal_AddLeak
 0001:0006B2F8       ExceptionLog.Internal_Finalization
 0001:0006B2E0       ExceptionLog.Internal_MultiFreeProc
 0001:0006B2C8       ExceptionLog.Internal_OverrunProc
 0001:0006AA08       ExceptionLog.Internal_ResetLeaks
 0001:0006AE0C       ExceptionLog.Internal_ShowLeaks
 0001:0004E7DC       ExceptionLog.IntoCreateClassFunction
 0004:00006161       ExceptionLog.IntoFinalization
 0004:00006160       ExceptionLog.IntoInitialization
 0001:0004E7AC       ExceptionLog.IntoSystemUnit
 0001:0004E7C4       ExceptionLog.IntoThisUnit
 0004:00006168       ExceptionLog.IntraWebApplication
 0004:00006170       ExceptionLog.IntraWebCompressedPage
 0004:0000616C       ExceptionLog.IntraWebServerController
 0001:0006B884       ExceptionLog.IntraWeb_BPL
 0004:00006118       ExceptionLog.IntraWeb_CreateServer
 0004:00006178       ExceptionLog.IntraWeb_NewEvent
 0001:00067A80       ExceptionLog.IntraWeb_OnExceptionEvent
 0001:000679FC       ExceptionLog.IntraWeb_OnExceptionEvent_New
 0001:00067970       ExceptionLog.IntraWeb_OnExceptionEvent_Old
 0004:00006120       ExceptionLog.IntraWeb_OnException_New
 0004:0000611C       ExceptionLog.IntraWeb_OnException_Old
 0004:00006130       ExceptionLog.IntraWeb_SendResponse
 0004:0000612C       ExceptionLog.IntraWeb_ShowMessage
 0004:00006174       ExceptionLog.IntraWeb_Version
 0005:0000017C       ExceptionLog.InUnhandledException
 0001:0004860C       ExceptionLog.IsANewProcessWindow
 0001:00046A40       ExceptionLog.IsAParent
 0001:00046930       ExceptionLog.IsAParentClassStr
 0001:00046B04       ExceptionLog.IsAParentClassStr_Unsafe
 0001:00046AB0       ExceptionLog.IsAParents
 0001:00046A18       ExceptionLog.IsAParentStr
 0001:00046BE4       ExceptionLog.IsAParentStr_Unsafe
 0001:000618BC       ExceptionLog.IsAParentX
 0004:0000614C       ExceptionLog.ISAPIHandleException
 0004:000060B4       ExceptionLog.ISAPI_HttpExtensionProc
 0004:000060BC       ExceptionLog.ISAPI_Proc
 0003:00005B74       ExceptionLog.ISAPI_SendError
 0004:000060B8       ExceptionLog.ISAPI_WriteClientProc
 0001:000482A4       ExceptionLog.IsApplicationWindow
 0001:000658F8       ExceptionLog.IsBorlandThread
 0001:0004A2AC       ExceptionLog.IsCGI
 0001:00061940       ExceptionLog.IsCompatibleException
 0001:000465B4       ExceptionLog.IsCompatibleVersion
 0001:0004B2A8       ExceptionLog.IsCompiledWithPackages
 0001:0004A2A0       ExceptionLog.IsConsoleApp
 0001:000485F4       ExceptionLog.IsCurrentProcessWindow
 0001:000464B4       ExceptionLog.IsDebugged
 0001:00047384       ExceptionLog.IsDelphiException
 0001:000484E8       ExceptionLog.IsDelphiProcess
 0004:0000665C       ExceptionLog.IsDialogShowed
 0001:000522A0       ExceptionLog.IsEscapePressed
 0001:00069940       ExceptionLog.IsEurekaLogActive
 0001:000698E0       ExceptionLog.IsEurekaLogActiveInThread
 0001:0004F004       ExceptionLog.IsEurekaLogCompatibleModule
 0001:00069628       ExceptionLog.IsEurekaLogInstalled
 0001:0004EFE0       ExceptionLog.IsEurekaLogModule
 0001:0004EF50       ExceptionLog.IsEurekaLogModule_New
 0001:0004EE38       ExceptionLog.IsEurekaLogModule_Old
 0001:0004E840       ExceptionLog.IsExceptionHandled
 0004:0000637D       ExceptionLog.IsFilterDialog
 0001:0004A520       ExceptionLog.IsGUI
 0001:0006747C       ExceptionLog.IsHandledSafeCallException
 0001:00069DA4       ExceptionLog.IsHTMLPage
 0001:0004A4E8       ExceptionLog.IsIntraWeb
 0001:0004A4AC       ExceptionLog.IsISAPI
 0001:0004B24C       ExceptionLog.IsLocalStorageProc
 0001:000658E8       ExceptionLog.IsMainThread
 0001:00048314       ExceptionLog.IsMainWindow
 0001:00046C00       ExceptionLog.IsManageableObject
 0001:000489B8       ExceptionLog.IsModuleLibrary
 0001:00050CE0       ExceptionLog.ISODateTime
 0001:000683CC       ExceptionLog.IsOldIndy9
 0001:0004B29C       ExceptionLog.IsRTLCompiledWithStackFrames
 0001:00067E90       ExceptionLog.IsSetThreadNameException
 0001:00067EA4       ExceptionLog.IsSetThreadNameExceptionEx
 0001:0004B26C       ExceptionLog.IsStackFramesProc
 0001:000466F8       ExceptionLog.IsValidClass
 0001:00057850       ExceptionLog.IsValidEmail
 0001:00046524       ExceptionLog.IsValidHandle
 0001:00044550       ExceptionLog.IsValidModule
 0001:0004680C       ExceptionLog.IsValidObject
 0001:00046584       ExceptionLog.IsValidRunningThread
 0001:00046654       ExceptionLog.IsValidSymbolName
 0001:0004A4F4       ExceptionLog.IsWeb
 0001:00045BC8       ExceptionLog.IsWin64
 0001:00045B74       ExceptionLog.IsWin95
 0001:0004A354       ExceptionLog.IsWinCGI
 0001:00065914       ExceptionLog.IsWindowsThread
 0001:00045B90       ExceptionLog.IsWinNT4
 0001:00045BAC       ExceptionLog.IsWinVista
 0001:00045C20       ExceptionLog.IsWorkstation
 0001:0004FC08       ExceptionLog.IsWrongCall
 0001:0004B308       ExceptionLog.Is_HandleOnException_Handled
 0004:000060A4       ExceptionLog.Kernel_CreateThread
 0004:000060AC       ExceptionLog.Kernel_ExitThread
 0004:0000609C       ExceptionLog.Kernel_RaiseException
 0004:000060A8       ExceptionLog.Kernel_ResumeThread
 0004:000060A0       ExceptionLog.Kernel_RtlUnwind
 0004:000060B0       ExceptionLog.Kernel_WriteFile
 0001:00048758       ExceptionLog.KillApplication
 0004:000060F8       ExceptionLog.LanguageStr
 0004:00006378       ExceptionLog.LastBugID
 0004:000061AC       ExceptionLog.LastDelphiException
 0004:00006238       ExceptionLog.LastDumpCriticalSection
 0005:0000005C       ExceptionLog.LastECX
 0004:0000619C       ExceptionLog.LastExceptAddr
 0003:00005B8C       ExceptionLog.LastExceptionAddress
 0004:00006254       ExceptionLog.LastExceptionCallStackAddress
 0004:0000625C       ExceptionLog.LastExceptionCallStackDump
 0004:00006258       ExceptionLog.LastExceptionCallStackSize
 0004:000061BC       ExceptionLog.LastExceptionLog
 0004:00006374       ExceptionLog.LastExceptionMessage
 0003:00005B90       ExceptionLog.LastExceptionObject
 0004:000061B8       ExceptionLog.LastExceptionRecord
 0004:00006250       ExceptionLog.LastExceptionThreadID
 0004:00006370       ExceptionLog.LastExceptionType
 0004:000061B0       ExceptionLog.LastExceptMessage
 0004:000061A8       ExceptionLog.LastExceptObject
 0004:000061A4       ExceptionLog.LastExceptThreadID
 0004:00006114       ExceptionLog.LastFinalizationPtr
 0004:00006158       ExceptionLog.LastHTMLPage
 0004:00006110       ExceptionLog.LastInitializationPtr
 0004:0000615C       ExceptionLog.LastInitPointer
 0004:000061C0       ExceptionLog.LastLog
 0001:0006CACC       ExceptionLog.LastProc
 0005:00000058       ExceptionLog.LastStackPointer
 0005:00000050       ExceptionLog.LastThreadExceptionAddr
 0005:0000000C       ExceptionLog.LastThreadExceptionType
 0004:00006388       ExceptionLog.LeakAddr
 0003:00005B84       ExceptionLog.LeaksStackList
 0004:00006384       ExceptionLog.LeakTotalCount
 0004:00006380       ExceptionLog.LeakTotalSize
 0004:00006608       ExceptionLog.LeftButton
 0004:00006600       ExceptionLog.ListHeight
 0004:000065FC       ExceptionLog.ListWidth
 0001:00044AE4       ExceptionLog.Load
 0001:0004F418       ExceptionLog.LoadData
 0001:0004F218       ExceptionLog.LoadData_Old
 0001:0004F838       ExceptionLog.LoadDebugInformation
 0003:00005BA0       ExceptionLog.LoadedDotNetMain
 0001:0006BEBC       ExceptionLog.LoadFromFile
 0001:00046EA4       ExceptionLog.LoadSharedDataEx
 0001:0004D18C       ExceptionLog.LoadTextFile
 0001:0005F0A0       ExceptionLog.LocalesCallback
 0001:00067AD8       ExceptionLog.LockCheck
 0001:0005C148       ExceptionLog.LogFileMessage
 0001:0005AEDC       ExceptionLog.LoggedUserName
 0001:0004A294       ExceptionLog.LogicToPhysicAddr
 0001:00053FC4       ExceptionLog.MailSlotSend
 0004:00006658       ExceptionLog.MainDialog
 0004:00006194       ExceptionLog.MainThreadHandle
 0004:00006198       ExceptionLog.MainThreadTopOfStack
 0001:0004DCB8       ExceptionLog.MappedExceptionObject
 0003:00005BF0       ExceptionLog.Mask
 0003:00005BAC       ExceptionLog.MemoryOverrunExceptionText
 0001:00052DC4       ExceptionLog.ModuleBmp
 0001:00044438       ExceptionLog.ModuleFileName
 0001:000489A4       ExceptionLog.ModuleInfoByAddr
 0001:000488E8       ExceptionLog.ModuleInfoByHandle
 0003:00005B9C       ExceptionLog.ModuleInfoData
 0003:00005B98       ExceptionLog.ModuleInfoHandle
 0001:0004A284       ExceptionLog.ModuleInitTable
 0003:00005B78       ExceptionLog.ModulesList
 0001:00052EBC       ExceptionLog.ModulesListDialogProc
 0004:00006668       ExceptionLog.MonitorRect
 0003:00005BA8       ExceptionLog.MultiFreeExceptionText
 0004:000063E4       ExceptionLog.MustFreeGlobalMappedObject
 0001:0006596C       ExceptionLog.MustPauseThisThread
 0001:000657B8       ExceptionLog.MustRestoreApplication
 0001:00065778       ExceptionLog.MustSendMessage
 0001:000557E4       ExceptionLog.NewDialogProc
 0001:000513B8       ExceptionLog.NewDialogProc
 0001:00058C68       ExceptionLog.NewDialogProc
 0001:00057AFC       ExceptionLog.NewMSDialogProc
 0001:0004FB98       ExceptionLog.NextItem
 0004:00006448       ExceptionLog.NonClientMetrics
 0004:00006391       ExceptionLog.NoSynchronizeEvent
 0005:0000017D       ExceptionLog.NotCatchCallerThread
 0004:00006211       ExceptionLog.NotLoadDebugInfo
 0004:0000613C       ExceptionLog.NTService_LogMessage
 0001:000465E4       ExceptionLog.ObjectInstanceSize
 0001:00046860       ExceptionLog.ObjectName
 0004:000060EC       ExceptionLog.OldExceptObjProc
 0004:000060DC       ExceptionLog.OldExceptProc
 0004:00006664       ExceptionLog.OldForegroundWnd
 0004:0000639C       ExceptionLog.OldGlobal_ExceptionRecord
 0001:0005DD28       ExceptionLog.OnCallInstr
 0001:000446E0       ExceptionLog.OneString
 0004:0000618C       ExceptionLog.OnlySafeCallExceptions
 0001:0005DE3C       ExceptionLog.OnRefProc
 0003:00005BB4       ExceptionLog.Opened_LogFile_Name
 0001:00054124       ExceptionLog.OpenIDEEditor
 0001:0004C8E0       ExceptionLog.OpenLogFile
 0004:000065E8       ExceptionLog.OriginalHeight
 0004:00006164       ExceptionLog.OriginalThreadProc
 0004:000065E4       ExceptionLog.OriginalWidth
 0001:000603F4       ExceptionLog.OSSupportDisplayAPI
 0004:00006394       ExceptionLog.OutOfMemoryCache
 0004:00006084       ExceptionLog.PasswordRequest
 0004:00006EE4       ExceptionLog.PNG_Bitmap
 0004:00006A9C       ExceptionLog.PNG_ColoursCount
 0004:00006AC8       ExceptionLog.PNG_CRCList
 0003:00005BC0       ExceptionLog.PNG_CRCListed
 0004:00006ED8       ExceptionLog.PNG_Cursor
 0004:00006AAC       ExceptionLog.PNG_Data
 0004:00006AA4       ExceptionLog.PNG_DataSize
 0004:00006EE0       ExceptionLog.PNG_DCCompatible
 0004:00006EDC       ExceptionLog.PNG_DCScreen
 0004:00006AC4       ExceptionLog.PNG_Encode_Data
 0004:00006AC0       ExceptionLog.PNG_Encode_Filter
 0004:00006ED4       ExceptionLog.PNG_FocusWnd
 0003:00005BF8       ExceptionLog.PNG_HeaderBytes
 0004:00006AB0       ExceptionLog.PNG_HeaderData
 0004:00006EEC       ExceptionLog.PNG_Height
 0004:00006ED0       ExceptionLog.PNG_HWindow
 0004:00006AA8       ExceptionLog.PNG_ImgData
 0004:00006EC8       ExceptionLog.PNG_pal
 0004:00006AA0       ExceptionLog.PNG_RowBytes
 0004:00006ECC       ExceptionLog.PNG_UsePal
 0004:00006EE8       ExceptionLog.PNG_Width
 0001:00048654       ExceptionLog.PopulateCurrentProcessWindows
 0001:0005D6AC       ExceptionLog.PrepareFilesToSend
 0001:00049124       ExceptionLog.PriorityToString
 0001:0005AC64       ExceptionLog.ProcessDialogMessages
 0003:00005B7C       ExceptionLog.ProcessesList
 0001:000535F0       ExceptionLog.ProcessesListDialogProc
 0001:0005958C       ExceptionLog.ProcessImage
 0001:000501D8       ExceptionLog.ProcessMessage
 0001:0006737C       ExceptionLog.ProcessMessages
 0001:0004FC98       ExceptionLog.PurgeCallStack
 0001:00065810       ExceptionLog.PurgeModulesList
 0001:0005E87C       ExceptionLog.PurgeString
 0004:000061A0       ExceptionLog.RaisedExceptAddr
 0004:000065D0       ExceptionLog.rClick
 0001:00051A6C       ExceptionLog.ReadableThreadID
 0001:0004EB08       ExceptionLog.ReadAddr
 0001:0006051C       ExceptionLog.ReadDWordKey
 0001:0004B3F8       ExceptionLog.ReadEncodeString
 0001:0004EA84       ExceptionLog.ReadStartData
 0001:0005238C       ExceptionLog.ReadState
 0001:0006B4B0       ExceptionLog.RealAddr
 0004:000065F8       ExceptionLog.RealHeight
 0004:000065EC       ExceptionLog.RealLeft
 0001:00049A08       ExceptionLog.RealPriority
 0001:0004CE70       ExceptionLog.RealTmpLastHTMLPage
 0004:000065F0       ExceptionLog.RealTop
 0004:000065F4       ExceptionLog.RealWidth
 0001:000488E0       ExceptionLog.Real_FindHInstance
 0001:0004459C       ExceptionLog.Real_GetCommandLine
 0001:000445C0       ExceptionLog.Real_GetCurrentModuleFileName
 0001:000445B0       ExceptionLog.Real_GetCurrentProcess
 0001:000445B8       ExceptionLog.Real_GetCurrentProcessID
 0005:0000017E       ExceptionLog.RecursiveException
 0001:000594CC       ExceptionLog.ReduceTree
 0001:0005ECFC       ExceptionLog.RemoveDoubleQuotes
 0001:00060014       ExceptionLog.RemoveLastSeparator
 0001:00050C64       ExceptionLog.ResetAutoCloseTimer
 0001:0005AF18       ExceptionLog.ResetCounting
 0001:00067338       ExceptionLog.ResetGlobalVars
 0001:0004DE54       ExceptionLog.RestoreGlobalExceptionRecord
 0001:00046F78       ExceptionLog.RFCDate
 0001:0004E648       ExceptionLog.RoundMatch
 0001:0004E660       ExceptionLog.RoundMatchPtr
 0004:000065C0       ExceptionLog.rSupport
 0001:00044B30       ExceptionLog.RTF_LoadFromStream
 0001:00044B5C       ExceptionLog.RTF_LoadFromText
 0004:00006A98       ExceptionLog.SavedLastHTMLPage
 0001:0004CC48       ExceptionLog.SavedScreenshot
 0001:0004DD8C       ExceptionLog.SaveGlobalExceptionRecord
 0001:00061754       ExceptionLog.SaveLogFile
 0001:0005263C       ExceptionLog.SaveState
 0001:0005B2C4       ExceptionLog.SendCommandEx
 0001:0005C91C       ExceptionLog.SendEmailMessage
 0001:0005DA04       ExceptionLog.SendInternetMessage
 0004:00006A94       ExceptionLog.SendPosition
 0001:0005D55C       ExceptionLog.SendWebMessage
 0004:000060C0       ExceptionLog.ServerECB
 0001:00050C20       ExceptionLog.SetAutoCloseTimer
 0001:00050CB0       ExceptionLog.SetAutoTopMost
 0001:00048670       ExceptionLog.SetClipboardText
 0001:0005AEF4       ExceptionLog.SetCounting
 0001:00069810       ExceptionLog.SetCurrentStackPointer
 0001:000503AC       ExceptionLog.SetCustomErrorMessage
 0001:0006BE00       ExceptionLog.SetDebugHook
 0001:00052344       ExceptionLog.SetDialogRect
 0001:000527D4       ExceptionLog.SetDialogState
 0001:000659C4       ExceptionLog.SetEnvVariables
 0001:0005CAE4       ExceptionLog.SetError
 0001:00048120       ExceptionLog.SetErrorType
 0001:00069938       ExceptionLog.SetEurekaLogState
 0001:00046460       ExceptionLog.SetEventAddr
 0001:0005CF98       ExceptionLog.SetFullURL
 0001:00067414       ExceptionLog.SetHandledWithEurekaLog
 0001:00068464       ExceptionLog.SetIndyEvent
 0001:00068420       ExceptionLog.SetIndyEvent10
 0001:000683DC       ExceptionLog.SetIndyEvent9
 0001:00050AA0       ExceptionLog.SetInitDialog
 0001:00047FC0       ExceptionLog.SetInternalError
 0001:00067A94       ExceptionLog.SetIntraWebEvent
 0001:000442E4       ExceptionLog.SetItem
 0001:00067FB0       ExceptionLog.SetLastECX
 0001:000502A4       ExceptionLog.SetLastException
 0001:0005027C       ExceptionLog.SetLastExceptionData
 0001:0004D344       ExceptionLog.SetLastExceptionObject
 0001:000502BC       ExceptionLog.SetLastExceptStack
 0001:00067FA0       ExceptionLog.SetLastStackPointer
 0001:0004689C       ExceptionLog.SetLastThreadException
 0001:0006B4B4       ExceptionLog.SetMainThreadTopOfStack
 0001:00058BCC       ExceptionLog.SetRectangles
 0001:00055630       ExceptionLog.SetRectangles
 0001:000503EC       ExceptionLog.SetRectangles
 0001:00044C14       ExceptionLog.SetRTFBackColor
 0001:0005ADFC       ExceptionLog.SetSendDialogBar
 0001:0005ACD0       ExceptionLog.SetSendDialogLabel
 0001:0005ADC4       ExceptionLog.SetSendDialogSingleLabel
 0001:0005CFE0       ExceptionLog.SetWebTrakerError
 0001:0005C288       ExceptionLog.ShellSendMail
 0001:00051378       ExceptionLog.ShiftWndBottom
 0001:00058930       ExceptionLog.ShowDialog
 0003:00005668       ExceptionLog.ShowEurekaLogUnits
 0004:00006655       ExceptionLog.ShowInDetailsMode
 0003:00005674       ExceptionLog.ShowInternalSendErrors
 0001:00051714       ExceptionLog.ShowRequestDialog
 0001:00058F40       ExceptionLog.ShowSendDialog
 0001:00058EAC       ExceptionLog.ShowSendDialogThread
 0001:00065868       ExceptionLog.ShowType
 0001:000447DC       ExceptionLog.SimpleWord
 0001:0006A360       ExceptionLog.SleepAndWait
 0001:0005C188       ExceptionLog.SMTPSend
 0001:0005BBC4       ExceptionLog.SMTPSendEmail
 0001:0005B344       ExceptionLog.SMTPSendSingleEmail
 0001:00069854       ExceptionLog.StandardEurekaNotify
 0001:0004666C       ExceptionLog.StandardIsValidClass
 0001:0005DF6C       ExceptionLog.StartComment
 0004:000061D0       ExceptionLog.StartDir
 0004:000060E4       ExceptionLog.StartingDate
 0001:00046DD4       ExceptionLog.StoreSharedDataEx
 0004:000065E0       ExceptionLog.SupportLinkActive
 0001:0004E594       ExceptionLog.SynchronizeEvent
 0004:000061D4       ExceptionLog.SynchronizeExcept
 0004:000061D8       ExceptionLog.SynchronizeRaise
 0001:00044198       ExceptionLog.TActiveXException.Destroy
 0001:000446B4       ExceptionLog.TempPath
 0004:0000610C       ExceptionLog.TerminateApplication
 0001:00069530       ExceptionLog.TEurekaFunctionsList.Clear
 0001:00069554       ExceptionLog.TEurekaFunctionsList.Delete
 0001:0006957C       ExceptionLog.TEurekaFunctionsList.Destroy
 0001:000695A8       ExceptionLog.TEurekaFunctionsList.GetItem
 0001:000445D4       ExceptionLog.TEurekaLogList.GetItem
 0001:0006A758       ExceptionLog.TEurekaModuleOptionsEx.LoadSharedData
 0001:0006A6C0       ExceptionLog.TEurekaModuleOptionsEx.SetActive
 0001:0006A708       ExceptionLog.TEurekaModuleOptionsEx.SetFreezeActivate
 0001:0006A750       ExceptionLog.TEurekaModuleOptionsEx.StoreSharedData
 0001:00068FD8       ExceptionLog.TEurekaModulesList.Clear
 0001:00068FFC       ExceptionLog.TEurekaModulesList.Delete
 0001:00069050       ExceptionLog.TEurekaModulesList.Destroy
 0001:0006907C       ExceptionLog.TEurekaModulesList.GetItem
 0001:00069090       ExceptionLog.TEurekaProcessesList.Clear
 0001:000690B4       ExceptionLog.TEurekaProcessesList.Delete
 0001:000690DC       ExceptionLog.TEurekaProcessesList.Destroy
 0001:00069108       ExceptionLog.TEurekaProcessesList.GetItem
 0001:00068F4C       ExceptionLog.TEurekaStackList.Clear
 0001:00068F70       ExceptionLog.TEurekaStackList.Delete
 0001:00068F98       ExceptionLog.TEurekaStackList.Destroy
 0001:00068FC4       ExceptionLog.TEurekaStackList.GetItem
 0001:000693A4       ExceptionLog.TEurekaThreadsList.BeginRead
 0001:000693BC       ExceptionLog.TEurekaThreadsList.BeginWrite
 0001:0006923C       ExceptionLog.TEurekaThreadsList.Clear
 0001:0006911C       ExceptionLog.TEurekaThreadsList.Create
 0001:00069260       ExceptionLog.TEurekaThreadsList.Delete
 0001:00069200       ExceptionLog.TEurekaThreadsList.Destroy
 0001:000693B0       ExceptionLog.TEurekaThreadsList.EndRead
 0001:000693C8       ExceptionLog.TEurekaThreadsList.EndWrite
 0001:00069300       ExceptionLog.TEurekaThreadsList.FindByThreadHandle
 0001:00069360       ExceptionLog.TEurekaThreadsList.FindByThreadID
 0001:00069330       ExceptionLog.TEurekaThreadsList.FindByThreadObject
 0001:00069390       ExceptionLog.TEurekaThreadsList.GetItem
 0001:000693D4       ExceptionLog.TEurekaThreadsList.NewItem
 0001:00069410       ExceptionLog.TEurekaThreadsList.PurgeList
 0001:000692A4       ExceptionLog.TEurekaThreadsList.RemoveCurrentThread
 0001:00067168       ExceptionLog.TExceptionThread.Create
 0001:000672C8       ExceptionLog.TExceptionThread.Execute
 0001:00046268       ExceptionLog.TextToHtml
 0001:00044C3C       ExceptionLog.TextToRTF
 0004:00006604       ExceptionLog.TextWidth
 0001:0006A328       ExceptionLog.TFreezeThread.Create
 0001:0006A3C0       ExceptionLog.TFreezeThread.Execute
 0001:0004882C       ExceptionLog.THModuleStream.Create
 0001:00048874       ExceptionLog.THModuleStream.Destroy
 0001:000488A4       ExceptionLog.THModuleStream.SecureRead
 0004:000061F0       ExceptionLog.ThreadsCriticalSection
 0004:000060E0       ExceptionLog.ThreadsList
 0004:000061DC       ExceptionLog.ThreadWrapperAddr
 0001:0006A760       ExceptionLog.THTTPConnection.SetSendState
 0001:0006838C       ExceptionLog.TIdThread10.HandledException
 0001:0006834C       ExceptionLog.TIdThread9.HandledException
 0001:0005C6FC       ExceptionLog.TmpCompressedFileName
 0001:0004CEF4       ExceptionLog.TmpLastHTMLPage
 0001:0004CCE8       ExceptionLog.TmpLogFileName
 0001:0004CDD0       ExceptionLog.TmpOptionsFileName
 0001:0004CCC8       ExceptionLog.TmpScreenshot
 0001:0004CF14       ExceptionLog.TmpXMLLogCopy
 0001:0004CD68       ExceptionLog.TmpZIPFileName
 0004:0000660C       ExceptionLog.TopButton
 0001:00050C6C       ExceptionLog.TopMostTimerProc
 0001:000695E0       ExceptionLog.TSafeObject.GetSafeCall
 0001:0005BE7C       ExceptionLog.TSendDialogThread.Create
 0001:0005BEC4       ExceptionLog.TSendDialogThread.Execute
 0001:0005AE80       ExceptionLog.TSendObject.OnSent
 0001:0005DB88       ExceptionLog.TSendThread.Execute
 0003:00005B60       ExceptionLog.UnAttachableThreads
 0001:00050C4C       ExceptionLog.UnsetAutoCloseTimer
 0001:00050CD0       ExceptionLog.UnsetAutoTopMost
 0001:0005D280       ExceptionLog.UploadBugTrakerFiles
 0001:0005CE40       ExceptionLog.UploadFTPFiles
 0001:0005CC58       ExceptionLog.UploadHTTPFiles
 0004:000061EC       ExceptionLog.UserEmail
 0001:0004611C       ExceptionLog.UserFullName
 0001:000460E8       ExceptionLog.UserName
 0004:0000621C       ExceptionLog.UseTopMost
 0004:00006134       ExceptionLog.VCLHandleException
 0004:00006138       ExceptionLog.VCLShowException
 0001:0004B224       ExceptionLog.VersionWorkAround
 0001:0005BED0       ExceptionLog.WebCallBackProc
 0004:00006610       ExceptionLog.WindowState
 0001:0004A538       ExceptionLog.WriteHTMLToWeb
 0001:000590F8       ExceptionLog.WriteIDAT
 0001:0004ADFC       ExceptionLog.WriteTextToIntraWeb
 0001:000655D8       ExceptionLog.WriteToWeb
 0001:0002C5E4       EXMLBuilder..TXMLItem
 0001:0002C57C       EXMLBuilder..TXMLItems
 0003:00002A10       EXMLBuilder.EncodedChars
 0001:0002C6FC       EXMLBuilder.TXMLItem.AddField
 0001:0002C790       EXMLBuilder.TXMLItem.AddItem
 0001:0002C9A0       EXMLBuilder.TXMLItem.AppendXMLText
 0001:0002C7A0       EXMLBuilder.TXMLItem.Create
 0001:0002C848       EXMLBuilder.TXMLItem.Destroy
 0001:0002C878       EXMLBuilder.TXMLItem.EncodedString
 0001:0002CAD4       EXMLBuilder.TXMLItem.GetXMLText
 0001:0002C66C       EXMLBuilder.TXMLItems.AddItem
 0001:0002C698       EXMLBuilder.TXMLItems.Destroy
 0001:0002C6E8       EXMLBuilder.TXMLItems.GetItem
 0001:00040804       EZip..TZipWriter
 0001:000408C0       EZip.TZipWriter.AddFile
 0001:00040870       EZip.TZipWriter.Create
 0001:000408F0       EZip.TZipWriter.Destroy
 0003:00004A58       EZlib2...
 0001:0003E9C0       EZlib2...
 0003:0000492C       EZlib2...
 0004:000057D4       EZlib2...
 0003:000047BC       EZlib2...
 0003:0000476C       EZlib2...
 0003:00004718       EZlib2...
 0004:000037D4       EZlib2...
 0003:00004700       EZlib2...
 0001:0003AF58       EZlib2...
 0003:000046F8       EZlib2...
 0001:0003AE90       EZlib2...
 0003:000046EC       EZlib2...
 0001:0003AA84       EZlib2...
 0003:00004690       EZlib2...
 0001:00039570       EZlib2...
 0001:00038CFC       EZlib2..EZLibError
 0001:0003B904       EZlib2.@deflateInit2_
 0001:0003AB50       EZlib2.@fill_fopen_filefunc
 0001:0003B088       EZlib2.@get_crc_table
 0001:0003CFF8       EZlib2.@inflateInit2_
 0001:0003CA40       EZlib2.@inflate_fast
 0001:0003E550       EZlib2.@inflate_table
 0001:0003FBC0       EZlib2.@_tr_align
 0001:0003FE8C       EZlib2.@_tr_flush_block
 0001:0003E9C4       EZlib2.@_tr_init
 0001:0003FB04       EZlib2.@_tr_stored_block
 0001:00039384       EZlib2.AddZipFile
 0001:0003AB88       EZlib2.adler32
 0001:00039548       EZlib2.CloseZipFile
 0001:0003AF44       EZlib2.compressBound
 0001:0003B09C       EZlib2.crc32
 0001:000392EC       EZlib2.CreateZipFile
 0001:0003BED4       EZlib2.deflate
 0001:0003C198       EZlib2.deflateEnd
 0001:0003B8E8       EZlib2.deflateInit_
 0001:00039348       EZlib2.GetFileSize
 0001:000391E8       EZlib2.GetModifiedDate
 0004:000037D0       EZlib2.hLib
 0001:0003D2FC       EZlib2.inflate
 0001:0003E1B4       EZlib2.inflateEnd
 0001:00038D68       EZlib2.InflateInit
 0001:0003D0C4       EZlib2.inflateInit_
 0001:0003CF3C       EZlib2.inflateReset
 0001:00038D54       EZlib2.zcalloc
 0001:00038D60       EZlib2.zcfree
 0001:00038D80       EZlib2.ZCheck
 0001:00038DEC       EZlib2.ZDecompress
 0001:0003A8C4       EZlib2.zipClose
 0001:0003A8B8       EZlib2.zipCloseFileInZip
 0001:00039FC0       EZlib2.zipOpen
 0001:00039FCC       EZlib2.zipOpenNewFileInZip3
 0001:0003A5DC       EZlib2.zipWriteInFileInZip
 0001:000390BC       EZlib2._fclose
 0001:00038F70       EZlib2._fopen
 0001:0003904C       EZlib2._fread
 0001:00038F38       EZlib2._free
 0001:0003911C       EZlib2._fseek
 0001:00038FB8       EZlib2._ftell
 0001:00038FFC       EZlib2._fwrite
 0001:00038F28       EZlib2._malloc
 0001:00038F14       EZlib2._memcpy
 0001:00038F00       EZlib2._memset
 0001:00038F54       EZlib2._rand
 0001:00038F60       EZlib2._srand
 0001:00039188       EZlib2._strlen
 0001:00038F48       EZlib2._time
 0003:00004668       EZlib2._z_errmsg
 0003:000051C3       EZlib2.__dist_code
 0003:000053C3       EZlib2.__length_code
 0001:0006CD28       Portscan.ClearScreen
 0001:0006CF00       Portscan.Finalization
 0004:00006EF0       Portscan.host
 0001:0006CC90       Portscan.isNumeric
 0004:00006EFC       Portscan.l
 0004:00006F04       Portscan.m
 0004:00006F00       Portscan.n
 0002:000003D4       Portscan.Portscan
 0004:00006F08       Portscan.server
 0001:0006CDA8       Portscan.SetCursorTo
 0001:0006CDFC       Portscan.ShowTitle
 0004:00006EF4       Portscan.startport
 0004:00006EF8       Portscan.stopport
 0004:00006F18       Portscan.wsa
 0001:00043650       ShellAPI.ShellExecuteA
 0001:000060D4       SysInit.@GetTls
 0001:00006120       SysInit.@InitExe
 0001:0000607C       SysInit.AllocTlsBuffer
 0001:0000605C       SysInit.GetModuleHandle
 0001:00006088       SysInit.GetTlsSize
 0004:000027F8       SysInit.HInstance
 0001:00006114       SysInit.InitializeModule
 0001:00006090       SysInit.InitThreadTLS
 0001:00006064       SysInit.LocalAlloc
 0003:000007A0       SysInit.Module
 0004:000027F5       SysInit.ModuleIsCpp
 0004:000027F4       SysInit.ModuleIsLib
 0003:0000079C       SysInit.PtrToNil
 0004:000027FC       SysInit.tlsBuffer
 0001:0000606C       SysInit.TlsGetValue
 0003:00000798       SysInit.TlsIndex
 0005:00000180       SysInit.TlsLast
 0001:00006074       SysInit.TlsSetValue
 0004:000005B8       System..6
 0001:00000138       System..TInterfacedObject
 0001:00000044       System..TObject
 0001:00002298       System.@AbstractError
 0001:00004C58       System.@AddRefArray
 0001:00004C10       System.@AddRefRecord
 0001:000032E0       System.@AfterConstruction
 0001:000031CC       System.@AsClass
 0001:00003E54       System.@Assert
 0001:0000268C       System.@AStrCmp
 0001:00003330       System.@BeforeDestruction
 0001:00003218       System.@CallDynaInst
 0001:00005BB0       System.@CheckAutoResult
 0001:00003288       System.@ClassCreate
 0001:000032D8       System.@ClassDestroy
 0001:000025DC       System.@Close
 0001:00001E9C       System.@Copy
 0001:00004E4C       System.@CopyArray
 0001:00004D30       System.@CopyRecord
 0001:00004F64       System.@DispCallByIDError
 0001:00004F54       System.@Dispose
 0001:00003918       System.@DoneExcept
 0001:00005450       System.@DynArrayAddRef
 0001:00005428       System.@DynArrayAsg
 0001:000053EC       System.@DynArrayClear
 0001:0000522C       System.@DynArrayHigh
 0001:00005224       System.@DynArrayLength
 0001:000053E0       System.@DynArraySetLength
 0001:00003A00       System.@ExceptionHandler
 0001:000026FC       System.@FillChar
 0001:00004C04       System.@Finalize
 0001:00004B18       System.@FinalizeArray
 0001:00004ACC       System.@FinalizeRecord
 0001:000025D0       System.@Flush
 0001:00002F80       System.@FpuInit
 0001:00002EBC       System.@FpuMaskInit
 0001:00001CA4       System.@FreeMem
 0001:00001C88       System.@GetMem
 0001:00003E3C       System.@Halt
 0001:00003D60       System.@Halt0
 0001:00003444       System.@HandleAnyException
 0001:000037D8       System.@HandleAutoException
 0001:000036F8       System.@HandleFinally
 0001:000037A0       System.@HandleFinallyInternal
 0001:00003570       System.@HandleOnException
 0001:00004AC0       System.@Initialize
 0001:00004A2C       System.@InitializeArray
 0001:000049FC       System.@InitializeRecord
 0001:00003C1C       System.@InitImports
 0001:00003BF4       System.@InitResStringImports
 0001:00001F58       System.@Insert
 0001:00005B14       System.@IntfAddRef
 0001:00005AD0       System.@IntfClear
 0001:00005AE8       System.@IntfCopy
 0001:000031A8       System.@IsClass
 0001:00002E8C       System.@isNECWindows
 0001:00001EE0       System.@LGetDir
 0001:000043F8       System.@LStrAddRef
 0001:00003F4C       System.@LStrArrayClr
 0001:00003F7C       System.@LStrAsg
 0001:00004210       System.@LStrCat
 0001:00004254       System.@LStrCat3
 0001:000042C8       System.@LStrCatN
 0001:00003F28       System.@LStrClr
 0001:00004354       System.@LStrCmp
 0001:00004468       System.@LStrCopy
 0001:000044A8       System.@LStrDelete
 0001:00004198       System.@LStrFromArray
 0001:00004110       System.@LStrFromChar
 0001:00004120       System.@LStrFromPChar
 0001:00004018       System.@LStrFromPCharLen
 0001:00004150       System.@LStrFromPWChar
 0001:00004084       System.@LStrFromPWCharLen
 0001:0000418C       System.@LStrFromString
 0001:000041B0       System.@LStrFromWArray
 0001:000041CC       System.@LStrFromWStr
 0001:000044F0       System.@LStrInsert
 0001:00003FC0       System.@LStrLAsg
 0001:00004204       System.@LStrLen
 0001:00004690       System.@LStrSetLength
 0001:00004408       System.@LStrToPChar
 0001:000041E0       System.@LStrToString
 0001:00004F40       System.@New
 0001:00003FEC       System.@NewAnsiString
 0001:00004724       System.@NewWideString
 0001:00002BA0       System.@Pow10
 0001:00002664       System.@PStrCpy
 0001:00002634       System.@PStrNCat
 0001:00002670       System.@PStrNCpy
 0001:000038C4       System.@RaiseAgain
 0001:0000389C       System.@RaiseExcept
 0001:000027D4       System.@ReadChar
 0001:00002938       System.@ReadLn
 0001:000028CC       System.@ReadLString
 0001:000028C0       System.@ReadString
 0001:00001CBC       System.@ReallocMem
 0001:0000230C       System.@ResetText
 0001:00002318       System.@RewritText
 0001:00002268       System.@ROUND
 0001:00003E48       System.@RunError
 0001:0000223C       System.@SetLength
 0001:00003BB4       System.@StartExe
 0001:00000298       System.@strlen
 0001:00002274       System.@TRUNC
 0001:00003948       System.@TryFinallyExit
 0001:00004460       System.@UniqueStringA
 0001:0000500C       System.@ValInt64
 0001:00002968       System.@ValLong
 0001:00004C40       System.@VarAddRef
 0001:00004B00       System.@VarClr
 0001:00004D18       System.@VarCopy
 0001:000046F4       System.@Write0LString
 0001:00002A80       System.@WriteBytes
 0001:00002B50       System.@WriteLn
 0001:000046FC       System.@WriteLString
 0001:00002AD4       System.@WriteSpaces
 0001:000049DC       System.@WStrAddRef
 0001:00004764       System.@WStrArrayClr
 0001:00004788       System.@WStrAsg
 0001:0000474C       System.@WStrClr
 0001:000048C8       System.@WStrCmp
 0001:0000494C       System.@WStrCopy
 0001:0000489C       System.@WStrFromLStr
 0001:000047B0       System.@WStrFromPCharLen
 0001:00004860       System.@WStrFromPWChar
 0001:0000483C       System.@WStrFromPWCharLen
 0001:000048BC       System.@WStrLen
 0001:00004998       System.@WStrSetLength
 0001:000048AC       System.@WStrToPWChar
 0001:00001E6C       System.@_IOTest
 0001:00004F90       System.@_llmod
 0001:00004F6C       System.@_llmul
 0004:0000002C       System.AbstractErrorProc
 0001:00001DBC       System.AcquireExceptionObject
 0001:00005960       System.AddModuleUnloadProc
 0001:00005970       System.AddModuleUnloadProc
 0001:000006FC       System.AllocateLargeBlock
 0001:00001C70       System.AllocMem
 0004:000005B0       System.AllocMemSize
 0001:00000644       System.AllocNewSequentialFeedMediumPool
 0004:000005C0       System.AllocSize2SmallBlockTypeIndX4
 0001:00005F4C       System.AnsiToUtf8
 0001:00001258       System.AppendStringToBuffer
 0004:00000024       System.AssertErrorProc
 0001:00003EAC       System.BeginThread
 0001:000005D8       System.BinMediumSequentialFeedRemainder
 0001:00001A20       System.BuildBlockTypeLookupTable
 0001:0000113C       System.CardinalToStrBuf
 0001:00004048       System.CharFromWChar
 0001:000001F8       System.CharNext
 0001:000033C0       System.CheckJmp
 0001:0000145C       System.CheckSmallBlockPoolForLeaks
 0001:00000198       System.CloseHandle
 0004:00000040       System.CmdLine
 0004:0000003C       System.CmdShow
 0001:00005234       System.CopyArray
 0003:00000048       System.Copyright
 0001:000001A0       System.CreateFileA
 0001:00000200       System.CreateThread
 0003:00000028       System.DebugHook
 0003:00000024       System.Default8087CW
 0001:00001D0C       System.DefaultAllocMem
 0001:00001D30       System.DefaultRegisterAndUnregisterExpectedMemoryLeak
 0004:000005BC       System.DefaultSystemCodePage
 0003:00000034       System.DefaultTextLineBreakStyle
 0001:0000548C       System.DelayLoadResourceModule
 0001:00000344       System.DestroyWindow
 0003:00000788       System.dig
 0004:00000000       System.DispCallByIDProc
 0001:0000524C       System.DynArrayClear
 0001:00005254       System.DynArraySetLength
 0001:00003F0C       System.EndThread
 0003:00000760       System.errCaption
 0001:00001E60       System.Error
 0003:00000004       System.ErrorAddr
 0001:00001E14       System.ErrorAt
 0004:00000008       System.ErrorProc
 0004:000003E4       System.ErrOutput
 0001:00001D9C       System.ExceptAddr
 0004:0000000C       System.ExceptClsProc
 0004:0000001C       System.ExceptionClass
 0001:00001D7C       System.ExceptObject
 0004:00000010       System.ExceptObjProc
 0004:00000004       System.ExceptProc
 0003:00000000       System.ExitCode
 0001:00003CA4       System.ExitDll
 0004:00000044       System.ExitProc
 0001:00000210       System.ExitProcess
 0004:00000028       System.ExitProcessProc
 0001:00000208       System.ExitThread
 0004:000027BC       System.ExpectedMemoryLeaks
 0004:000027C0       System.ExpectedMemoryLeaksListLocked
 0003:0000000C       System.FileMode
 0001:00002360       System.FileNOPProc
 0001:00005FFC       System.Finalization
 0001:00005244       System.FinalizeArray
 0001:00001C1C       System.FinalizeMemoryManager
 0001:00003AE8       System.FinalizeUnits
 0001:0000550C       System.FindBS
 0001:00005484       System.FindClassHInstance
 0001:00000220       System.FindClose
 0001:00000228       System.FindFirstFile
 0001:0000545C       System.FindHInstance
 0001:000054D4       System.FindResourceHInstance
 0001:000025C4       System.Flush
 0001:00002B98       System.FPower10
 0001:00001B8C       System.FreeAllMemory
 0001:00000760       System.FreeLargeBlock
 0001:00000230       System.FreeLibrary
 0001:00005FF4       System.GetACP
 0001:00000308       System.GetCmdShow
 0001:00000238       System.GetCommandLine
 0001:00000240       System.GetCurrentDirectory
 0001:00000300       System.GetCurrentThreadId
 0001:000031E8       System.GetDynaMethod
 0001:000001B0       System.GetFileSize
 0001:000001A8       System.GetFileType
 0001:00001100       System.GetFirstAndLastSmallBlockInPool
 0001:000010C0       System.GetFirstMediumBlockInPool
 0001:00002E84       System.GetKeyboardType
 0001:00000248       System.GetLastError
 0001:00000250       System.GetLocaleInfo
 0001:00001D34       System.GetMemoryManager
 0001:00000258       System.GetModuleFileName
 0001:00000260       System.GetModuleHandle
 0001:00001328       System.GetObjectClass
 0001:000020E0       System.GetParamStr
 0001:00000268       System.GetProcAddress
 0001:00000270       System.GetStartupInfo
 0001:000001B8       System.GetStdHandle
 0001:00000278       System.GetThreadLocale
 0004:000027C8       System.InitContext
 0001:00001A64       System.InitializeMemoryManager
 0001:00003B4C       System.InitUnits
 0005:00000004       System.InOutRes
 0004:0000004C       System.Input
 0001:00000578       System.InsertMediumBlockIntoBin
 0001:000002F8       System.InterlockedDecrement
 0001:000002F0       System.InterlockedIncrement
 0001:000023A0       System.InternalClose
 0001:0000257C       System.InternalFlush
 0001:00001270       System.InternalIsValidClass
 0001:00004414       System.InternalUniqueString
 0001:000030A0       System.InvokeImplGetter
 0001:00001FC0       System.IOResult
 0004:00000048       System.IsConsole
 0004:00000038       System.IsLibrary
 0004:00000049       System.IsMultiThread
 0003:0000002C       System.JITEnable
 0004:000027AC       System.LargeBlocksCircularList
 0004:000027A8       System.LargeBlocksLocked
 0004:0000071C       System.LastSequentiallyFedMediumBlock
 0003:00000040       System.LibModuleList
 0001:00000280       System.LoadLibraryEx
 0001:000056F0       System.LoadResourceModule
 0001:00005F9C       System.LoadResString
 0001:00000288       System.LoadString
 0001:000003AC       System.LockCmpxchg
 0001:00001358       System.LockExpectedMemoryLeaksList
 0001:000006BC       System.LockLargeBlocks
 0001:00000290       System.lstrcpyn
 0004:00000030       System.MainInstance
 0004:00000034       System.MainThreadID
 0001:00003C40       System.MakeErrorMessage
 0001:00003960       System.MapToRunError
 0004:00000728       System.MediumBlockBinBitmaps
 0004:00000724       System.MediumBlockBinGroupBitmap
 0004:000007A8       System.MediumBlockBins
 0004:00000708       System.MediumBlockPoolsCircularList
 0004:00000718       System.MediumBlocksLocked
 0004:00000720       System.MediumSequentialFeedBytesLeft
 0003:0000072C       System.MemoryManager
 0001:00000218       System.MessageBox
 0004:00000706       System.MinimumBlockAlignment
 0004:000027C4       System.MMSharingWindow
 0003:00000044       System.ModuleUnloadList
 0001:00001FE0       System.Move
 0001:000003B4       System.Move12
 0001:000003C8       System.Move20
 0001:000003E8       System.Move28
 0001:00000414       System.Move36
 0001:00000434       System.Move44
 0001:00000458       System.Move52
 0001:00000484       System.Move60
 0001:000004B4       System.Move68
 0001:000004EC       System.MoveX16L4
 0001:0000051C       System.MoveX8L4
 0001:000002A0       System.MultiByteToWideChar
 0001:0000109C       System.NextMediumBlock
 0003:00000030       System.NoErrMsg
 0001:000033AC       System.NotifyAnyExcept
 0001:00003380       System.NotifyExcept
 0001:000033E0       System.NotifyExceptFinally
 0001:000059F4       System.NotifyModuleUnload
 0001:0000335C       System.NotifyNonDelphiException
 0001:00003398       System.NotifyOnExcept
 0001:00003340       System.NotifyReRaise
 0001:00003408       System.NotifyTerminate
 0001:00003424       System.NotifyUnhandled
 0001:000022B4       System.OpenText
 0004:00000218       System.Output
 0001:000021DC       System.ParamStr
 0001:0000454C       System.Pos
 0001:000001C0       System.RaiseException
 0004:00000014       System.RaiseExceptionProc
 0005:00000000       System.RaiseListPtr
 0001:00002240       System.Random
 0003:00000008       System.RandSeed
 0001:000001C8       System.ReadFile
 0001:00002840       System.ReadLine
 0001:000002A8       System.RegCloseKey
 0001:00005A50       System.RegisterModule
 0001:000002B0       System.RegOpenKeyEx
 0001:000002B8       System.RegQueryValueEx
 0003:00000744       System.reMap
 0001:00000538       System.RemoveMediumFreeBlock
 0001:00005990       System.RemoveModuleUnloadProc
 0001:00005968       System.RemoveModuleUnloadProc
 0004:000005B4       System.ReportMemoryLeaksOnShutdown
 0001:000001D0       System.RtlUnwind
 0004:00000018       System.RTLUnwindProc
 0003:00000768       System.runErrMsg
 0001:00001E08       System.RunErrorAt
 0004:00000020       System.SafeCallErrorProc
 0001:000015A8       System.ScanForMemoryLeaks
 0001:000002C0       System.SetCurrentDirectory
 0001:000001D8       System.SetEndOfFile
 0001:00003AA0       System.SetExceptionHandler
 0001:000001E0       System.SetFilePointer
 0001:00001E8C       System.SetInOutRes
 0001:00001D50       System.SetMemoryManager
 0001:00001DF0       System.SetRaiseList
 0001:0000033C       System.Sleep
 0003:0000004C       System.SmallBlockTypes
 0001:0000106C       System.SysAllocMem
 0001:000002D8       System.SysAllocStringLen
 0001:00000B04       System.SysFreeMem
 0001:000002E8       System.SysFreeString
 0001:0000079C       System.SysGetMem
 0001:00000CE4       System.SysReallocMem
 0001:000002E0       System.SysReAllocStringLen
 0001:000013C4       System.SysRegisterExpectedMemoryLeak
 0002:00000000       System.System
 0003:0000003C       System.SystemThreadEndProc
 0003:00000038       System.SystemThreadFuncProc
 0001:00001404       System.SysUnregisterExpectedMemoryLeak
 0004:0000004A       System.Test8086
 0001:000023B0       System.TextClose
 0001:00002324       System.TextIn
 0001:000023D0       System.TextOpen
 0001:00002364       System.TextOut
 0001:00003E74       System.ThreadWrapper
 0001:00005B20       System.TInterfacedObject.AfterConstruction
 0001:00005B2C       System.TInterfacedObject.BeforeDestruction
 0001:00005B3C       System.TInterfacedObject.NewInstance
 0001:00005B4C       System.TInterfacedObject.QueryInterface
 0001:00005B74       System.TInterfacedObject._AddRef
 0001:00005B88       System.TInterfacedObject._Release
 0001:00003258       System.TObject.AfterConstruction
 0001:0000325C       System.TObject.BeforeDestruction
 0001:00003244       System.TObject.ClassInfo
 0001:00002F94       System.TObject.ClassName
 0001:00002FA8       System.TObject.ClassParent
 0001:00002F8C       System.TObject.ClassType
 0001:00003080       System.TObject.CleanupInstance
 0001:00002FEC       System.TObject.Create
 0001:00003254       System.TObject.DefaultHandler
 0001:0000300C       System.TObject.Destroy
 0001:00003260       System.TObject.Dispatch
 0001:0000301C       System.TObject.Free
 0001:00002FD0       System.TObject.FreeInstance
 0001:000030D0       System.TObject.GetInterface
 0001:00003164       System.TObject.GetInterfaceEntry
 0001:00003230       System.TObject.InheritsFrom
 0001:00003028       System.TObject.InitInstance
 0001:00002FE4       System.TObject.InstanceSize
 0001:00002FB4       System.TObject.NewInstance
 0001:0000324C       System.TObject.SafeCallException
 0001:0000552C       System.ToLongPath
 0001:00002798       System.TryOpenForInput
 0001:00002A3C       System.TryOpenForOutput
 0001:000001E8       System.UnhandledExceptionFilter
 0001:00005BCC       System.UnicodeToUtf8
 0001:00004458       System.UniqueString
 0001:00005A60       System.UnregisterModule
 0001:00003AC0       System.UnsetExceptionHandler
 0001:0000225C       System.UpCase
 0001:00005E94       System.UTF8Decode
 0001:00005DD8       System.UTF8Encode
 0001:00005CA8       System.Utf8ToUnicode
 0003:00000014       System.VarAddRefProc
 0003:00000010       System.VarClearProc
 0003:00000018       System.VarCopyProc
 0003:0000001C       System.VarToLStrProc
 0003:00000020       System.VarToWStrProc
 0001:0000032C       System.VirtualAlloc
 0001:00000334       System.VirtualFree
 0001:000002D0       System.VirtualQuery
 0001:00004068       System.WCharFromChar
 0001:000002C8       System.WideCharToMultiByte
 0001:00003CD4       System.WriteErrorMessage
 0001:000001F0       System.WriteFile
 0001:0000471C       System.WStrError
 0001:0000473C       System.WStrSet
 0004:00002918       SysUtils..35
 0001:00006D0C       SysUtils..EAbort
 0001:00007580       SysUtils..EAbstractError
 0001:00007358       SysUtils..EAccessViolation
 0001:00007520       SysUtils..EAssertionFailed
 0001:0000746C       SysUtils..EControlC
 0001:000072FC       SysUtils..EConvertError
 0001:00006F80       SysUtils..EDivByZero
 0001:00006E70       SysUtils..EExternal
 0001:00006EC8       SysUtils..EExternalException
 0001:00006D60       SysUtils..EHeapException
 0001:00006E18       SysUtils..EInOutError
 0001:00006F28       SysUtils..EIntError
 0001:000075DC       SysUtils..EIntfCastError
 0001:00007030       SysUtils..EIntOverflow
 0001:000072A0       SysUtils..EInvalidCast
 0001:000070E4       SysUtils..EInvalidOp
 0001:00007244       SysUtils..EInvalidPointer
 0001:0000708C       SysUtils..EMathError
 0001:00007638       SysUtils..EOSError
 0001:00006DBC       SysUtils..EOutOfMemory
 0001:00007194       SysUtils..EOverflow
 0001:000073B8       SysUtils..EPrivilege
 0001:00006FD8       SysUtils..ERangeError
 0001:00007690       SysUtils..ESafecallException
 0001:00007410       SysUtils..EStackOverflow
 0001:000071EC       SysUtils..EUnderflow
 0001:000074C4       SysUtils..EVariantError
 0001:00006CA4       SysUtils..Exception
 0001:0000713C       SysUtils..EZeroDivide
 0001:00007820       SysUtils..TMultiReadExclusiveWriteSynchronizer
 0001:00007744       SysUtils..TThreadLocalCounter
 0001:0000BD10       SysUtils.Abort
 0001:0000C090       SysUtils.AbstractErrorHandler
 0003:00000838       SysUtils.AccessMode
 0001:00007B4C       SysUtils.AnsiCompareText
 0001:00007B14       SysUtils.AnsiLowerCase
 0001:0000C9A4       SysUtils.AnsiLowerCaseFileName
 0001:0000C8B8       SysUtils.AnsiPos
 0001:0000CA38       SysUtils.AnsiStrPos
 0001:0000CAD8       SysUtils.AnsiStrRScan
 0001:0000CB0C       SysUtils.AnsiStrScan
 0001:00009FA4       SysUtils.AppendChars
 0001:0000A388       SysUtils.AppendFormat
 0001:0000A004       SysUtils.AppendNumber
 0001:00009FE8       SysUtils.AppendString
 0001:0000C074       SysUtils.AssertErrorHandler
 0001:00008738       SysUtils.BackfillGetDiskFreeSpaceEx
 0001:0000C558       SysUtils.Beep
 0001:00007FC0       SysUtils.BoolToStr
 0001:0000C634       SysUtils.ByteToCharIndex
 0001:0000C610       SysUtils.ByteToCharLen
 0001:0000C5D4       SysUtils.ByteType
 0001:0000C560       SysUtils.ByteTypeTest
 0001:00008298       SysUtils.ChangeFileExt
 0004:00002924       SysUtils.CharHash
 0001:0000C848       SysUtils.CharLength
 0001:0000C72C       SysUtils.CharToByteIndex
 0001:0000C7B0       SysUtils.CharToByteLen
 0001:00007A24       SysUtils.CompareStr
 0001:00007A54       SysUtils.CompareText
 0001:00007EA0       SysUtils.CompareWith
 0001:0000BAB0       SysUtils.ConvertAddr
 0001:0000A0F4       SysUtils.ConvertEraString
 0001:000078B0       SysUtils.ConvertError
 0001:000078C8       SysUtils.ConvertErrorFmt
 0001:0000A270       SysUtils.ConvertYearString
 0001:0000C69C       SysUtils.CountChars
 0001:0000BFB8       SysUtils.CreateAssertException
 0001:0000C140       SysUtils.CreateAVObject
 0001:00008824       SysUtils.CreateDir
 0001:0000BEE8       SysUtils.CreateInOutError
 0003:00000830       SysUtils.cSimpleBoolStrs
 0004:00002810       SysUtils.CurrencyDecimals
 0004:0000280C       SysUtils.CurrencyFormat
 0004:00002808       SysUtils.CurrencyString
 0001:00009F90       SysUtils.CurrentYear
 0001:000098FC       SysUtils.CurrToStr
 0001:00007BE4       SysUtils.CvtInt
 0001:00007C50       SysUtils.CvtInt64
 0003:00000870       SysUtils.CWNear
 0001:00009EE0       SysUtils.Date
 0004:00002811       SysUtils.DateSeparator
 0001:0000AB40       SysUtils.DateTimeToString
 0001:00009A54       SysUtils.DateTimeToTimeStamp
 0001:00009EB8       SysUtils.DayOfWeek
 0003:0000086C       SysUtils.DCon10
 0004:0000280F       SysUtils.DecimalSeparator
 0001:00009E28       SysUtils.DecodeDate
 0001:00009CDC       SysUtils.DecodeDateFully
 0001:00009B48       SysUtils.DecodeTime
 0003:000008FC       SysUtils.DefLongDayNames
 0003:000008B0       SysUtils.DefLongMonthNames
 0003:000008E0       SysUtils.DefShortDayNames
 0003:00000880       SysUtils.DefShortMonthNames
 0001:00007894       SysUtils.DivMod
 0001:0000C468       SysUtils.DoneExceptions
 0001:0000BEBC       SysUtils.EHeapException.FreeInstance
 0003:000007B8       SysUtils.EmptyStr
 0003:000007BC       SysUtils.EmptyWideStr
 0001:00009CAC       SysUtils.EncodeDate
 0001:00009B08       SysUtils.EncodeTime
 0001:0000B71C       SysUtils.EnumEraNames
 0001:0000B758       SysUtils.EnumEraYearOffsets
 0004:000028D8       SysUtils.EraNames
 0001:0000AE50       SysUtils.EraToYear
 0004:000028F4       SysUtils.EraYearOffsets
 0001:0000BF68       SysUtils.ErrorHandler
 0003:00000918       SysUtils.ErrorMap
 0001:0000C3D4       SysUtils.ExceptHandler
 0001:0000BD30       SysUtils.Exception.Create
 0001:0000BD6C       SysUtils.Exception.CreateFmt
 0001:0000BDEC       SysUtils.Exception.CreateRes
 0001:0000BE28       SysUtils.Exception.CreateResFmt
 0001:0000BABC       SysUtils.ExceptionErrorMessage
 0003:00000950       SysUtils.ExceptMap
 0001:00008498       SysUtils.ExpandFileName
 0001:00008360       SysUtils.ExtractFileDrive
 0001:00008450       SysUtils.ExtractFileExt
 0001:00008418       SysUtils.ExtractFileName
 0001:0000832C       SysUtils.ExtractFilePath
 0001:000084D4       SysUtils.ExtractFilePathNoDrive
 0001:00008574       SysUtils.ExtractRelativePath
 0004:00002914       SysUtils.FalseBoolStrs
 0003:00000860       SysUtils.FCon1E18
 0001:000087AC       SysUtils.FileDateToDateTime
 0001:0000810C       SysUtils.FileExists
 0001:0000800C       SysUtils.FileOpen
 0001:00008064       SysUtils.FileRead
 0001:000080BC       SysUtils.FileSeek
 0001:00008090       SysUtils.FileWrite
 0001:0000DA68       SysUtils.Finalization
 0001:00008228       SysUtils.FindClose
 0001:000081B4       SysUtils.FindFirst
 0001:00008130       SysUtils.FindMatchingFile
 0001:00008204       SysUtils.FindNext
 0004:00003224       SysUtils.FLanguages
 0001:0000958C       SysUtils.FloatToDecimal
 0001:000098CC       SysUtils.FloatToStr
 0001:00008FC4       SysUtils.FloatToText
 0001:00009298       SysUtils.FloatToTextFmt
 0003:00000874       SysUtils.FMSecsPerDay
 0001:00008EA4       SysUtils.FmtStr
 0001:00008E90       SysUtils.Format
 0003:0000087C       SysUtils.Format
 0001:00008AD8       SysUtils.FormatBuf
 0001:00008ACC       SysUtils.FormatClearStr
 0001:00008A50       SysUtils.FormatError
 0003:00000858       SysUtils.FormatErrorStrs
 0001:0000992C       SysUtils.FormatFloat
 0001:00008AA8       SysUtils.FormatVarToStr
 0001:0000D788       SysUtils.FreeAndNil
 0001:0000D2CC       SysUtils.FreeTerminateProcs
 0001:0000A050       SysUtils.GetCount
 0001:00008818       SysUtils.GetCurrentDir
 0001:0000A07C       SysUtils.GetDate
 0001:0000AD68       SysUtils.GetDateOrder
 0003:0000082C       SysUtils.GetDiskFreeSpaceEx
 0001:0000B7D0       SysUtils.GetEraNamesAndYearOffsets
 0001:0000ADFC       SysUtils.GetEraYearOffset
 0001:0000C128       SysUtils.GetExceptionClass
 0001:0000C30C       SysUtils.GetExceptionObject
 0001:0000CC6C       SysUtils.GetFormatSettings
 0001:0000B590       SysUtils.GetLocaleChar
 0001:0000B544       SysUtils.GetLocaleStr
 0001:0000B5F8       SysUtils.GetMonthDayNames
 0001:0000A0B4       SysUtils.GetTime
 0003:00000828       SysUtils.HexDisplayPrefix
 0003:00000878       SysUtils.IMSecsPerDay
 0001:0000D2F0       SysUtils.InitDriveSpacePtr
 0001:0000C3E4       SysUtils.InitExceptions
 0001:0000CB4C       SysUtils.InitLeadBytes
 0001:0000C4E8       SysUtils.InitPlatformId
 0001:0000CBA8       SysUtils.InitSysLocale
 0001:0000D358       SysUtils.InterlockedDecrement
 0001:0000D364       SysUtils.InterlockedExchange
 0001:0000D36C       SysUtils.InterlockedExchangeAdd
 0001:0000D34C       SysUtils.InterlockedIncrement
 0001:00007D6C       SysUtils.IntToHex
 0001:00007D44       SysUtils.IntToHex
 0001:00007D1C       SysUtils.IntToStr
 0001:00007C30       SysUtils.IntToStr
 0004:00002920       SysUtils.InvalidPointer
 0001:00009BA4       SysUtils.IsLeapYear
 0001:00008244       SysUtils.LastDelimiter
 0003:00000808       SysUtils.LeadBytes
 0004:000028D6       SysUtils.ListSeparator
 0001:0000B5BC       SysUtils.LocalGetLocaleStr
 0004:00002818       SysUtils.LongDateFormat
 0004:000028AC       SysUtils.LongDayNames
 0004:00002860       SysUtils.LongMonthNames
 0004:0000282C       SysUtils.LongTimeFormat
 0001:00007988       SysUtils.LowerCase
 0001:0000C0A8       SysUtils.MapException
 0001:0000D038       SysUtils.ModuleUnloaded
 0003:000007D8       SysUtils.MonthDays
 0004:0000280D       SysUtils.NegCurrFormat
 0001:0000854C       SysUtils.Next
 0001:0000C880       SysUtils.NextCharIndex
 0001:00009F40       SysUtils.Now
 0004:0000291C       SysUtils.OutOfMemory
 0001:00008F80       SysUtils.PutExponent
 0001:0000C064       SysUtils.RaiseAssertException
 0001:0000D224       SysUtils.RaiseLastOSError
 0001:0000D218       SysUtils.RaiseLastOSError
 0001:0000BD0C       SysUtils.ReturnAddr
 0001:0000C8F0       SysUtils.SameFileName
 0001:00007AF0       SysUtils.SameText
 0001:0000AB9C       SysUtils.ScanBlanks
 0001:0000AD2C       SysUtils.ScanChar
 0001:0000AEAC       SysUtils.ScanDate
 0001:0000ABC0       SysUtils.ScanNumber
 0001:0000AC54       SysUtils.ScanString
 0001:0000B1F8       SysUtils.ScanTime
 0001:0000ADB4       SysUtils.ScanToNumber
 0003:00000844       SysUtils.ShareMode
 0004:00002814       SysUtils.ShortDateFormat
 0004:00002890       SysUtils.ShortDayNames
 0004:00002830       SysUtils.ShortMonthNames
 0004:00002828       SysUtils.ShortTimeFormat
 0001:0000BC44       SysUtils.ShowException
 0001:0000D210       SysUtils.Sleep
 0001:00008A10       SysUtils.StrAlloc
 0001:0000C5F8       SysUtils.StrByteType
 0001:0000C820       SysUtils.StrCharLength
 0001:00008868       SysUtils.StrCopy
 0001:000088FC       SysUtils.StrIComp
 0001:0000893C       SysUtils.StrLComp
 0001:000088A0       SysUtils.StrLCopy
 0001:00008840       SysUtils.StrLen
 0001:00008E50       SysUtils.StrLFmt
 0001:00008964       SysUtils.StrLIComp
 0001:00008858       SysUtils.StrMove
 0001:00008A24       SysUtils.StrNew
 0001:0000C840       SysUtils.StrNextChar
 0001:000088D4       SysUtils.StrPCopy
 0001:000089BC       SysUtils.StrPos
 0001:000089A8       SysUtils.StrScan
 0001:0000B428       SysUtils.StrToDateTime
 0001:00009988       SysUtils.StrToFloat
 0001:00007D9C       SysUtils.StrToInt
 0001:00007DD8       SysUtils.StrToIntDef
 0001:0000B4F8       SysUtils.SysErrorMessage
 0004:000028C8       SysUtils.SysLocale
 0001:00009E48       SysUtils.SystemTimeToDateTime
 0002:000000AC       SysUtils.SysUtils
 0003:00000A00       SysUtils.TerminateProcList
 0001:000097B8       SysUtils.TextToFloat
 0004:0000280E       SysUtils.ThousandSeparator
 0001:00009F0C       SysUtils.Time
 0004:00002820       SysUtils.TimeAMString
 0004:00002824       SysUtils.TimePMString
 0004:0000281C       SysUtils.TimeSeparator
 0001:0000D6B0       SysUtils.TMultiReadExclusiveWriteSynchronizer.BeginRead
 0001:0000D5B4       SysUtils.TMultiReadExclusiveWriteSynchronizer.BeginWrite
 0001:0000D570       SysUtils.TMultiReadExclusiveWriteSynchronizer.BlockReaders
 0001:0000D4B4       SysUtils.TMultiReadExclusiveWriteSynchronizer.Create
 0001:0000D528       SysUtils.TMultiReadExclusiveWriteSynchronizer.Destroy
 0001:0000D720       SysUtils.TMultiReadExclusiveWriteSynchronizer.EndRead
 0001:0000D660       SysUtils.TMultiReadExclusiveWriteSynchronizer.EndWrite
 0001:0000D588       SysUtils.TMultiReadExclusiveWriteSynchronizer.UnblockOneWriter
 0001:0000D57C       SysUtils.TMultiReadExclusiveWriteSynchronizer.UnblockReaders
 0001:0000D594       SysUtils.TMultiReadExclusiveWriteSynchronizer.WaitForReadSignal
 0001:0000D5A4       SysUtils.TMultiReadExclusiveWriteSynchronizer.WaitForWriteSignal
 0001:0000B880       SysUtils.TranslateDateFormat
 0001:00007B90       SysUtils.Trim
 0004:00002910       SysUtils.TrueBoolStrs
 0001:00009BE0       SysUtils.TryEncodeDate
 0001:00009A98       SysUtils.TryEncodeTime
 0001:00007F24       SysUtils.TryStrToBool
 0001:00009A38       SysUtils.TryStrToCurr
 0001:0000B45C       SysUtils.TryStrToDateTime
 0001:00009A0C       SysUtils.TryStrToFloat
 0001:000099C4       SysUtils.TryStrToFloat
 0001:000099E0       SysUtils.TryStrToFloat
 0001:00007DF0       SysUtils.TryStrToInt
 0001:0000B3F0       SysUtils.TryStrToTime
 0001:0000D460       SysUtils.TThreadLocalCounter.Delete
 0001:0000D374       SysUtils.TThreadLocalCounter.Destroy
 0001:0000D3CC       SysUtils.TThreadLocalCounter.HashIndex
 0001:0000D3E8       SysUtils.TThreadLocalCounter.Open
 0001:0000D470       SysUtils.TThreadLocalCounter.Recycle
 0003:000007D4       SysUtils.TwoDigitYearCenturyWindow
 0004:00002E24       SysUtils.UnitHashBuckets
 0001:000078EC       SysUtils.UpperCase
 0004:00002A24       SysUtils.ValidatedUnitHashBuckets
 0001:00007E10       SysUtils.VerifyBoolStrArray
 0003:000007CC       SysUtils.Win32BuildNumber
 0001:0000D2BC       SysUtils.Win32Check
 0003:000007D0       SysUtils.Win32CSDVersion
 0003:000007C4       SysUtils.Win32MajorVersion
 0003:000007C8       SysUtils.Win32MinorVersion
 0003:000007C0       SysUtils.Win32Platform
 0001:0000646C       Types.Rect
 0004:000032C4       TypInfo..6
 0001:00010E48       TypInfo.AssignLongStr
 0003:00000A84       TypInfo.BooleanIdents
 0003:00000A8C       TypInfo.DotSep
 0001:00011094       TypInfo.Finalization
 0001:00010C20       TypInfo.GetEnumName
 0001:00010E5C       TypInfo.GetLongStrProp
 0001:0001101C       TypInfo.GetMethodProp
 0001:00010D68       TypInfo.GetOrdProp
 0001:00010CF8       TypInfo.GetPropInfo
 0001:00010DDC       TypInfo.GetShortStrProp
 0001:00010E20       TypInfo.GetShortStrPropAsLongStr
 0001:00010EF4       TypInfo.GetStrProp
 0001:00010C14       TypInfo.GetTypeData
 0001:00010F34       TypInfo.GetWideStrProp
 0001:00010E9C       TypInfo.GetWideStrPropAsLongStr
 0001:0001105C       TypInfo.SetMethodProp
 0002:000001F0       TypInfo.TypInfo
 0004:000032A4       Variants..81
 0001:0000E7BC       Variants..EVariantArrayCreateError
 0001:0000E754       Variants..EVariantArrayLockedError
 0001:0000E6F0       Variants..EVariantBadIndexError
 0001:0000E68C       Variants..EVariantBadVarTypeError
 0001:0000E954       Variants..EVariantDispatchError
 0001:0000E628       Variants..EVariantInvalidArgError
 0001:0000E4FC       Variants..EVariantInvalidOpError
 0001:0000E824       Variants..EVariantNotImplError
 0001:0000E888       Variants..EVariantOutOfMemoryError
 0001:0000E5C4       Variants..EVariantOverflowError
 0001:0000E560       Variants..EVariantTypeCastError
 0001:0000E8F0       Variants..EVariantUnexpectedError
 0001:0000E430       Variants..TCustomVariantType
 0001:0000EE80       Variants.@DispInvokeError
 0001:00010454       Variants.@VarAddRef
 0001:0000F158       Variants.@VarClear
 0001:0000F16C       Variants.@VarClr
 0001:0000F480       Variants.@VarCopy
 0001:00010428       Variants.@VarFromLStr
 0001:0000F7B4       Variants.@VarToLStr
 0001:0000FED4       Variants.@VarToWStr
 0003:00000A14       Variants.BooleanToStringRule
 0001:0000F534       Variants.BoolToWStrViaOS
 0004:0000329C       Variants.ChangeAnyProc
 0003:00000A18       Variants.CInvalidCustomVariantType
 0004:00003298       Variants.ClearAnyProc
 0001:00010790       Variants.ClearVariantTypeList
 0003:00000A70       Variants.CRelationshipToBoolean
 0003:00000A1C       Variants.CText
 0001:0000F4C4       Variants.CurrToWStrViaOS
 0001:0000F4FC       Variants.DateToWStrViaOS
 0004:00003284       Variants.EmptyParam
 0001:00010AF0       Variants.Finalization
 0001:00010A34       Variants.FindCustomVariantType
 0001:0000EED4       Variants.InBounds
 0001:0000F174       Variants.InBounds
 0001:0000EF04       Variants.Increment
 0001:0000F1A4       Variants.Increment
 0004:000032A8       Variants.LVarTypes
 0004:000032AC       Variants.LVarTypeSync
 0003:00000A10       Variants.NullAsStringValue
 0003:00000A0C       Variants.NullStrictConvert
 0004:000032A0       Variants.RefAnyProc
 0001:00010760       Variants.SetClearVarToEmptyParam
 0001:00010748       Variants.SetVarAsError
 0001:000107FC       Variants.TCustomVariantType.BinaryOp
 0001:00010808       Variants.TCustomVariantType.Cast
 0001:00010840       Variants.TCustomVariantType.CastTo
 0001:000108CC       Variants.TCustomVariantType.CastToOle
 0001:00010888       Variants.TCustomVariantType.Compare
 0001:00010894       Variants.TCustomVariantType.CompareOp
 0001:00010908       Variants.TCustomVariantType.Destroy
 0001:000109E8       Variants.TCustomVariantType.DispInvoke
 0001:00010994       Variants.TCustomVariantType.IsClear
 0001:00010998       Variants.TCustomVariantType.LeftPromotion
 0001:000109AC       Variants.TCustomVariantType.OlePromotion
 0001:00010A0C       Variants.TCustomVariantType.QueryInterface
 0001:000109B4       Variants.TCustomVariantType.RaiseCastError
 0001:000109C4       Variants.TCustomVariantType.RaiseDispError
 0001:000109BC       Variants.TCustomVariantType.RaiseInvalidOp
 0001:000109CC       Variants.TCustomVariantType.RightPromotion
 0001:000109E0       Variants.TCustomVariantType.UnaryOp
 0001:000109F4       Variants.TCustomVariantType._AddRef
 0001:00010A00       Variants.TCustomVariantType._Release
 0001:0000EBEC       Variants.TranslateResult
 0001:0000EF60       Variants.VarArrayClear
 0001:0000F200       Variants.VarArrayCopyForEach
 0001:0000EB98       Variants.VarArrayCreateError
 0001:0000E9B8       Variants.VarCastError
 0001:0000EA0C       Variants.VarCastError
 0001:0000F0DC       Variants.VarClearDeep
 0001:0000F3CC       Variants.VarCopyCopyProc
 0001:0000F3D4       Variants.VarCopyDeep
 0004:00003294       Variants.VarDispProc
 0002:00000144       Variants.Variants
 0001:0000EAA8       Variants.VarInvalidOp
 0001:0000EAFC       Variants.VarOverflowError
 0001:0000EE4C       Variants.VarResultCheck
 0001:0000EE40       Variants.VarResultCheck
 0001:0000F6C8       Variants.VarToLStrAny
 0001:0000F72C       Variants.VarToLStrCustom
 0001:0000F5FC       Variants.VarToLStrViaOS
 0001:0000FDA8       Variants.VarToWStrAny
 0001:0000FE0C       Variants.VarToWStrCustom
 0001:0000FCF0       Variants.VarToWStrViaOS
 0001:000105D8       Variants.VarTypeAsText
 0004:00003280       VarUtils..5
 0001:0000DE80       VarUtils.BackupVarBoolFromStr
 0001:0000DFE4       VarUtils.BackupVarBStrFromBool
 0001:0000DF00       VarUtils.BackupVarBStrFromCy
 0001:0000DF70       VarUtils.BackupVarBStrFromDate
 0001:0000DE14       VarUtils.BackupVarCyFromStr
 0001:0000DDA8       VarUtils.BackupVarDateFromStr
 0001:0000DC64       VarUtils.BackupVarI4FromStr
 0001:0000DC10       VarUtils.BackupVariantChangeTypeEx
 0001:0000DCD0       VarUtils.BackupVarR4FromStr
 0001:0000DD3C       VarUtils.BackupVarR8FromStr
 0001:0000DC4C       VarUtils.BiUnimplemented
 0001:0000DC58       VarUtils.CmpUnimplemented
 0003:00000A04       VarUtils.CResult
 0001:0000E3B0       VarUtils.Finalization
 0001:0000E078       VarUtils.FindProc
 0001:0000E0A4       VarUtils.InitializeVarUtils
 0001:0000E058       VarUtils.SafeArrayCreate
 0001:0000E060       VarUtils.SafeArrayGetLBound
 0001:0000E068       VarUtils.SafeArrayGetUBound
 0001:0000E070       VarUtils.SafeArrayPtrOfIndex
 0001:0000DC40       VarUtils.UniUnimplemented
 0004:00003234       VarUtils.VarAdd
 0004:0000324C       VarUtils.VarAnd
 0004:00003270       VarUtils.VarBoolFromStr
 0004:0000327C       VarUtils.VarBstrFromBool
 0004:00003274       VarUtils.VarBstrFromCy
 0004:00003278       VarUtils.VarBstrFromDate
 0004:00003258       VarUtils.VarCmp
 0004:0000326C       VarUtils.VarCyFromStr
 0004:00003268       VarUtils.VarDateFromStr
 0004:00003240       VarUtils.VarDiv
 0004:0000325C       VarUtils.VarI4FromStr
 0001:0000DC08       VarUtils.VariantChangeType
 0004:00003228       VarUtils.VariantChangeTypeEx
 0001:0000DBF8       VarUtils.VariantClear
 0001:0000DC00       VarUtils.VariantCopy
 0001:0000DBF0       VarUtils.VariantInit
 0004:00003244       VarUtils.VarIDiv
 0004:00003248       VarUtils.VarMod
 0004:0000323C       VarUtils.VarMul
 0004:0000322C       VarUtils.VarNeg
 0004:00003230       VarUtils.VarNot
 0004:00003250       VarUtils.VarOr
 0004:00003260       VarUtils.VarR4FromStr
 0004:00003264       VarUtils.VarR8FromStr
 0004:00003238       VarUtils.VarSub
 0002:00000134       VarUtils.VarUtils
 0004:00003254       VarUtils.VarXor
 0004:00002800       Windows..3
 0001:00006998       Windows.BeginPaint
 0001:00006890       Windows.BitBlt
 0001:000069A0       Windows.CharLowerBuff
 0001:000069A8       Windows.CharNext
 0001:000069B0       Windows.CharToOemA
 0001:000069B8       Windows.CloseClipboard
 0001:000064D0       Windows.CloseHandle
 0001:00006898       Windows.CombineRgn
 0001:000064D8       Windows.CompareString
 0001:00006C10       Windows.CopyMemory
 0001:000069C0       Windows.CopyRect
 0001:000068A0       Windows.CreateBitmap
 0001:000068A8       Windows.CreateCompatibleBitmap
 0001:000068B0       Windows.CreateCompatibleDC
 0001:00006C18       Windows.CreateDialogA
 0001:000069C8       Windows.CreateDialogParamA
 0001:000068B8       Windows.CreateDIBSection
 0001:000064E0       Windows.CreateDirectory
 0001:000064E8       Windows.CreateEvent
 0001:000064F0       Windows.CreateFile
 0001:000064F8       Windows.CreateFileA
 0001:00006500       Windows.CreateFileMapping
 0001:000068C0       Windows.CreateFontA
 0001:000068C8       Windows.CreateFontIndirect
 0001:000068D0       Windows.CreateFontIndirectA
 0001:000068D8       Windows.CreatePalette
 0001:00006508       Windows.CreateProcessA
 0001:000068E0       Windows.CreateRectRgn
 0001:000068E8       Windows.CreateRectRgnIndirect
 0001:000068F0       Windows.CreateSolidBrush
 0001:000069D0       Windows.DefWindowProcA
 0001:00006510       Windows.DeleteCriticalSection
 0001:000068F8       Windows.DeleteDC
 0001:00006518       Windows.DeleteFile
 0001:00006520       Windows.DeleteFileA
 0001:00006900       Windows.DeleteObject
 0001:000069D8       Windows.DestroyWindow
 0001:000069E0       Windows.DialogBoxParamA
 0001:000069E8       Windows.DispatchMessage
 0001:000069F0       Windows.DrawIconEx
 0001:000069F8       Windows.DrawTextA
 0001:00006528       Windows.DuplicateHandle
 0001:00006A00       Windows.EmptyClipboard
 0001:00006A08       Windows.EnableWindow
 0001:00006A10       Windows.EndDialog
 0001:00006A18       Windows.EndPaint
 0001:00006530       Windows.EnterCriticalSection
 0001:00006538       Windows.EnumCalendarInfoA
 0001:00006540       Windows.EnumSystemLocalesA
 0001:00006A20       Windows.EnumWindows
 0001:00006548       Windows.ExitThread
 0001:00006550       Windows.FileTimeToDosDateTime
 0001:00006558       Windows.FileTimeToLocalFileTime
 0001:00006560       Windows.FillConsoleOutputAttribute
 0001:00006568       Windows.FillConsoleOutputCharacter
 0001:00006A28       Windows.FillRect
 0001:00006C30       Windows.Finalization
 0001:00006570       Windows.FindClose
 0001:00006578       Windows.FindFirstFile
 0001:00006580       Windows.FindFirstFileA
 0001:00006588       Windows.FindNextFile
 0001:00006590       Windows.FindResourceA
 0001:00006598       Windows.FlushInstructionCache
 0001:000065A0       Windows.FormatMessage
 0001:00006A30       Windows.FrameRect
 0001:000065A8       Windows.FreeLibrary
 0001:000065C8       Windows.GetACP
 0001:00006A38       Windows.GetClassInfo
 0001:00006A40       Windows.GetClassNameA
 0001:000065D8       Windows.GetCommandLine
 0001:000065E0       Windows.GetComputerNameA
 0001:000065E8       Windows.GetConsoleScreenBufferInfo
 0001:000065D0       Windows.GetCPInfo
 0001:00006908       Windows.GetCurrentObject
 0001:000065F0       Windows.GetCurrentProcess
 0001:000065F8       Windows.GetCurrentProcessId
 0001:00006600       Windows.GetCurrentThread
 0001:00006608       Windows.GetCurrentThreadId
 0001:00006A48       Windows.GetCursor
 0001:00006A50       Windows.GetCursorPos
 0001:00006610       Windows.GetDateFormat
 0001:00006A58       Windows.GetDC
 0001:00006A60       Windows.GetDesktopWindow
 0001:00006918       Windows.GetDeviceCaps
 0001:00006910       Windows.GetDIBits
 0001:00006618       Windows.GetDiskFreeSpaceA
 0001:00006A68       Windows.GetDlgItem
 0001:00006620       Windows.GetEnvironmentVariableA
 0001:00006628       Windows.GetExitCodeProcess
 0001:00006630       Windows.GetExitCodeThread
 0001:00006638       Windows.GetFileAttributes
 0001:00006640       Windows.GetFileAttributesA
 0001:00006878       Windows.GetFileVersionInfoA
 0001:00006880       Windows.GetFileVersionInfoSizeA
 0001:00006A70       Windows.GetFocus
 0001:00006A78       Windows.GetForegroundWindow
 0001:00006648       Windows.GetFullPathName
 0001:00006650       Windows.GetHandleInformation
 0001:00006A80       Windows.GetIconInfo
 0001:00006A88       Windows.GetKeyboardState
 0001:00006658       Windows.GetLastError
 0001:00006668       Windows.GetLocaleInfo
 0001:00006670       Windows.GetLocaleInfoA
 0001:00006678       Windows.GetLocaleInfoW
 0001:00006660       Windows.GetLocalTime
 0001:00006920       Windows.GetMapMode
 0001:00006680       Windows.GetModuleFileName
 0001:00006688       Windows.GetModuleFileNameA
 0001:00006690       Windows.GetModuleHandle
 0001:00006698       Windows.GetModuleHandleA
 0001:00006928       Windows.GetObject
 0001:00006930       Windows.GetPixel
 0001:000066A0       Windows.GetPriorityClass
 0001:000066A8       Windows.GetPrivateProfileStringA
 0001:000066B0       Windows.GetProcAddress
 0001:000066B8       Windows.GetProfileStringA
 0001:000066C0       Windows.GetStartupInfoA
 0001:000066C8       Windows.GetStdHandle
 0001:00006938       Windows.GetStockObject
 0001:00006A90       Windows.GetSysColor
 0001:000066D0       Windows.GetSystemDefaultLangID
 0001:00006A98       Windows.GetSystemMetrics
 0001:00006940       Windows.GetSystemPaletteEntries
 0001:000066D8       Windows.GetSystemTime
 0001:000066E0       Windows.GetTempPathA
 0001:00006948       Windows.GetTextExtentPoint32
 0001:00006950       Windows.GetTextExtentPoint32A
 0001:000066E8       Windows.GetThreadContext
 0001:000066F0       Windows.GetThreadLocale
 0001:000066F8       Windows.GetThreadPriority
 0001:00006700       Windows.GetTickCount
 0001:00006488       Windows.GetTokenInformation
 0001:00006490       Windows.GetUserNameA
 0001:00006708       Windows.GetVersionEx
 0001:00006AA0       Windows.GetWindowDC
 0001:00006AA8       Windows.GetWindowLong
 0001:00006AB0       Windows.GetWindowPlacement
 0001:00006AB8       Windows.GetWindowRect
 0001:00006710       Windows.GetWindowsDirectoryA
 0001:00006AC0       Windows.GetWindowTextA
 0001:00006AC8       Windows.GetWindowThreadProcessId
 0001:00006718       Windows.GlobalAlloc
 0001:00006720       Windows.GlobalFree
 0001:00006728       Windows.GlobalLock
 0001:00006730       Windows.GlobalMemoryStatus
 0001:00006738       Windows.GlobalUnlock
 0004:00002804       Windows.HtmlHelpModule
 0001:00006740       Windows.InitializeCriticalSection
 0001:000065B0       Windows.InterlockedDecrement
 0001:000065B8       Windows.InterlockedExchange
 0001:000065C0       Windows.InterlockedIncrement
 0001:00006AD0       Windows.InvalidateRect
 0001:00006AD8       Windows.InvalidateRgn
 0001:00006748       Windows.IsBadReadPtr
 0001:00006AE0       Windows.IsIconic
 0001:00006AE8       Windows.IsWindowUnicode
 0001:00006AF0       Windows.IsWindowVisible
 0001:00006AF8       Windows.KillTimer
 0001:00006750       Windows.LeaveCriticalSection
 0001:00006B00       Windows.LoadBitmap
 0001:00006B08       Windows.LoadBitmapA
 0001:00006B10       Windows.LoadCursorA
 0001:00006758       Windows.LoadLibrary
 0001:00006760       Windows.LoadLibraryA
 0001:00006768       Windows.LoadLibraryExA
 0001:00006770       Windows.LoadResource
 0001:00006B18       Windows.LoadString
 0001:00006778       Windows.LockResource
 0001:00006498       Windows.LookupPrivilegeName
 0001:000064A0       Windows.LookupPrivilegeNameA
 0001:00006780       Windows.MapViewOfFile
 0001:00006B20       Windows.MessageBeep
 0001:00006B28       Windows.MessageBox
 0001:00006B30       Windows.MessageBoxA
 0001:00006788       Windows.MoveFileA
 0001:00006B38       Windows.MoveWindow
 0001:00006B40       Windows.MsgWaitForMultipleObjects
 0001:00006790       Windows.MulDiv
 0001:00006B48       Windows.OffsetRect
 0001:00006B50       Windows.OpenClipboard
 0001:00006798       Windows.OpenProcess
 0001:000064A8       Windows.OpenProcessToken
 0001:000067A0       Windows.OutputDebugStringA
 0001:00006B58       Windows.PeekMessage
 0001:00006B60       Windows.PostMessage
 0001:00006B68       Windows.PtInRect
 0001:000067A8       Windows.ReadFile
 0001:000064B0       Windows.RegCloseKey
 0001:000064B8       Windows.RegEnumKeyExA
 0001:00006B70       Windows.RegisterClass
 0001:000064C0       Windows.RegOpenKeyExA
 0001:000064C8       Windows.RegQueryValueExA
 0001:00006B78       Windows.ReleaseDC
 0001:000067B0       Windows.ResetEvent
 0001:000067B8       Windows.ResumeThread
 0001:00006B80       Windows.ScreenToClient
 0001:00006958       Windows.SelectObject
 0001:00006960       Windows.SelectPalette
 0001:00006B88       Windows.SendMessage
 0001:00006B90       Windows.SendMessageA
 0001:00006B98       Windows.SendMessageTimeout
 0001:00006968       Windows.SetBkColor
 0001:00006970       Windows.SetBkMode
 0001:00006BA0       Windows.SetClipboardData
 0001:000067C0       Windows.SetConsoleCursorPosition
 0001:00006BA8       Windows.SetCursor
 0001:00006978       Windows.SetDIBColorTable
 0001:000067C8       Windows.SetEndOfFile
 0001:000067D0       Windows.SetEnvironmentVariable
 0001:000067D8       Windows.SetEnvironmentVariableA
 0001:000067E0       Windows.SetEvent
 0001:000067E8       Windows.SetFileAttributes
 0001:000067F0       Windows.SetFilePointer
 0001:00006BB0       Windows.SetFocus
 0001:00006BB8       Windows.SetForegroundWindow
 0001:000067F8       Windows.SetLastError
 0001:00006980       Windows.SetMapMode
 0001:00006988       Windows.SetTextColor
 0001:00006800       Windows.SetThreadPriority
 0001:00006BC0       Windows.SetTimer
 0001:00006808       Windows.SetUnhandledExceptionFilter
 0001:00006BC8       Windows.SetWindowLong
 0001:00006BD0       Windows.SetWindowPlacement
 0001:00006BD8       Windows.SetWindowPos
 0001:00006BE0       Windows.ShowWindow
 0001:00006810       Windows.SizeofResource
 0001:00006818       Windows.Sleep
 0001:00006820       Windows.SuspendThread
 0001:00006BE8       Windows.SystemParametersInfo
 0001:00006BF0       Windows.SystemParametersInfoA
 0001:00006828       Windows.TerminateProcess
 0001:00006830       Windows.TerminateThread
 0001:00006990       Windows.TextOutA
 0001:00006BF8       Windows.TranslateMessage
 0001:00006838       Windows.UnmapViewOfFile
 0001:00006C00       Windows.UnregisterClass
 0001:00006888       Windows.VerQueryValueA
 0001:00006840       Windows.VirtualAlloc
 0001:00006848       Windows.VirtualFree
 0001:00006850       Windows.VirtualProtect
 0001:00006858       Windows.VirtualQuery
 0001:00006C08       Windows.WaitForInputIdle
 0001:00006860       Windows.WaitForSingleObject
 0002:00000098       Windows.Windows
 0001:00006868       Windows.WriteFile
 0001:00006870       Windows.WritePrivateProfileStringA
 0001:00040920       WinSock.closesocket
 0001:00040928       WinSock.connect
 0001:00040960       WinSock.gethostbyname
 0001:00040968       WinSock.gethostname
 0001:00040930       WinSock.htons
 0001:00040938       WinSock.inet_addr
 0001:00040940       WinSock.ioctlsocket
 0001:00040948       WinSock.recv
 0001:00040950       WinSock.send
 0001:00040958       WinSock.socket
 0001:00040970       WinSock.WSAAsyncSelect
 0001:00040988       WinSock.WSACleanup
 0001:00040978       WinSock.WSAGetLastError
 0001:00040980       WinSock.WSAStartup


  Address             Publics by Value

 0001:00000044       System..TObject
 0001:00000138       System..TInterfacedObject
 0001:00000198       System.CloseHandle
 0001:000001A0       System.CreateFileA
 0001:000001A8       System.GetFileType
 0001:000001B0       System.GetFileSize
 0001:000001B8       System.GetStdHandle
 0001:000001C0       System.RaiseException
 0001:000001C8       System.ReadFile
 0001:000001D0       System.RtlUnwind
 0001:000001D8       System.SetEndOfFile
 0001:000001E0       System.SetFilePointer
 0001:000001E8       System.UnhandledExceptionFilter
 0001:000001F0       System.WriteFile
 0001:000001F8       System.CharNext
 0001:00000200       System.CreateThread
 0001:00000208       System.ExitThread
 0001:00000210       System.ExitProcess
 0001:00000218       System.MessageBox
 0001:00000220       System.FindClose
 0001:00000228       System.FindFirstFile
 0001:00000230       System.FreeLibrary
 0001:00000238       System.GetCommandLine
 0001:00000240       System.GetCurrentDirectory
 0001:00000248       System.GetLastError
 0001:00000250       System.GetLocaleInfo
 0001:00000258       System.GetModuleFileName
 0001:00000260       System.GetModuleHandle
 0001:00000268       System.GetProcAddress
 0001:00000270       System.GetStartupInfo
 0001:00000278       System.GetThreadLocale
 0001:00000280       System.LoadLibraryEx
 0001:00000288       System.LoadString
 0001:00000290       System.lstrcpyn
 0001:00000298       System.@strlen
 0001:000002A0       System.MultiByteToWideChar
 0001:000002A8       System.RegCloseKey
 0001:000002B0       System.RegOpenKeyEx
 0001:000002B8       System.RegQueryValueEx
 0001:000002C0       System.SetCurrentDirectory
 0001:000002C8       System.WideCharToMultiByte
 0001:000002D0       System.VirtualQuery
 0001:000002D8       System.SysAllocStringLen
 0001:000002E0       System.SysReAllocStringLen
 0001:000002E8       System.SysFreeString
 0001:000002F0       System.InterlockedIncrement
 0001:000002F8       System.InterlockedDecrement
 0001:00000300       System.GetCurrentThreadId
 0001:00000308       System.GetCmdShow
 0001:0000032C       System.VirtualAlloc
 0001:00000334       System.VirtualFree
 0001:0000033C       System.Sleep
 0001:00000344       System.DestroyWindow
 0001:000003AC       System.LockCmpxchg
 0001:000003B4       System.Move12
 0001:000003C8       System.Move20
 0001:000003E8       System.Move28
 0001:00000414       System.Move36
 0001:00000434       System.Move44
 0001:00000458       System.Move52
 0001:00000484       System.Move60
 0001:000004B4       System.Move68
 0001:000004EC       System.MoveX16L4
 0001:0000051C       System.MoveX8L4
 0001:00000538       System.RemoveMediumFreeBlock
 0001:00000578       System.InsertMediumBlockIntoBin
 0001:000005D8       System.BinMediumSequentialFeedRemainder
 0001:00000644       System.AllocNewSequentialFeedMediumPool
 0001:000006BC       System.LockLargeBlocks
 0001:000006FC       System.AllocateLargeBlock
 0001:00000760       System.FreeLargeBlock
 0001:0000079C       System.SysGetMem
 0001:00000B04       System.SysFreeMem
 0001:00000CE4       System.SysReallocMem
 0001:0000106C       System.SysAllocMem
 0001:0000109C       System.NextMediumBlock
 0001:000010C0       System.GetFirstMediumBlockInPool
 0001:00001100       System.GetFirstAndLastSmallBlockInPool
 0001:0000113C       System.CardinalToStrBuf
 0001:00001258       System.AppendStringToBuffer
 0001:00001270       System.InternalIsValidClass
 0001:00001328       System.GetObjectClass
 0001:00001358       System.LockExpectedMemoryLeaksList
 0001:000013C4       System.SysRegisterExpectedMemoryLeak
 0001:00001404       System.SysUnregisterExpectedMemoryLeak
 0001:0000145C       System.CheckSmallBlockPoolForLeaks
 0001:000015A8       System.ScanForMemoryLeaks
 0001:00001A20       System.BuildBlockTypeLookupTable
 0001:00001A64       System.InitializeMemoryManager
 0001:00001B8C       System.FreeAllMemory
 0001:00001C1C       System.FinalizeMemoryManager
 0001:00001C70       System.AllocMem
 0001:00001C88       System.@GetMem
 0001:00001CA4       System.@FreeMem
 0001:00001CBC       System.@ReallocMem
 0001:00001D0C       System.DefaultAllocMem
 0001:00001D30       System.DefaultRegisterAndUnregisterExpectedMemoryLeak
 0001:00001D34       System.GetMemoryManager
 0001:00001D50       System.SetMemoryManager
 0001:00001D7C       System.ExceptObject
 0001:00001D9C       System.ExceptAddr
 0001:00001DBC       System.AcquireExceptionObject
 0001:00001DF0       System.SetRaiseList
 0001:00001E08       System.RunErrorAt
 0001:00001E14       System.ErrorAt
 0001:00001E60       System.Error
 0001:00001E6C       System.@_IOTest
 0001:00001E8C       System.SetInOutRes
 0001:00001E9C       System.@Copy
 0001:00001EE0       System.@LGetDir
 0001:00001F58       System.@Insert
 0001:00001FC0       System.IOResult
 0001:00001FE0       System.Move
 0001:000020E0       System.GetParamStr
 0001:000021DC       System.ParamStr
 0001:0000223C       System.@SetLength
 0001:00002240       System.Random
 0001:0000225C       System.UpCase
 0001:00002268       System.@ROUND
 0001:00002274       System.@TRUNC
 0001:00002298       System.@AbstractError
 0001:000022B4       System.OpenText
 0001:0000230C       System.@ResetText
 0001:00002318       System.@RewritText
 0001:00002324       System.TextIn
 0001:00002360       System.FileNOPProc
 0001:00002364       System.TextOut
 0001:000023A0       System.InternalClose
 0001:000023B0       System.TextClose
 0001:000023D0       System.TextOpen
 0001:0000257C       System.InternalFlush
 0001:000025C4       System.Flush
 0001:000025D0       System.@Flush
 0001:000025DC       System.@Close
 0001:00002634       System.@PStrNCat
 0001:00002664       System.@PStrCpy
 0001:00002670       System.@PStrNCpy
 0001:0000268C       System.@AStrCmp
 0001:000026FC       System.@FillChar
 0001:00002798       System.TryOpenForInput
 0001:000027D4       System.@ReadChar
 0001:00002840       System.ReadLine
 0001:000028C0       System.@ReadString
 0001:000028CC       System.@ReadLString
 0001:00002938       System.@ReadLn
 0001:00002968       System.@ValLong
 0001:00002A3C       System.TryOpenForOutput
 0001:00002A80       System.@WriteBytes
 0001:00002AD4       System.@WriteSpaces
 0001:00002B50       System.@WriteLn
 0001:00002B98       System.FPower10
 0001:00002BA0       System.@Pow10
 0001:00002E84       System.GetKeyboardType
 0001:00002E8C       System.@isNECWindows
 0001:00002EBC       System.@FpuMaskInit
 0001:00002F80       System.@FpuInit
 0001:00002F8C       System.TObject.ClassType
 0001:00002F94       System.TObject.ClassName
 0001:00002FA8       System.TObject.ClassParent
 0001:00002FB4       System.TObject.NewInstance
 0001:00002FD0       System.TObject.FreeInstance
 0001:00002FE4       System.TObject.InstanceSize
 0001:00002FEC       System.TObject.Create
 0001:0000300C       System.TObject.Destroy
 0001:0000301C       System.TObject.Free
 0001:00003028       System.TObject.InitInstance
 0001:00003080       System.TObject.CleanupInstance
 0001:000030A0       System.InvokeImplGetter
 0001:000030D0       System.TObject.GetInterface
 0001:00003164       System.TObject.GetInterfaceEntry
 0001:000031A8       System.@IsClass
 0001:000031CC       System.@AsClass
 0001:000031E8       System.GetDynaMethod
 0001:00003218       System.@CallDynaInst
 0001:00003230       System.TObject.InheritsFrom
 0001:00003244       System.TObject.ClassInfo
 0001:0000324C       System.TObject.SafeCallException
 0001:00003254       System.TObject.DefaultHandler
 0001:00003258       System.TObject.AfterConstruction
 0001:0000325C       System.TObject.BeforeDestruction
 0001:00003260       System.TObject.Dispatch
 0001:00003288       System.@ClassCreate
 0001:000032D8       System.@ClassDestroy
 0001:000032E0       System.@AfterConstruction
 0001:00003330       System.@BeforeDestruction
 0001:00003340       System.NotifyReRaise
 0001:0000335C       System.NotifyNonDelphiException
 0001:00003380       System.NotifyExcept
 0001:00003398       System.NotifyOnExcept
 0001:000033AC       System.NotifyAnyExcept
 0001:000033C0       System.CheckJmp
 0001:000033E0       System.NotifyExceptFinally
 0001:00003408       System.NotifyTerminate
 0001:00003424       System.NotifyUnhandled
 0001:00003444       System.@HandleAnyException
 0001:00003570       System.@HandleOnException
 0001:000036F8       System.@HandleFinally
 0001:000037A0       System.@HandleFinallyInternal
 0001:000037D8       System.@HandleAutoException
 0001:0000389C       System.@RaiseExcept
 0001:000038C4       System.@RaiseAgain
 0001:00003918       System.@DoneExcept
 0001:00003948       System.@TryFinallyExit
 0001:00003960       System.MapToRunError
 0001:00003A00       System.@ExceptionHandler
 0001:00003AA0       System.SetExceptionHandler
 0001:00003AC0       System.UnsetExceptionHandler
 0001:00003AE8       System.FinalizeUnits
 0001:00003B4C       System.InitUnits
 0001:00003BB4       System.@StartExe
 0001:00003BF4       System.@InitResStringImports
 0001:00003C1C       System.@InitImports
 0001:00003C40       System.MakeErrorMessage
 0001:00003CA4       System.ExitDll
 0001:00003CD4       System.WriteErrorMessage
 0001:00003D60       System.@Halt0
 0001:00003E3C       System.@Halt
 0001:00003E48       System.@RunError
 0001:00003E54       System.@Assert
 0001:00003E74       System.ThreadWrapper
 0001:00003EAC       System.BeginThread
 0001:00003F0C       System.EndThread
 0001:00003F28       System.@LStrClr
 0001:00003F4C       System.@LStrArrayClr
 0001:00003F7C       System.@LStrAsg
 0001:00003FC0       System.@LStrLAsg
 0001:00003FEC       System.@NewAnsiString
 0001:00004018       System.@LStrFromPCharLen
 0001:00004048       System.CharFromWChar
 0001:00004068       System.WCharFromChar
 0001:00004084       System.@LStrFromPWCharLen
 0001:00004110       System.@LStrFromChar
 0001:00004120       System.@LStrFromPChar
 0001:00004150       System.@LStrFromPWChar
 0001:0000418C       System.@LStrFromString
 0001:00004198       System.@LStrFromArray
 0001:000041B0       System.@LStrFromWArray
 0001:000041CC       System.@LStrFromWStr
 0001:000041E0       System.@LStrToString
 0001:00004204       System.@LStrLen
 0001:00004210       System.@LStrCat
 0001:00004254       System.@LStrCat3
 0001:000042C8       System.@LStrCatN
 0001:00004354       System.@LStrCmp
 0001:000043F8       System.@LStrAddRef
 0001:00004408       System.@LStrToPChar
 0001:00004414       System.InternalUniqueString
 0001:00004458       System.UniqueString
 0001:00004460       System.@UniqueStringA
 0001:00004468       System.@LStrCopy
 0001:000044A8       System.@LStrDelete
 0001:000044F0       System.@LStrInsert
 0001:0000454C       System.Pos
 0001:00004690       System.@LStrSetLength
 0001:000046F4       System.@Write0LString
 0001:000046FC       System.@WriteLString
 0001:0000471C       System.WStrError
 0001:00004724       System.@NewWideString
 0001:0000473C       System.WStrSet
 0001:0000474C       System.@WStrClr
 0001:00004764       System.@WStrArrayClr
 0001:00004788       System.@WStrAsg
 0001:000047B0       System.@WStrFromPCharLen
 0001:0000483C       System.@WStrFromPWCharLen
 0001:00004860       System.@WStrFromPWChar
 0001:0000489C       System.@WStrFromLStr
 0001:000048AC       System.@WStrToPWChar
 0001:000048BC       System.@WStrLen
 0001:000048C8       System.@WStrCmp
 0001:0000494C       System.@WStrCopy
 0001:00004998       System.@WStrSetLength
 0001:000049DC       System.@WStrAddRef
 0001:000049FC       System.@InitializeRecord
 0001:00004A2C       System.@InitializeArray
 0001:00004AC0       System.@Initialize
 0001:00004ACC       System.@FinalizeRecord
 0001:00004B00       System.@VarClr
 0001:00004B18       System.@FinalizeArray
 0001:00004C04       System.@Finalize
 0001:00004C10       System.@AddRefRecord
 0001:00004C40       System.@VarAddRef
 0001:00004C58       System.@AddRefArray
 0001:00004D18       System.@VarCopy
 0001:00004D30       System.@CopyRecord
 0001:00004E4C       System.@CopyArray
 0001:00004F40       System.@New
 0001:00004F54       System.@Dispose
 0001:00004F64       System.@DispCallByIDError
 0001:00004F6C       System.@_llmul
 0001:00004F90       System.@_llmod
 0001:0000500C       System.@ValInt64
 0001:00005224       System.@DynArrayLength
 0001:0000522C       System.@DynArrayHigh
 0001:00005234       System.CopyArray
 0001:00005244       System.FinalizeArray
 0001:0000524C       System.DynArrayClear
 0001:00005254       System.DynArraySetLength
 0001:000053E0       System.@DynArraySetLength
 0001:000053EC       System.@DynArrayClear
 0001:00005428       System.@DynArrayAsg
 0001:00005450       System.@DynArrayAddRef
 0001:0000545C       System.FindHInstance
 0001:00005484       System.FindClassHInstance
 0001:0000548C       System.DelayLoadResourceModule
 0001:000054D4       System.FindResourceHInstance
 0001:0000550C       System.FindBS
 0001:0000552C       System.ToLongPath
 0001:000056F0       System.LoadResourceModule
 0001:00005960       System.AddModuleUnloadProc
 0001:00005968       System.RemoveModuleUnloadProc
 0001:00005970       System.AddModuleUnloadProc
 0001:00005990       System.RemoveModuleUnloadProc
 0001:000059F4       System.NotifyModuleUnload
 0001:00005A50       System.RegisterModule
 0001:00005A60       System.UnregisterModule
 0001:00005AD0       System.@IntfClear
 0001:00005AE8       System.@IntfCopy
 0001:00005B14       System.@IntfAddRef
 0001:00005B20       System.TInterfacedObject.AfterConstruction
 0001:00005B2C       System.TInterfacedObject.BeforeDestruction
 0001:00005B3C       System.TInterfacedObject.NewInstance
 0001:00005B4C       System.TInterfacedObject.QueryInterface
 0001:00005B74       System.TInterfacedObject._AddRef
 0001:00005B88       System.TInterfacedObject._Release
 0001:00005BB0       System.@CheckAutoResult
 0001:00005BCC       System.UnicodeToUtf8
 0001:00005CA8       System.Utf8ToUnicode
 0001:00005DD8       System.UTF8Encode
 0001:00005E94       System.UTF8Decode
 0001:00005F4C       System.AnsiToUtf8
 0001:00005F9C       System.LoadResString
 0001:00005FF4       System.GetACP
 0001:00005FFC       System.Finalization
 0001:0000605C       SysInit.GetModuleHandle
 0001:00006064       SysInit.LocalAlloc
 0001:0000606C       SysInit.TlsGetValue
 0001:00006074       SysInit.TlsSetValue
 0001:0000607C       SysInit.AllocTlsBuffer
 0001:00006088       SysInit.GetTlsSize
 0001:00006090       SysInit.InitThreadTLS
 0001:000060D4       SysInit.@GetTls
 0001:00006114       SysInit.InitializeModule
 0001:00006120       SysInit.@InitExe
 0001:0000646C       Types.Rect
 0001:00006488       Windows.GetTokenInformation
 0001:00006490       Windows.GetUserNameA
 0001:00006498       Windows.LookupPrivilegeName
 0001:000064A0       Windows.LookupPrivilegeNameA
 0001:000064A8       Windows.OpenProcessToken
 0001:000064B0       Windows.RegCloseKey
 0001:000064B8       Windows.RegEnumKeyExA
 0001:000064C0       Windows.RegOpenKeyExA
 0001:000064C8       Windows.RegQueryValueExA
 0001:000064D0       Windows.CloseHandle
 0001:000064D8       Windows.CompareString
 0001:000064E0       Windows.CreateDirectory
 0001:000064E8       Windows.CreateEvent
 0001:000064F0       Windows.CreateFile
 0001:000064F8       Windows.CreateFileA
 0001:00006500       Windows.CreateFileMapping
 0001:00006508       Windows.CreateProcessA
 0001:00006510       Windows.DeleteCriticalSection
 0001:00006518       Windows.DeleteFile
 0001:00006520       Windows.DeleteFileA
 0001:00006528       Windows.DuplicateHandle
 0001:00006530       Windows.EnterCriticalSection
 0001:00006538       Windows.EnumCalendarInfoA
 0001:00006540       Windows.EnumSystemLocalesA
 0001:00006548       Windows.ExitThread
 0001:00006550       Windows.FileTimeToDosDateTime
 0001:00006558       Windows.FileTimeToLocalFileTime
 0001:00006560       Windows.FillConsoleOutputAttribute
 0001:00006568       Windows.FillConsoleOutputCharacter
 0001:00006570       Windows.FindClose
 0001:00006578       Windows.FindFirstFile
 0001:00006580       Windows.FindFirstFileA
 0001:00006588       Windows.FindNextFile
 0001:00006590       Windows.FindResourceA
 0001:00006598       Windows.FlushInstructionCache
 0001:000065A0       Windows.FormatMessage
 0001:000065A8       Windows.FreeLibrary
 0001:000065B0       Windows.InterlockedDecrement
 0001:000065B8       Windows.InterlockedExchange
 0001:000065C0       Windows.InterlockedIncrement
 0001:000065C8       Windows.GetACP
 0001:000065D0       Windows.GetCPInfo
 0001:000065D8       Windows.GetCommandLine
 0001:000065E0       Windows.GetComputerNameA
 0001:000065E8       Windows.GetConsoleScreenBufferInfo
 0001:000065F0       Windows.GetCurrentProcess
 0001:000065F8       Windows.GetCurrentProcessId
 0001:00006600       Windows.GetCurrentThread
 0001:00006608       Windows.GetCurrentThreadId
 0001:00006610       Windows.GetDateFormat
 0001:00006618       Windows.GetDiskFreeSpaceA
 0001:00006620       Windows.GetEnvironmentVariableA
 0001:00006628       Windows.GetExitCodeProcess
 0001:00006630       Windows.GetExitCodeThread
 0001:00006638       Windows.GetFileAttributes
 0001:00006640       Windows.GetFileAttributesA
 0001:00006648       Windows.GetFullPathName
 0001:00006650       Windows.GetHandleInformation
 0001:00006658       Windows.GetLastError
 0001:00006660       Windows.GetLocalTime
 0001:00006668       Windows.GetLocaleInfo
 0001:00006670       Windows.GetLocaleInfoA
 0001:00006678       Windows.GetLocaleInfoW
 0001:00006680       Windows.GetModuleFileName
 0001:00006688       Windows.GetModuleFileNameA
 0001:00006690       Windows.GetModuleHandle
 0001:00006698       Windows.GetModuleHandleA
 0001:000066A0       Windows.GetPriorityClass
 0001:000066A8       Windows.GetPrivateProfileStringA
 0001:000066B0       Windows.GetProcAddress
 0001:000066B8       Windows.GetProfileStringA
 0001:000066C0       Windows.GetStartupInfoA
 0001:000066C8       Windows.GetStdHandle
 0001:000066D0       Windows.GetSystemDefaultLangID
 0001:000066D8       Windows.GetSystemTime
 0001:000066E0       Windows.GetTempPathA
 0001:000066E8       Windows.GetThreadContext
 0001:000066F0       Windows.GetThreadLocale
 0001:000066F8       Windows.GetThreadPriority
 0001:00006700       Windows.GetTickCount
 0001:00006708       Windows.GetVersionEx
 0001:00006710       Windows.GetWindowsDirectoryA
 0001:00006718       Windows.GlobalAlloc
 0001:00006720       Windows.GlobalFree
 0001:00006728       Windows.GlobalLock
 0001:00006730       Windows.GlobalMemoryStatus
 0001:00006738       Windows.GlobalUnlock
 0001:00006740       Windows.InitializeCriticalSection
 0001:00006748       Windows.IsBadReadPtr
 0001:00006750       Windows.LeaveCriticalSection
 0001:00006758       Windows.LoadLibrary
 0001:00006760       Windows.LoadLibraryA
 0001:00006768       Windows.LoadLibraryExA
 0001:00006770       Windows.LoadResource
 0001:00006778       Windows.LockResource
 0001:00006780       Windows.MapViewOfFile
 0001:00006788       Windows.MoveFileA
 0001:00006790       Windows.MulDiv
 0001:00006798       Windows.OpenProcess
 0001:000067A0       Windows.OutputDebugStringA
 0001:000067A8       Windows.ReadFile
 0001:000067B0       Windows.ResetEvent
 0001:000067B8       Windows.ResumeThread
 0001:000067C0       Windows.SetConsoleCursorPosition
 0001:000067C8       Windows.SetEndOfFile
 0001:000067D0       Windows.SetEnvironmentVariable
 0001:000067D8       Windows.SetEnvironmentVariableA
 0001:000067E0       Windows.SetEvent
 0001:000067E8       Windows.SetFileAttributes
 0001:000067F0       Windows.SetFilePointer
 0001:000067F8       Windows.SetLastError
 0001:00006800       Windows.SetThreadPriority
 0001:00006808       Windows.SetUnhandledExceptionFilter
 0001:00006810       Windows.SizeofResource
 0001:00006818       Windows.Sleep
 0001:00006820       Windows.SuspendThread
 0001:00006828       Windows.TerminateProcess
 0001:00006830       Windows.TerminateThread
 0001:00006838       Windows.UnmapViewOfFile
 0001:00006840       Windows.VirtualAlloc
 0001:00006848       Windows.VirtualFree
 0001:00006850       Windows.VirtualProtect
 0001:00006858       Windows.VirtualQuery
 0001:00006860       Windows.WaitForSingleObject
 0001:00006868       Windows.WriteFile
 0001:00006870       Windows.WritePrivateProfileStringA
 0001:00006878       Windows.GetFileVersionInfoA
 0001:00006880       Windows.GetFileVersionInfoSizeA
 0001:00006888       Windows.VerQueryValueA
 0001:00006890       Windows.BitBlt
 0001:00006898       Windows.CombineRgn
 0001:000068A0       Windows.CreateBitmap
 0001:000068A8       Windows.CreateCompatibleBitmap
 0001:000068B0       Windows.CreateCompatibleDC
 0001:000068B8       Windows.CreateDIBSection
 0001:000068C0       Windows.CreateFontA
 0001:000068C8       Windows.CreateFontIndirect
 0001:000068D0       Windows.CreateFontIndirectA
 0001:000068D8       Windows.CreatePalette
 0001:000068E0       Windows.CreateRectRgn
 0001:000068E8       Windows.CreateRectRgnIndirect
 0001:000068F0       Windows.CreateSolidBrush
 0001:000068F8       Windows.DeleteDC
 0001:00006900       Windows.DeleteObject
 0001:00006908       Windows.GetCurrentObject
 0001:00006910       Windows.GetDIBits
 0001:00006918       Windows.GetDeviceCaps
 0001:00006920       Windows.GetMapMode
 0001:00006928       Windows.GetObject
 0001:00006930       Windows.GetPixel
 0001:00006938       Windows.GetStockObject
 0001:00006940       Windows.GetSystemPaletteEntries
 0001:00006948       Windows.GetTextExtentPoint32
 0001:00006950       Windows.GetTextExtentPoint32A
 0001:00006958       Windows.SelectObject
 0001:00006960       Windows.SelectPalette
 0001:00006968       Windows.SetBkColor
 0001:00006970       Windows.SetBkMode
 0001:00006978       Windows.SetDIBColorTable
 0001:00006980       Windows.SetMapMode
 0001:00006988       Windows.SetTextColor
 0001:00006990       Windows.TextOutA
 0001:00006998       Windows.BeginPaint
 0001:000069A0       Windows.CharLowerBuff
 0001:000069A8       Windows.CharNext
 0001:000069B0       Windows.CharToOemA
 0001:000069B8       Windows.CloseClipboard
 0001:000069C0       Windows.CopyRect
 0001:000069C8       Windows.CreateDialogParamA
 0001:000069D0       Windows.DefWindowProcA
 0001:000069D8       Windows.DestroyWindow
 0001:000069E0       Windows.DialogBoxParamA
 0001:000069E8       Windows.DispatchMessage
 0001:000069F0       Windows.DrawIconEx
 0001:000069F8       Windows.DrawTextA
 0001:00006A00       Windows.EmptyClipboard
 0001:00006A08       Windows.EnableWindow
 0001:00006A10       Windows.EndDialog
 0001:00006A18       Windows.EndPaint
 0001:00006A20       Windows.EnumWindows
 0001:00006A28       Windows.FillRect
 0001:00006A30       Windows.FrameRect
 0001:00006A38       Windows.GetClassInfo
 0001:00006A40       Windows.GetClassNameA
 0001:00006A48       Windows.GetCursor
 0001:00006A50       Windows.GetCursorPos
 0001:00006A58       Windows.GetDC
 0001:00006A60       Windows.GetDesktopWindow
 0001:00006A68       Windows.GetDlgItem
 0001:00006A70       Windows.GetFocus
 0001:00006A78       Windows.GetForegroundWindow
 0001:00006A80       Windows.GetIconInfo
 0001:00006A88       Windows.GetKeyboardState
 0001:00006A90       Windows.GetSysColor
 0001:00006A98       Windows.GetSystemMetrics
 0001:00006AA0       Windows.GetWindowDC
 0001:00006AA8       Windows.GetWindowLong
 0001:00006AB0       Windows.GetWindowPlacement
 0001:00006AB8       Windows.GetWindowRect
 0001:00006AC0       Windows.GetWindowTextA
 0001:00006AC8       Windows.GetWindowThreadProcessId
 0001:00006AD0       Windows.InvalidateRect
 0001:00006AD8       Windows.InvalidateRgn
 0001:00006AE0       Windows.IsIconic
 0001:00006AE8       Windows.IsWindowUnicode
 0001:00006AF0       Windows.IsWindowVisible
 0001:00006AF8       Windows.KillTimer
 0001:00006B00       Windows.LoadBitmap
 0001:00006B08       Windows.LoadBitmapA
 0001:00006B10       Windows.LoadCursorA
 0001:00006B18       Windows.LoadString
 0001:00006B20       Windows.MessageBeep
 0001:00006B28       Windows.MessageBox
 0001:00006B30       Windows.MessageBoxA
 0001:00006B38       Windows.MoveWindow
 0001:00006B40       Windows.MsgWaitForMultipleObjects
 0001:00006B48       Windows.OffsetRect
 0001:00006B50       Windows.OpenClipboard
 0001:00006B58       Windows.PeekMessage
 0001:00006B60       Windows.PostMessage
 0001:00006B68       Windows.PtInRect
 0001:00006B70       Windows.RegisterClass
 0001:00006B78       Windows.ReleaseDC
 0001:00006B80       Windows.ScreenToClient
 0001:00006B88       Windows.SendMessage
 0001:00006B90       Windows.SendMessageA
 0001:00006B98       Windows.SendMessageTimeout
 0001:00006BA0       Windows.SetClipboardData
 0001:00006BA8       Windows.SetCursor
 0001:00006BB0       Windows.SetFocus
 0001:00006BB8       Windows.SetForegroundWindow
 0001:00006BC0       Windows.SetTimer
 0001:00006BC8       Windows.SetWindowLong
 0001:00006BD0       Windows.SetWindowPlacement
 0001:00006BD8       Windows.SetWindowPos
 0001:00006BE0       Windows.ShowWindow
 0001:00006BE8       Windows.SystemParametersInfo
 0001:00006BF0       Windows.SystemParametersInfoA
 0001:00006BF8       Windows.TranslateMessage
 0001:00006C00       Windows.UnregisterClass
 0001:00006C08       Windows.WaitForInputIdle
 0001:00006C10       Windows.CopyMemory
 0001:00006C18       Windows.CreateDialogA
 0001:00006C30       Windows.Finalization
 0001:00006CA4       SysUtils..Exception
 0001:00006D0C       SysUtils..EAbort
 0001:00006D60       SysUtils..EHeapException
 0001:00006DBC       SysUtils..EOutOfMemory
 0001:00006E18       SysUtils..EInOutError
 0001:00006E70       SysUtils..EExternal
 0001:00006EC8       SysUtils..EExternalException
 0001:00006F28       SysUtils..EIntError
 0001:00006F80       SysUtils..EDivByZero
 0001:00006FD8       SysUtils..ERangeError
 0001:00007030       SysUtils..EIntOverflow
 0001:0000708C       SysUtils..EMathError
 0001:000070E4       SysUtils..EInvalidOp
 0001:0000713C       SysUtils..EZeroDivide
 0001:00007194       SysUtils..EOverflow
 0001:000071EC       SysUtils..EUnderflow
 0001:00007244       SysUtils..EInvalidPointer
 0001:000072A0       SysUtils..EInvalidCast
 0001:000072FC       SysUtils..EConvertError
 0001:00007358       SysUtils..EAccessViolation
 0001:000073B8       SysUtils..EPrivilege
 0001:00007410       SysUtils..EStackOverflow
 0001:0000746C       SysUtils..EControlC
 0001:000074C4       SysUtils..EVariantError
 0001:00007520       SysUtils..EAssertionFailed
 0001:00007580       SysUtils..EAbstractError
 0001:000075DC       SysUtils..EIntfCastError
 0001:00007638       SysUtils..EOSError
 0001:00007690       SysUtils..ESafecallException
 0001:00007744       SysUtils..TThreadLocalCounter
 0001:00007820       SysUtils..TMultiReadExclusiveWriteSynchronizer
 0001:00007894       SysUtils.DivMod
 0001:000078B0       SysUtils.ConvertError
 0001:000078C8       SysUtils.ConvertErrorFmt
 0001:000078EC       SysUtils.UpperCase
 0001:00007988       SysUtils.LowerCase
 0001:00007A24       SysUtils.CompareStr
 0001:00007A54       SysUtils.CompareText
 0001:00007AF0       SysUtils.SameText
 0001:00007B14       SysUtils.AnsiLowerCase
 0001:00007B4C       SysUtils.AnsiCompareText
 0001:00007B90       SysUtils.Trim
 0001:00007BE4       SysUtils.CvtInt
 0001:00007C30       SysUtils.IntToStr
 0001:00007C50       SysUtils.CvtInt64
 0001:00007D1C       SysUtils.IntToStr
 0001:00007D44       SysUtils.IntToHex
 0001:00007D6C       SysUtils.IntToHex
 0001:00007D9C       SysUtils.StrToInt
 0001:00007DD8       SysUtils.StrToIntDef
 0001:00007DF0       SysUtils.TryStrToInt
 0001:00007E10       SysUtils.VerifyBoolStrArray
 0001:00007EA0       SysUtils.CompareWith
 0001:00007F24       SysUtils.TryStrToBool
 0001:00007FC0       SysUtils.BoolToStr
 0001:0000800C       SysUtils.FileOpen
 0001:00008064       SysUtils.FileRead
 0001:00008090       SysUtils.FileWrite
 0001:000080BC       SysUtils.FileSeek
 0001:0000810C       SysUtils.FileExists
 0001:00008130       SysUtils.FindMatchingFile
 0001:000081B4       SysUtils.FindFirst
 0001:00008204       SysUtils.FindNext
 0001:00008228       SysUtils.FindClose
 0001:00008244       SysUtils.LastDelimiter
 0001:00008298       SysUtils.ChangeFileExt
 0001:0000832C       SysUtils.ExtractFilePath
 0001:00008360       SysUtils.ExtractFileDrive
 0001:00008418       SysUtils.ExtractFileName
 0001:00008450       SysUtils.ExtractFileExt
 0001:00008498       SysUtils.ExpandFileName
 0001:000084D4       SysUtils.ExtractFilePathNoDrive
 0001:0000854C       SysUtils.Next
 0001:00008574       SysUtils.ExtractRelativePath
 0001:00008738       SysUtils.BackfillGetDiskFreeSpaceEx
 0001:000087AC       SysUtils.FileDateToDateTime
 0001:00008818       SysUtils.GetCurrentDir
 0001:00008824       SysUtils.CreateDir
 0001:00008840       SysUtils.StrLen
 0001:00008858       SysUtils.StrMove
 0001:00008868       SysUtils.StrCopy
 0001:000088A0       SysUtils.StrLCopy
 0001:000088D4       SysUtils.StrPCopy
 0001:000088FC       SysUtils.StrIComp
 0001:0000893C       SysUtils.StrLComp
 0001:00008964       SysUtils.StrLIComp
 0001:000089A8       SysUtils.StrScan
 0001:000089BC       SysUtils.StrPos
 0001:00008A10       SysUtils.StrAlloc
 0001:00008A24       SysUtils.StrNew
 0001:00008A50       SysUtils.FormatError
 0001:00008AA8       SysUtils.FormatVarToStr
 0001:00008ACC       SysUtils.FormatClearStr
 0001:00008AD8       SysUtils.FormatBuf
 0001:00008E50       SysUtils.StrLFmt
 0001:00008E90       SysUtils.Format
 0001:00008EA4       SysUtils.FmtStr
 0001:00008F80       SysUtils.PutExponent
 0001:00008FC4       SysUtils.FloatToText
 0001:00009298       SysUtils.FloatToTextFmt
 0001:0000958C       SysUtils.FloatToDecimal
 0001:000097B8       SysUtils.TextToFloat
 0001:000098CC       SysUtils.FloatToStr
 0001:000098FC       SysUtils.CurrToStr
 0001:0000992C       SysUtils.FormatFloat
 0001:00009988       SysUtils.StrToFloat
 0001:000099C4       SysUtils.TryStrToFloat
 0001:000099E0       SysUtils.TryStrToFloat
 0001:00009A0C       SysUtils.TryStrToFloat
 0001:00009A38       SysUtils.TryStrToCurr
 0001:00009A54       SysUtils.DateTimeToTimeStamp
 0001:00009A98       SysUtils.TryEncodeTime
 0001:00009B08       SysUtils.EncodeTime
 0001:00009B48       SysUtils.DecodeTime
 0001:00009BA4       SysUtils.IsLeapYear
 0001:00009BE0       SysUtils.TryEncodeDate
 0001:00009CAC       SysUtils.EncodeDate
 0001:00009CDC       SysUtils.DecodeDateFully
 0001:00009E28       SysUtils.DecodeDate
 0001:00009E48       SysUtils.SystemTimeToDateTime
 0001:00009EB8       SysUtils.DayOfWeek
 0001:00009EE0       SysUtils.Date
 0001:00009F0C       SysUtils.Time
 0001:00009F40       SysUtils.Now
 0001:00009F90       SysUtils.CurrentYear
 0001:00009FA4       SysUtils.AppendChars
 0001:00009FE8       SysUtils.AppendString
 0001:0000A004       SysUtils.AppendNumber
 0001:0000A050       SysUtils.GetCount
 0001:0000A07C       SysUtils.GetDate
 0001:0000A0B4       SysUtils.GetTime
 0001:0000A0F4       SysUtils.ConvertEraString
 0001:0000A270       SysUtils.ConvertYearString
 0001:0000A388       SysUtils.AppendFormat
 0001:0000AB40       SysUtils.DateTimeToString
 0001:0000AB9C       SysUtils.ScanBlanks
 0001:0000ABC0       SysUtils.ScanNumber
 0001:0000AC54       SysUtils.ScanString
 0001:0000AD2C       SysUtils.ScanChar
 0001:0000AD68       SysUtils.GetDateOrder
 0001:0000ADB4       SysUtils.ScanToNumber
 0001:0000ADFC       SysUtils.GetEraYearOffset
 0001:0000AE50       SysUtils.EraToYear
 0001:0000AEAC       SysUtils.ScanDate
 0001:0000B1F8       SysUtils.ScanTime
 0001:0000B3F0       SysUtils.TryStrToTime
 0001:0000B428       SysUtils.StrToDateTime
 0001:0000B45C       SysUtils.TryStrToDateTime
 0001:0000B4F8       SysUtils.SysErrorMessage
 0001:0000B544       SysUtils.GetLocaleStr
 0001:0000B590       SysUtils.GetLocaleChar
 0001:0000B5BC       SysUtils.LocalGetLocaleStr
 0001:0000B5F8       SysUtils.GetMonthDayNames
 0001:0000B71C       SysUtils.EnumEraNames
 0001:0000B758       SysUtils.EnumEraYearOffsets
 0001:0000B7D0       SysUtils.GetEraNamesAndYearOffsets
 0001:0000B880       SysUtils.TranslateDateFormat
 0001:0000BAB0       SysUtils.ConvertAddr
 0001:0000BABC       SysUtils.ExceptionErrorMessage
 0001:0000BC44       SysUtils.ShowException
 0001:0000BD0C       SysUtils.ReturnAddr
 0001:0000BD10       SysUtils.Abort
 0001:0000BD30       SysUtils.Exception.Create
 0001:0000BD6C       SysUtils.Exception.CreateFmt
 0001:0000BDEC       SysUtils.Exception.CreateRes
 0001:0000BE28       SysUtils.Exception.CreateResFmt
 0001:0000BEBC       SysUtils.EHeapException.FreeInstance
 0001:0000BEE8       SysUtils.CreateInOutError
 0001:0000BF68       SysUtils.ErrorHandler
 0001:0000BFB8       SysUtils.CreateAssertException
 0001:0000C064       SysUtils.RaiseAssertException
 0001:0000C074       SysUtils.AssertErrorHandler
 0001:0000C090       SysUtils.AbstractErrorHandler
 0001:0000C0A8       SysUtils.MapException
 0001:0000C128       SysUtils.GetExceptionClass
 0001:0000C140       SysUtils.CreateAVObject
 0001:0000C30C       SysUtils.GetExceptionObject
 0001:0000C3D4       SysUtils.ExceptHandler
 0001:0000C3E4       SysUtils.InitExceptions
 0001:0000C468       SysUtils.DoneExceptions
 0001:0000C4E8       SysUtils.InitPlatformId
 0001:0000C558       SysUtils.Beep
 0001:0000C560       SysUtils.ByteTypeTest
 0001:0000C5D4       SysUtils.ByteType
 0001:0000C5F8       SysUtils.StrByteType
 0001:0000C610       SysUtils.ByteToCharLen
 0001:0000C634       SysUtils.ByteToCharIndex
 0001:0000C69C       SysUtils.CountChars
 0001:0000C72C       SysUtils.CharToByteIndex
 0001:0000C7B0       SysUtils.CharToByteLen
 0001:0000C820       SysUtils.StrCharLength
 0001:0000C840       SysUtils.StrNextChar
 0001:0000C848       SysUtils.CharLength
 0001:0000C880       SysUtils.NextCharIndex
 0001:0000C8B8       SysUtils.AnsiPos
 0001:0000C8F0       SysUtils.SameFileName
 0001:0000C9A4       SysUtils.AnsiLowerCaseFileName
 0001:0000CA38       SysUtils.AnsiStrPos
 0001:0000CAD8       SysUtils.AnsiStrRScan
 0001:0000CB0C       SysUtils.AnsiStrScan
 0001:0000CB4C       SysUtils.InitLeadBytes
 0001:0000CBA8       SysUtils.InitSysLocale
 0001:0000CC6C       SysUtils.GetFormatSettings
 0001:0000D038       SysUtils.ModuleUnloaded
 0001:0000D210       SysUtils.Sleep
 0001:0000D218       SysUtils.RaiseLastOSError
 0001:0000D224       SysUtils.RaiseLastOSError
 0001:0000D2BC       SysUtils.Win32Check
 0001:0000D2CC       SysUtils.FreeTerminateProcs
 0001:0000D2F0       SysUtils.InitDriveSpacePtr
 0001:0000D34C       SysUtils.InterlockedIncrement
 0001:0000D358       SysUtils.InterlockedDecrement
 0001:0000D364       SysUtils.InterlockedExchange
 0001:0000D36C       SysUtils.InterlockedExchangeAdd
 0001:0000D374       SysUtils.TThreadLocalCounter.Destroy
 0001:0000D3CC       SysUtils.TThreadLocalCounter.HashIndex
 0001:0000D3E8       SysUtils.TThreadLocalCounter.Open
 0001:0000D460       SysUtils.TThreadLocalCounter.Delete
 0001:0000D470       SysUtils.TThreadLocalCounter.Recycle
 0001:0000D4B4       SysUtils.TMultiReadExclusiveWriteSynchronizer.Create
 0001:0000D528       SysUtils.TMultiReadExclusiveWriteSynchronizer.Destroy
 0001:0000D570       SysUtils.TMultiReadExclusiveWriteSynchronizer.BlockReaders
 0001:0000D57C       SysUtils.TMultiReadExclusiveWriteSynchronizer.UnblockReaders
 0001:0000D588       SysUtils.TMultiReadExclusiveWriteSynchronizer.UnblockOneWriter
 0001:0000D594       SysUtils.TMultiReadExclusiveWriteSynchronizer.WaitForReadSignal
 0001:0000D5A4       SysUtils.TMultiReadExclusiveWriteSynchronizer.WaitForWriteSignal
 0001:0000D5B4       SysUtils.TMultiReadExclusiveWriteSynchronizer.BeginWrite
 0001:0000D660       SysUtils.TMultiReadExclusiveWriteSynchronizer.EndWrite
 0001:0000D6B0       SysUtils.TMultiReadExclusiveWriteSynchronizer.BeginRead
 0001:0000D720       SysUtils.TMultiReadExclusiveWriteSynchronizer.EndRead
 0001:0000D788       SysUtils.FreeAndNil
 0001:0000DA68       SysUtils.Finalization
 0001:0000DBF0       VarUtils.VariantInit
 0001:0000DBF8       VarUtils.VariantClear
 0001:0000DC00       VarUtils.VariantCopy
 0001:0000DC08       VarUtils.VariantChangeType
 0001:0000DC10       VarUtils.BackupVariantChangeTypeEx
 0001:0000DC40       VarUtils.UniUnimplemented
 0001:0000DC4C       VarUtils.BiUnimplemented
 0001:0000DC58       VarUtils.CmpUnimplemented
 0001:0000DC64       VarUtils.BackupVarI4FromStr
 0001:0000DCD0       VarUtils.BackupVarR4FromStr
 0001:0000DD3C       VarUtils.BackupVarR8FromStr
 0001:0000DDA8       VarUtils.BackupVarDateFromStr
 0001:0000DE14       VarUtils.BackupVarCyFromStr
 0001:0000DE80       VarUtils.BackupVarBoolFromStr
 0001:0000DF00       VarUtils.BackupVarBStrFromCy
 0001:0000DF70       VarUtils.BackupVarBStrFromDate
 0001:0000DFE4       VarUtils.BackupVarBStrFromBool
 0001:0000E058       VarUtils.SafeArrayCreate
 0001:0000E060       VarUtils.SafeArrayGetLBound
 0001:0000E068       VarUtils.SafeArrayGetUBound
 0001:0000E070       VarUtils.SafeArrayPtrOfIndex
 0001:0000E078       VarUtils.FindProc
 0001:0000E0A4       VarUtils.InitializeVarUtils
 0001:0000E3B0       VarUtils.Finalization
 0001:0000E430       Variants..TCustomVariantType
 0001:0000E4FC       Variants..EVariantInvalidOpError
 0001:0000E560       Variants..EVariantTypeCastError
 0001:0000E5C4       Variants..EVariantOverflowError
 0001:0000E628       Variants..EVariantInvalidArgError
 0001:0000E68C       Variants..EVariantBadVarTypeError
 0001:0000E6F0       Variants..EVariantBadIndexError
 0001:0000E754       Variants..EVariantArrayLockedError
 0001:0000E7BC       Variants..EVariantArrayCreateError
 0001:0000E824       Variants..EVariantNotImplError
 0001:0000E888       Variants..EVariantOutOfMemoryError
 0001:0000E8F0       Variants..EVariantUnexpectedError
 0001:0000E954       Variants..EVariantDispatchError
 0001:0000E9B8       Variants.VarCastError
 0001:0000EA0C       Variants.VarCastError
 0001:0000EAA8       Variants.VarInvalidOp
 0001:0000EAFC       Variants.VarOverflowError
 0001:0000EB98       Variants.VarArrayCreateError
 0001:0000EBEC       Variants.TranslateResult
 0001:0000EE40       Variants.VarResultCheck
 0001:0000EE4C       Variants.VarResultCheck
 0001:0000EE80       Variants.@DispInvokeError
 0001:0000EED4       Variants.InBounds
 0001:0000EF04       Variants.Increment
 0001:0000EF60       Variants.VarArrayClear
 0001:0000F0DC       Variants.VarClearDeep
 0001:0000F158       Variants.@VarClear
 0001:0000F16C       Variants.@VarClr
 0001:0000F174       Variants.InBounds
 0001:0000F1A4       Variants.Increment
 0001:0000F200       Variants.VarArrayCopyForEach
 0001:0000F3CC       Variants.VarCopyCopyProc
 0001:0000F3D4       Variants.VarCopyDeep
 0001:0000F480       Variants.@VarCopy
 0001:0000F4C4       Variants.CurrToWStrViaOS
 0001:0000F4FC       Variants.DateToWStrViaOS
 0001:0000F534       Variants.BoolToWStrViaOS
 0001:0000F5FC       Variants.VarToLStrViaOS
 0001:0000F6C8       Variants.VarToLStrAny
 0001:0000F72C       Variants.VarToLStrCustom
 0001:0000F7B4       Variants.@VarToLStr
 0001:0000FCF0       Variants.VarToWStrViaOS
 0001:0000FDA8       Variants.VarToWStrAny
 0001:0000FE0C       Variants.VarToWStrCustom
 0001:0000FED4       Variants.@VarToWStr
 0001:00010428       Variants.@VarFromLStr
 0001:00010454       Variants.@VarAddRef
 0001:000105D8       Variants.VarTypeAsText
 0001:00010748       Variants.SetVarAsError
 0001:00010760       Variants.SetClearVarToEmptyParam
 0001:00010790       Variants.ClearVariantTypeList
 0001:000107FC       Variants.TCustomVariantType.BinaryOp
 0001:00010808       Variants.TCustomVariantType.Cast
 0001:00010840       Variants.TCustomVariantType.CastTo
 0001:00010888       Variants.TCustomVariantType.Compare
 0001:00010894       Variants.TCustomVariantType.CompareOp
 0001:000108CC       Variants.TCustomVariantType.CastToOle
 0001:00010908       Variants.TCustomVariantType.Destroy
 0001:00010994       Variants.TCustomVariantType.IsClear
 0001:00010998       Variants.TCustomVariantType.LeftPromotion
 0001:000109AC       Variants.TCustomVariantType.OlePromotion
 0001:000109B4       Variants.TCustomVariantType.RaiseCastError
 0001:000109BC       Variants.TCustomVariantType.RaiseInvalidOp
 0001:000109C4       Variants.TCustomVariantType.RaiseDispError
 0001:000109CC       Variants.TCustomVariantType.RightPromotion
 0001:000109E0       Variants.TCustomVariantType.UnaryOp
 0001:000109E8       Variants.TCustomVariantType.DispInvoke
 0001:000109F4       Variants.TCustomVariantType._AddRef
 0001:00010A00       Variants.TCustomVariantType._Release
 0001:00010A0C       Variants.TCustomVariantType.QueryInterface
 0001:00010A34       Variants.FindCustomVariantType
 0001:00010AF0       Variants.Finalization
 0001:00010C14       TypInfo.GetTypeData
 0001:00010C20       TypInfo.GetEnumName
 0001:00010CF8       TypInfo.GetPropInfo
 0001:00010D68       TypInfo.GetOrdProp
 0001:00010DDC       TypInfo.GetShortStrProp
 0001:00010E20       TypInfo.GetShortStrPropAsLongStr
 0001:00010E48       TypInfo.AssignLongStr
 0001:00010E5C       TypInfo.GetLongStrProp
 0001:00010E9C       TypInfo.GetWideStrPropAsLongStr
 0001:00010EF4       TypInfo.GetStrProp
 0001:00010F34       TypInfo.GetWideStrProp
 0001:0001101C       TypInfo.GetMethodProp
 0001:0001105C       TypInfo.SetMethodProp
 0001:00011094       TypInfo.Finalization
 0001:000110E4       Classes..EStreamError
 0001:00011140       Classes..EFileStreamError
 0001:000111A0       Classes..EFCreateError
 0001:000111FC       Classes..EFOpenError
 0001:00011254       Classes..EFilerError
 0001:000112AC       Classes..EReadError
 0001:00011304       Classes..EWriteError
 0001:0001135C       Classes..EListError
 0001:000113B4       Classes..EStringListError
 0001:00011414       Classes..TList
 0001:00011478       Classes..TThreadList
 0001:000114D0       Classes..TPersistent
 0001:000115A4       Classes..TStrings
 0001:000116DC       Classes..TStringList
 0001:000117F4       Classes..TStream
 0001:00011864       Classes..THandleStream
 0001:000118DC       Classes..TFileStream
 0001:00011964       Classes..TCustomMemoryStream
 0001:000119E0       Classes..TMemoryStream
 0001:00011A5C       Classes..EThread
 0001:00011AB0       Classes..TThread
 0001:00011B0C       Classes.Rect
 0001:00011B34       Classes..TRegGroup
 0001:00011B8C       Classes..TRegGroups
 0001:00011BE4       Classes.TRegGroup.Create
 0001:00011C40       Classes.TRegGroup.Destroy
 0001:00011C80       Classes.PointerInModule
 0001:00011CA0       Classes.TRegGroup.UnregisterModuleClasses
 0001:00011D4C       Classes.TRegGroups.Create
 0001:00011DC0       Classes.TRegGroups.Destroy
 0001:00011E20       Classes.TRegGroups.Lock
 0001:00011E2C       Classes.TRegGroups.Unlock
 0001:00011E38       Classes.TRegGroups.UnregisterModuleClasses
 0001:00011E88       Classes.UnRegisterModuleClasses
 0001:00011ED4       Classes.TList.Destroy
 0001:00011EF4       Classes.TList.Add
 0001:00011F28       Classes.TList.Clear
 0001:00011F40       Classes.TList.Delete
 0001:00011FA4       Classes.ReturnAddr
 0001:00011FA8       Classes.TList.Error
 0001:00011FE0       Classes.TList.Error
 0001:00012034       Classes.TList.Get
 0001:0001205C       Classes.TList.Grow
 0001:00012090       Classes.TList.IndexOf
 0001:000120B0       Classes.TList.SetCapacity
 0001:000120EC       Classes.TList.SetCount
 0001:00012160       Classes.QuickSort
 0001:000121E4       Classes.TList.Sort
 0001:00012204       Classes.TList.Notify
 0001:00012208       Classes.TThreadList.Create
 0001:0001225C       Classes.TThreadList.Destroy
 0001:000122D8       Classes.TThreadList.LockList
 0001:000122EC       Classes.TThreadList.UnlockList
 0001:000122F8       Classes.TPersistent.Destroy
 0001:00012324       Classes.TPersistent.Assign
 0001:00012338       Classes.TPersistent.AssignError
 0001:00012408       Classes.TPersistent.AssignTo
 0001:00012410       Classes.TPersistent.DefineProperties
 0001:00012414       Classes.TPersistent.GetNamePath
 0001:000124C4       Classes.TPersistent.GetOwner
 0001:000124C8       Classes.TStrings.Destroy
 0001:000124F8       Classes.TStrings.Add
 0001:0001251C       Classes.TStrings.AddObject
 0001:00012540       Classes.TStrings.AddStrings
 0001:000125F8       Classes.TStrings.Assign
 0001:000126B0       Classes.TStrings.BeginUpdate
 0001:000126C8       Classes.DoWrite
 0001:00012720       Classes.TStrings.DefineProperties
 0001:0001276C       Classes.TStrings.EndUpdate
 0001:00012780       Classes.TStrings.Equals
 0001:00012828       Classes.ReturnAddr
 0001:0001282C       Classes.TStrings.Error
 0001:00012864       Classes.TStrings.Error
 0001:000128BC       Classes.TStrings.Exchange
 0001:000129A8       Classes.TStrings.ExtractName
 0001:00012A24       Classes.TStrings.GetCapacity
 0001:00012A2C       Classes.TStrings.GetName
 0001:00012A8C       Classes.TStrings.GetObject
 0001:00012A90       Classes.TStrings.GetText
 0001:00012AE4       Classes.TStrings.GetTextStr
 0001:00012C1C       Classes.TStrings.GetValue
 0001:00012CB4       Classes.TStrings.IndexOf
 0001:00012D40       Classes.TStrings.IndexOfName
 0001:00012E14       Classes.TStrings.IndexOfObject
 0001:00012E48       Classes.TStrings.InsertObject
 0001:00012E78       Classes.TStrings.LoadFromFile
 0001:00012ECC       Classes.TStrings.LoadFromStream
 0001:00012F78       Classes.TStrings.Move
 0001:00013028       Classes.TStrings.Put
 0001:00013058       Classes.TStrings.PutObject
 0001:0001305C       Classes.TStrings.ReadData
 0001:0001310C       Classes.TStrings.SaveToFile
 0001:00013164       Classes.TStrings.SaveToStream
 0001:000131C4       Classes.TStrings.SetCapacity
 0001:000131C8       Classes.TStrings.SetStringsAdapter
 0001:000131FC       Classes.TStrings.SetText
 0001:0001324C       Classes.TStrings.SetTextStr
 0001:000133F0       Classes.TStrings.SetUpdateState
 0001:000133F4       Classes.TStrings.SetValue
 0001:000134A8       Classes.TStrings.WriteData
 0001:0001352C       Classes.TStrings.GetLineBreak
 0001:00013560       Classes.TStrings.SetLineBreak
 0001:0001358C       Classes.TStrings.CompareStrings
 0001:000135D0       Classes.TStrings.GetNameValueSeparator
 0001:000135E8       Classes.TStrings.SetNameValueSeparator
 0001:00013604       Classes.TStringList.Destroy
 0001:00013660       Classes.TStringList.Add
 0001:00013670       Classes.TStringList.AddObject
 0001:000136D4       Classes.TStringList.Changed
 0001:000136F0       Classes.TStringList.Changing
 0001:0001370C       Classes.TStringList.Clear
 0001:0001374C       Classes.TStringList.Delete
 0001:000137B8       Classes.TStringList.Exchange
 0001:00013814       Classes.TStringList.ExchangeItems
 0001:00013838       Classes.TStringList.Find
 0001:000138BC       Classes.TStringList.Get
 0001:000138F0       Classes.TStringList.GetCapacity
 0001:000138F4       Classes.TStringList.GetCount
 0001:000138F8       Classes.TStringList.GetObject
 0001:00013920       Classes.TStringList.Grow
 0001:00013954       Classes.TStringList.IndexOf
 0001:00013990       Classes.TStringList.Insert
 0001:000139A0       Classes.TStringList.InsertObject
 0001:000139F4       Classes.TStringList.InsertItem
 0001:00013A70       Classes.TStringList.Put
 0001:00013ACC       Classes.TStringList.PutObject
 0001:00013B0C       Classes.TStringList.QuickSort
 0001:00013BA0       Classes.TStringList.SetCapacity
 0001:00013BBC       Classes.TStringList.SetSorted
 0001:00013BDC       Classes.TStringList.SetUpdateState
 0001:00013BF4       Classes.StringListCompareStrings
 0001:00013C14       Classes.TStringList.Sort
 0001:00013C24       Classes.TStringList.CustomSort
 0001:00013C5C       Classes.TStringList.CompareStrings
 0001:00013CE0       Classes.TStream.GetPosition
 0001:00013D00       Classes.TStream.SetPosition
 0001:00013D14       Classes.TStream.GetSize
 0001:00013D60       Classes.TStream.SetSize
 0001:00013D64       Classes.TStream.SetSize64
 0001:00013D78       Classes.TStream.SetSize
 0001:00013DCC       Classes.RaiseException
 0001:00013E18       Classes.TStream.Seek
 0001:00013E9C       Classes.TStream.Seek
 0001:00013F0C       Classes.TStream.ReadBuffer
 0001:00013F44       Classes.TStream.WriteBuffer
 0001:00013F7C       Classes.TStream.CopyFrom
 0001:00014070       Classes.THandleStream.Create
 0001:000140AC       Classes.THandleStream.Read
 0001:000140BC       Classes.THandleStream.Write
 0001:000140CC       Classes.THandleStream.Seek
 0001:000140F8       Classes.THandleStream.SetSize
 0001:0001410C       Classes.THandleStream.SetSize
 0001:00014134       Classes.TFileStream.Create
 0001:00014178       Classes.TFileStream.Create
 0001:000142EC       Classes.TFileStream.Destroy
 0001:00014320       Classes.TCustomMemoryStream.SetPointer
 0001:00014328       Classes.TCustomMemoryStream.Read
 0001:00014360       Classes.TCustomMemoryStream.Seek
 0001:00014384       Classes.TCustomMemoryStream.SaveToStream
 0001:0001439C       Classes.TCustomMemoryStream.SaveToFile
 0001:000143F4       Classes.TMemoryStream.Destroy
 0001:00014420       Classes.TMemoryStream.Clear
 0001:00014438       Classes.TMemoryStream.LoadFromStream
 0001:00014470       Classes.TMemoryStream.LoadFromFile
 0001:000144C4       Classes.TMemoryStream.SetCapacity
 0001:000144EC       Classes.TMemoryStream.SetSize
 0001:00014518       Classes.TMemoryStream.Realloc
 0001:00014598       Classes.TMemoryStream.Write
 0001:000145E8       Classes.RemoveFixupReferences
 0001:00014694       Classes.RemoveFixups
 0001:00014718       Classes.ReadError
 0001:00014730       Classes.PropValueError
 0001:0001473C       Classes.TReader.CheckValue
 0001:00014760       Classes.TReader.EndOfList
 0001:00014774       Classes.TReader.NextValue
 0001:00014784       Classes.TReader.Read
 0001:000147D0       Classes.TReader.ReadBuffer
 0001:0001480C       Classes.TReader.ReadListBegin
 0001:00014814       Classes.TReader.ReadListEnd
 0001:0001481C       Classes.TReader.ReadStr
 0001:00014858       Classes.TReader.ReadString
 0001:00014914       Classes.TReader.ReadWideString
 0001:000149F8       Classes.TReader.ReadValue
 0001:00014A0C       Classes.TReader.SkipSetBody
 0001:00014A54       Classes.SkipList
 0001:00014A7C       Classes.SkipBinary
 0001:00014AAC       Classes.SkipCollection
 0001:00014B08       Classes.TReader.SkipValue
 0001:00014CB8       Classes.TReader.SkipProperty
 0001:00014D00       Classes.TReader.SkipBytes
 0001:00014D48       Classes.TWriter.Write
 0001:00014D94       Classes.TWriter.WriteBuffer
 0001:00014DAC       Classes.TWriter.WriteListBegin
 0001:00014DB4       Classes.TWriter.WriteListEnd
 0001:00014DBC       Classes.TWriter.WriteMinStr
 0001:00014E68       Classes.TWriter.WriteString
 0001:00014EBC       Classes.TWriter.WriteValue
 0001:00014ED0       Classes.InitThreadSynchronization
 0001:00014F04       Classes.DoneThreadSynchronization
 0001:00014F1C       Classes.ResetSyncEvent
 0001:00014F28       Classes.WaitForSyncEvent
 0001:00014F44       Classes.SignalSyncEvent
 0001:00014F50       Classes.AddThread
 0001:00014F5C       Classes.RemoveThread
 0001:00014F68       Classes.CheckSynchronize
 0001:00015140       Classes.ThreadProc
 0001:000151E8       Classes.TThread.Create
 0001:000152B8       Classes.TThread.Destroy
 0001:0001532C       Classes.TThread.AfterConstruction
 0001:00015338       Classes.TThread.CheckThreadError
 0001:000153B4       Classes.TThread.CheckThreadError
 0001:000153CC       Classes.TThread.CallOnTerminate
 0001:000153E0       Classes.TThread.DoTerminate
 0001:000153F4       Classes.TThread.SetPriority
 0001:00015420       Classes.TThread.RemoveQueuedEvents
 0001:000154E0       Classes.TThread.Synchronize
 0001:0001567C       Classes.TThread.Synchronize
 0001:000156A4       Classes.TThread.Synchronize
 0001:000156E8       Classes.TThread.Resume
 0001:00015710       Classes.TThread.Terminate
 0001:00015718       Classes.TThread.WaitFor
 0001:000157BC       Classes.FreeIntConstList
 0001:00015828       Classes.ModuleUnload
 0001:00015830       Classes.Finalization
 0001:00018198       EConsts.Finalization
 0001:00018274       ECore..TEurekaExceptionsFilters
 0001:000182EC       ECore..TEurekaModuleOptions
 0001:00018478       ECore.ZeroComplete
 0001:000184BC       ECore.CompleteVersion
 0001:00018648       ECore.IsGreaterVersion
 0001:000186EC       ECore.Real_GetMainModuleFileName
 0001:000186FC       ECore.ExtractList
 0001:00018860       ECore.WideStringToUtf8
 0001:0001893C       ECore.StringToUtf8
 0001:00018A04       ECore.GetEnvVariable
 0001:00018B7C       ECore.ExpandEnvVars
 0001:00018C94       ECore.DotNetHostedFile
 0001:00018CBC       ECore.GetProfileFolder
 0001:00018D78       ECore.GetUserApplicationsPath
 0001:00018DC4       ECore.WindowsDir
 0001:00018DF4       ECore.GetEurekaLogDir
 0001:00018E58       ECore.IniDir
 0001:00018E78       ECore.ReadString
 0001:00018F90       ECore.WriteString
 0001:00019058       ECore.GetReadableSize
 0001:000190E0       ECore.IsValidBlockAddr
 0001:000190F8       ECore.ConvertAddress
 0001:00019130       ECore.GetModifiedDate
 0001:000191D4       ECore.GetLongNameFromShort
 0001:00019424       ECore.PosEx
 0001:000194C8       ECore.QuickStringReplace
 0001:000195F0       ECore.ExtractStringsEx
 0001:0001970C       ECore.ReadKey
 0001:0001982C       ECore.GetGMT
 0001:0001986C       ECore.IntoIDE
 0001:00019874       ECore.CheckIntoIDE
 0001:00019950       ECore.IncludeLastBackslash
 0001:00019A04       ECore.ExcludeLastBackslash
 0001:00019AA8       ECore.CheckDirectoryExists
 0001:00019ACC       ECore.ForceDirectoriesEx
 0001:00019BB4       ECore.IsWritableFile
 0001:00019C50       ECore.IsReadableFile
 0001:00019C88       ECore.IsFileOK
 0001:00019C98       ECore.GetWorkingFile
 0001:00019DEC       ECore.TEurekaExceptionsFilters.Add
 0001:00019E08       ECore.TEurekaExceptionsFilters.Assign
 0001:00019ECC       ECore.TEurekaExceptionsFilters.Clear
 0001:00019EF8       ECore.TEurekaExceptionsFilters.Create
 0001:00019F30       ECore.TEurekaExceptionsFilters.Delete
 0001:00019F60       ECore.TEurekaExceptionsFilters.Destroy
 0001:00019F8C       ECore.TEurekaExceptionsFilters.GetItem
 0001:00019FA0       ECore.TEurekaModuleOptions.Create
 0001:0001A058       ECore.TEurekaModuleOptions.Destroy
 0001:0001A08C       ECore.TEurekaModuleOptions.Assign
 0001:0001A454       ECore.TEurekaModuleOptions.GetCustomizedExpandedTexts
 0001:0001A470       ECore.TEurekaModuleOptions.SaveToFile
 0001:0001A4C8       ECore.WriteString
 0001:0001A5E4       ECore.TEurekaModuleOptions.SaveToStream
 0001:0001A9EC       ECore.TEurekaModuleOptions.LoadFromFile
 0001:0001AA40       ECore.BinToStr
 0001:0001AAD4       ECore.StrToBin
 0001:0001AB70       ECore.ReadString
 0001:0001ABF8       ECore.TEurekaModuleOptions.LoadFromStream
 0001:0001B96C       ECore.TEurekaModuleOptions.StoreSharedData
 0001:0001B970       ECore.TEurekaModuleOptions.LoadSharedData
 0001:0001B974       ECore.TEurekaModuleOptions.DisableSharedDataWrite
 0001:0001B978       ECore.TEurekaModuleOptions.EnableSharedDataWrite
 0001:0001B97C       ECore.TEurekaModuleOptions.SaveToSharedData
 0001:0001B994       ECore.TEurekaModuleOptions.SetToDefaultOptions
 0001:0001BE44       ECore.TEurekaModuleOptions.SetTrakerAssignTo
 0001:0001BE60       ECore.TEurekaModuleOptions.SetTrakerCategory
 0001:0001BE7C       ECore.TEurekaModuleOptions.SetTrakerPassword
 0001:0001BE98       ECore.TEurekaModuleOptions.SetTrakerProject
 0001:0001BEB4       ECore.TEurekaModuleOptions.SetTrakerTrialID
 0001:0001BED0       ECore.TEurekaModuleOptions.SetTrakerUserID
 0001:0001BEEC       ECore.TEurekaModuleOptions.SetCustomizedTexts
 0001:0001BF48       ECore.TEurekaModuleOptions.SetActive
 0001:0001BF54       ECore.TEurekaModuleOptions.SetFreezeActivate
 0001:0001BF60       ECore.TEurekaModuleOptions.SetErrorsNumberToSave
 0001:0001BF7C       ECore.TEurekaModuleOptions.SetModuleName
 0001:0001BF98       ECore.TEurekaModuleOptions.SetModuleHandle
 0001:0001BFA4       ECore.TEurekaModuleOptions.SetActivateHandle
 0001:0001BFB0       ECore.TEurekaModuleOptions.SetActivateLog
 0001:0001BFBC       ECore.TEurekaModuleOptions.SetAppendLogs
 0001:0001BFC8       ECore.TEurekaModuleOptions.SetEMailAddresses
 0001:0001BFE8       ECore.TEurekaModuleOptions.SetEMailMessage
 0001:0001C008       ECore.TEurekaModuleOptions.SetEMailSendMode
 0001:0001C014       ECore.TEurekaModuleOptions.SetEMailSubject
 0001:0001C034       ECore.TEurekaModuleOptions.SetErrorsNumberToShowTerminateBtn
 0001:0001C040       ECore.TEurekaModuleOptions.SetForegroundTab
 0001:0001C04C       ECore.TEurekaModuleOptions.SetFreezeTimeout
 0001:0001C058       ECore.TEurekaModuleOptions.SetLogOptions
 0001:0001C070       ECore.TEurekaModuleOptions.SetOutputPath
 0001:0001C090       ECore.TEurekaModuleOptions.SetPostFailureBuildEvent
 0001:0001C0AC       ECore.TEurekaModuleOptions.SetPostSuccessfulBuildEvent
 0001:0001C0C8       ECore.TEurekaModuleOptions.SetPreBuildEvent
 0001:0001C0E4       ECore.TEurekaModuleOptions.SetProxyPassword
 0001:0001C100       ECore.TEurekaModuleOptions.SetProxyPort
 0001:0001C10C       ECore.TEurekaModuleOptions.SetProxyURL
 0001:0001C128       ECore.TEurekaModuleOptions.SetProxyUserID
 0001:0001C144       ECore.TEurekaModuleOptions.SetReproduceText
 0001:0001C164       ECore.TEurekaModuleOptions.SetSaveLogFile
 0001:0001C170       ECore.TEurekaModuleOptions.SetShowOptions
 0001:0001C184       ECore.TEurekaModuleOptions.SetSMTPFrom
 0001:0001C1A0       ECore.TEurekaModuleOptions.SetSMTPHost
 0001:0001C1BC       ECore.TEurekaModuleOptions.SetSMTPPassword
 0001:0001C1D8       ECore.TEurekaModuleOptions.SetSMTPPort
 0001:0001C1E4       ECore.TEurekaModuleOptions.SetSMTPUserID
 0001:0001C200       ECore.TEurekaModuleOptions.SetTerminateBtnOperation
 0001:0001C20C       ECore.TEurekaModuleOptions.SetTextsCollection
 0001:0001C22C       ECore.TEurekaModuleOptions.SetWebSendMode
 0001:0001C238       ECore.TEurekaModuleOptions.SetWebURL
 0001:0001C258       ECore.TEurekaModuleOptions.SetWebPassword
 0001:0001C278       ECore.TEurekaModuleOptions.SetWebPort
 0001:0001C284       ECore.TEurekaModuleOptions.SetWebUserID
 0001:0001C2A4       ECore.TEurekaModuleOptions.SetZipPassword
 0001:0001C2C0       ECore.TEurekaModuleOptions.SetCommonSendOptions
 0001:0001C2D8       ECore.TEurekaModuleOptions.SetCompiledFileOptions
 0001:0001C2EC       ECore.TEurekaModuleOptions.SetAttachedFiles
 0001:0001C30C       ECore.TEurekaModuleOptions.SetExceptionDialogOptions
 0001:0001C324       ECore.TEurekaModuleOptions.SetExceptionDialogType
 0001:0001C330       ECore.TEurekaModuleOptions.SetAutoCloseDialogSecs
 0001:0001C33C       ECore.TEurekaModuleOptions.SetAutoCrashMinutes
 0001:0001C348       ECore.TEurekaModuleOptions.SetAutoCrashNumber
 0001:0001C354       ECore.TEurekaModuleOptions.SetAutoCrashOperation
 0001:0001C360       ECore.TEurekaModuleOptions.SetHTMLLayout
 0001:0001C380       ECore.TEurekaModuleOptions.SetSupportURL
 0001:0001C3A0       ECore.TEurekaModuleOptions.SetBehaviourOptions
 0001:0001C3B8       ECore.TEurekaModuleOptions.SetCallStackOptions
 0001:0001C3D0       ECore.TEurekaModuleOptions.OutputFile
 0001:0001C4CC       ECore.ComputerName
 0001:0001C554       ECore.TEurekaModuleOptions.OutputLogFile
 0001:0001C634       ECore.SafeExec
 0001:0001C810       ECore.Init
 0001:0001C81C       ECore.Done
 0001:0001C820       ECore.Finalization
 0001:0001C874       EDebug..TObjectListEx
 0001:0001C8E0       EDebug..TELModuleInfo
 0001:0001C93C       EDebug..TELLineInfo
 0001:0001C994       EDebug..TELSourceModuleInfo
 0001:0001C9F4       EDebug..TELSymbolInfo
 0001:0001CA54       EDebug..TELProcSymbolInfo
 0001:0001CAB8       EDebug..TELLocalProcSymbolInfo
 0001:0001CB20       EDebug..TELGlobalProcSymbolInfo
 0001:0001CB88       EDebug..TELObjNameSymbolInfo
 0001:0001CBF0       EDebug..TELDataSymbolInfo
 0001:0001CC54       EDebug..TELLDataSymbolInfo
 0001:0001CCB8       EDebug..TELGDataSymbolInfo
 0001:0001CD1C       EDebug..TELPublicSymbolInfo
 0001:0001CD80       EDebug..TELWithSymbolInfo
 0001:0001CDE4       EDebug..TELLabelSymbolInfo
 0001:0001CE48       EDebug..TELConstantSymbolInfo
 0001:0001CEB0       EDebug..TELUdtSymbolInfo
 0001:0001CF14       EDebug..TELVftPathSymbolInfo
 0001:0001CF7C       EDebug..TELTD32InfoParser
 0001:0001CFEC       EDebug..TELTD32InfoScanner
 0001:0001D05C       EDebug..TELPeBorTD32Image
 0001:0001D0BC       EDebug..TELAbstractMapParser
 0001:0001D13C       EDebug..TELMapScanner
 0001:0001D1B4       EDebug..TELBinDebugScanner
 0001:0001D24C       EDebug..TELDebugInfoSource
 0001:0001D2C0       EDebug..TELDebugInfoMap
 0001:0001D330       EDebug..TELDebugInfoJedy
 0001:0001D3A4       EDebug..TELDebugInfoTD32
 0001:0001D418       EDebug..THModuleStream
 0001:0001D494       EDebug.Max
 0001:0001D49C       EDebug.Min
 0001:0001D4A4       EDebug.SearchDynArray
 0001:0001D528       EDebug.SafeLoadFromFileToStream
 0001:0001D5E4       EDebug.TObjectListEx.Destroy
 0001:0001D630       EDebug.TELAbstractMapParser.Create
 0001:0001D690       EDebug.TELAbstractMapParser.Destroy
 0001:0001D6C4       EDebug.TELAbstractMapParser.MapStringToStr
 0001:0001D840       EDebug.SkipWhiteSpace
 0001:0001D864       EDebug.SkipEndLine
 0001:0001D884       EDebug.Eof
 0001:0001D898       EDebug.IsDecDigit
 0001:0001D8B0       EDebug.ReadTextLine
 0001:0001D8DC       EDebug.ReadDecValue
 0001:0001D90C       EDebug.ReadHexValue
 0001:0001D980       EDebug.ReadAddress
 0001:0001D9BC       EDebug.ReadString
 0001:0001D9EC       EDebug.FindParam
 0001:0001DA0C       EDebug.SyncToHeader
 0001:0001DAE8       EDebug.SyncToPrefix
 0001:0001DBC0       EDebug.TELAbstractMapParser.Parse
 0001:0001DE58       EDebug.TELMapScanner.Create
 0001:0001DEBC       EDebug.TELMapScanner.Destroy
 0001:0001DF14       EDebug.TELMapScanner.ClassTableItem
 0001:0001DF1C       EDebug.Search_MapLineNumber
 0001:0001DF24       EDebug.TELMapScanner.LineNumberFromAddr
 0001:0001DF90       EDebug.TELMapScanner.LineNumbersItem
 0001:0001E05C       EDebug.TELMapScanner.LineNumberUnitItem
 0001:0001E060       EDebug.TELMapScanner.ModuleNameFromAddr
 0001:0001E0B0       EDebug.TELMapScanner.ModuleStartFromAddr
 0001:0001E0EC       EDebug.Search_MapProcName
 0001:0001E0F4       EDebug.TELMapScanner.ProcNameFromAddr
 0001:0001E174       EDebug.TELMapScanner.PublicsByNameItem
 0001:0001E178       EDebug.TELMapScanner.PublicsByValueItem
 0001:0001E1D8       EDebug.TELMapScanner.Scan
 0001:0001E228       EDebug.TELMapScanner.SegmentItem
 0001:0001E290       EDebug.TELMapScanner.SourceNameFromAddr
 0001:0001E2F0       EDebug.SimpleCryptString
 0001:0001E33C       EDebug.DecodeNameString
 0001:0001E484       EDebug.TELBinDebugScanner.Create
 0001:0001E4DC       EDebug.TELBinDebugScanner.CacheLineNumbers
 0001:0001E59C       EDebug.TELBinDebugScanner.CacheProcNames
 0001:0001E69C       EDebug.TELBinDebugScanner.CheckFormat
 0001:0001E738       EDebug.TELBinDebugScanner.DataToStr
 0001:0001E768       EDebug.TELBinDebugScanner.LineNumberFromAddr
 0001:0001E85C       EDebug.TELBinDebugScanner.MakePtr
 0001:0001E868       EDebug.TELBinDebugScanner.ModuleNameFromAddr
 0001:0001E8D4       EDebug.TELBinDebugScanner.ModuleStartFromAddr
 0001:0001E92C       EDebug.TELBinDebugScanner.ProcNameFromAddr
 0001:0001EAD8       EDebug.TELBinDebugScanner.ReadValue
 0001:0001EB10       EDebug.TELBinDebugScanner.SourceNameFromAddr
 0001:0001EB9C       EDebug.TELDebugInfoSource.Create
 0001:0001EBD4       EDebug.TELDebugInfoSource.GetFileName
 0001:0001EC18       EDebug.TELDebugInfoSource.VAFromAddr
 0001:0001EC24       EDebug.TELDebugInfoMap.Destroy
 0001:0001EC58       EDebug.TELDebugInfoMap.GetLocationInfo
 0001:0001ED4C       EDebug.TELDebugInfoMap.InitializeSource
 0001:0001EDE0       EDebug.TELDebugInfoMap.ValidData
 0001:0001EDE8       EDebug.TELDebugInfoJedy.Destroy
 0001:0001EE28       EDebug.TELDebugInfoJedy.GetLocationInfo
 0001:0001EF1C       EDebug.PeMapImgSections
 0001:0001EF30       EDebug.PeMapImgFindSection
 0001:0001EF8C       EDebug.PeMapImgNtHeaders
 0001:0001EFD0       EDebug.PEInitialize
 0001:0001F008       EDebug.TELDebugInfoJedy.InitializeSource
 0001:0001F100       EDebug.TELDebugInfoJedy.ValidData
 0001:0001F114       EDebug.TELDebugInfoTD32.Destroy
 0001:0001F148       EDebug.TELDebugInfoTD32.GetLocationInfo
 0001:0001F244       EDebug.TELDebugInfoTD32.InitializeSource
 0001:0001F2A0       EDebug.TELDebugInfoTD32.ValidData
 0001:0001F2BC       EDebug.THModuleStream.Create
 0001:0001F308       EDebug.TELModuleInfo.Create
 0001:0001F3C4       EDebug.TELModuleInfo.GetSegment
 0001:0001F460       EDebug.TELLineInfo.Create
 0001:0001F4A8       EDebug.TELSourceModuleInfo.Create
 0001:0001F608       EDebug.TELSourceModuleInfo.Destroy
 0001:0001F63C       EDebug.TELSourceModuleInfo.GetLine
 0001:0001F650       EDebug.TELSourceModuleInfo.GetLineCount
 0001:0001F658       EDebug.TELSourceModuleInfo.GetSegment
 0001:0001F6EC       EDebug.TELSourceModuleInfo.FindLine
 0001:0001F78C       EDebug.TELSymbolInfo.Create
 0001:0001F840       EDebug.TELProcSymbolInfo.Create
 0001:0001F908       EDebug.TELObjNameSymbolInfo.Create
 0001:0001F9C8       EDebug.TELDataSymbolInfo.Create
 0001:0001FA90       EDebug.TELWithSymbolInfo.Create
 0001:0001FB58       EDebug.TELLabelSymbolInfo.Create
 0001:0001FC18       EDebug.TELConstantSymbolInfo.Create
 0001:0001FCE0       EDebug.TELUdtSymbolInfo.Create
 0001:0001FDA8       EDebug.TELVftPathSymbolInfo.Create
 0001:0001FE70       EDebug.TELTD32InfoParser.Create
 0001:0001FF94       EDebug.TELTD32InfoParser.Destroy
 0001:0001FFF0       EDebug.TELTD32InfoParser.Analyse
 0001:00020144       EDebug.TELTD32InfoParser.AnalyseNames
 0001:00020174       EDebug.TELTD32InfoParser.AnalyseAlignSymbols
 0001:00020314       EDebug.TELTD32InfoParser.AnalyseModules
 0001:00020338       EDebug.TELTD32InfoParser.AnalyseSourceModules
 0001:00020380       EDebug.TELTD32InfoParser.GetModule
 0001:00020394       EDebug.TELTD32InfoParser.GetModuleCount
 0001:0002039C       EDebug.TELTD32InfoParser.GetName
 0001:000203BC       EDebug.TELTD32InfoParser.GetSourceModule
 0001:000203D0       EDebug.TELTD32InfoParser.GetSourceModuleCount
 0001:000203D8       EDebug.TELTD32InfoParser.GetSymbol
 0001:000203EC       EDebug.TELTD32InfoParser.GetSymbolCount
 0001:000203F4       EDebug.TELTD32InfoParser.FindModule
 0001:000204AC       EDebug.TELTD32InfoParser.FindSourceModule
 0001:0002054C       EDebug.TELTD32InfoParser.FindProc
 0001:000205D4       EDebug.TELTD32InfoParser.IsTD32DebugInfoValid
 0001:000206AC       EDebug.TELTD32InfoParser.IsTD32Sign
 0001:000206C4       EDebug.TELTD32InfoParser.LfaToVa
 0001:000206CC       EDebug.TELTD32InfoScanner.LineNumberFromAddr
 0001:00020718       EDebug.TELTD32InfoScanner.ModuleNameFromAddr
 0001:00020750       EDebug.StringReplace
 0001:00020870       EDebug.FormatProcName
 0001:000209E0       EDebug.TELTD32InfoScanner.ProcNameFromAddr
 0001:00020A80       EDebug.TELTD32InfoScanner.SourceNameFromAddr
 0001:00020AB0       EDebug.TELPeBorTD32Image.Create
 0001:00020B0C       EDebug.TELPeBorTD32Image.Destroy
 0001:00020B48       EDebug.TELPeBorTD32Image.CheckDebugData
 0001:00020B98       EDebug.TELPeBorTD32Image.ClearDebugData
 0001:00020BBC       EDebug.GetImageNtHeaders
 0001:00020BC0       EDebug.TELPeBorTD32Image.IsDebugInfoInImage
 0001:00020C94       EDebug.ModuleFileName
 0001:00020CDC       EDebug.TELPeBorTD32Image.IsDebugInfoInTds
 0001:00020DE8       EDebug.AssignValidDebugInfo
 0001:00020E6C       EDebug.TELBinDebugScanner.Destroy
 0001:00020EAC       EDebug.Finalization
 0001:00020F48       ELeaks.UpperCase
 0001:00020F8C       ELeaks.ExtractFileName
 0001:00020FDC       ELeaks.IsObjectCreation
 0001:00020FFC       ELeaks.CallerOfReallocMem
 0001:00021010       ELeaks.GetReadableSize
 0001:00021098       ELeaks.IsValidBlockAddr
 0001:0002116C       ELeaks.IsValidSymbolName
 0001:00021184       ELeaks.IsValidClass
 0001:00021218       ELeaks.IsAParentClassStr
 0001:000212E4       ELeaks.ConvertAddress
 0001:00021320       ELeaks.LockCheck
 0001:0002132C       ELeaks.LockVariable
 0001:00021358       ELeaks.UnlockVariable
 0001:0002135C       ELeaks.GetFramesCallStackDump
 0001:000213D4       ELeaks.GetRawCallStackDump
 0001:0002142C       ELeaks.PurgeCallStack
 0001:0002162C       ELeaks.SetOurPointer
 0001:000216E8       ELeaks.CheckOurPointer
 0001:000217C8       ELeaks.HandleError
 0001:000217F8       ELeaks.IsAntiLeaksEnabled
 0001:00021800       ELeaks.GetDataCaller
 0001:00021814       ELeaks.GetObjectCaller
 0001:00021820       ELeaks.NewGetMem
 0001:0002188C       ELeaks.NewFreeMem
 0001:000218B8       ELeaks.NewReallocMem
 0001:00021928       ELeaks.FindNextValidLeak
 0001:00021938       ELeaks.IsALeakChild
 0001:000219A8       ELeaks.AreTheSameLeak
 0001:000219CC       ELeaks.FindLeakSons
 0001:00021A28       ELeaks.GetLeakCount
 0001:00021A74       ELeaks.FindLeakAddress
 0001:00021BB8       ELeaks.RemoveMemBlock
 0001:00021C98       ELeaks.FindLeakClassName
 0001:00021D24       ELeaks.PurgeInvalidLeaks
 0001:00021E24       ELeaks.RemoveExtraLeaks
 0001:00021E4C       ELeaks.Internal_ResetLeaks
 0001:00021E60       ELeaks.Internal_AddLeak
 0001:00021F10       ELeaks.Internal_ShowLeaks
 0001:00021F24       ELeaks.PurgeCallStacks
 0001:00021FAC       ELeaks.RemoveLeaksSons
 0001:00021FD4       ELeaks.FreeAllLeaks
 0001:00022004       ELeaks.CountAllLeaks
 0001:0002202C       ELeaks.HandleAnyLeak
 0001:000220B4       ELeaks.LeaksCheck
 0001:00022520       ELeaks.IsIntoIDE
 0001:000225FC       ELeaks.GetResourceData
 0001:00022644       ELeaks.GetRawOptions
 0001:000226E4       ELeaks.GetOptionsFromExeFile
 0001:00022734       ELeaks.Error
 0001:00022778       ELeaks.InitShareMem
 0001:0002286C       ELeaks.DoneShareMem
 0001:000228B4       ELeaks.ModuleName
 0001:0002293C       ELeaks.IsCompiledWithPackages
 0001:00022954       ELeaks.EnableMemoryLeaksCheck
 0001:00022AE0       ELeaks.DisableMemoryLeaksCheck
 0001:00022B00       ELeaks.Init
 0001:00022CCC       ELeaks.Done
 0001:00022D54       ELeaks.Finalization
 0001:00022D8C       EDisAsm..TDisAsm
 0001:000283E0       EDisAsm.SignedIntToHex
 0001:00028480       EDisAsm.ReadDWord
 0001:000284A0       EDisAsm.ReadWord
 0001:000284C0       EDisAsm.ReadByte
 0001:000284E0       EDisAsm.GetRefAddress
 0001:000285F4       EDisAsm.ModRM
 0001:00028620       EDisAsm.Sib
 0001:0002864C       EDisAsm.GetRegName
 0001:0002875C       EDisAsm.ReadSib
 0001:00028B3C       EDisAsm.GetEffectiveAddress
 0001:000290A8       EDisAsm.Operand
 0001:00029A68       EDisAsm.Replacer
 0001:00029D8C       EDisAsm.TDisAsm.GetInstruction
 0001:0002A134       EDisAsm.Finalization
 0001:0002A1D0       EHash.make_crc_table
 0001:0002A22C       EHash.GetCRC32
 0001:0002A274       EHash.GetCRC16
 0001:0002A2C0       EHash.LRot32
 0001:0002A2D8       EHash.Compress
 0001:0002AB94       EHash.GetMD5
 0001:0002ACCC       EListView..TListViewItems
 0001:0002AD4C       EListView.GetItemRect
 0001:0002AD74       EListView.DrawBmp
 0001:0002AFFC       EListView.ImageList_Create
 0001:0002B004       EListView.ImageList_Add
 0001:0002B00C       EListView.ImageList_Destroy
 0001:0002B014       EListView.TListViewItems.Create
 0001:0002B1D0       EListView.TListViewItems.Destroy
 0001:0002B268       EListView.TListViewItems.AddRow
 0001:0002B458       EListView.TListViewItems.InsertItem
 0001:0002B588       EListView.TListViewItems.DeleteItem
 0001:0002B59C       EListView.TListViewItems.RedrawItems
 0001:0002B5B0       EListView.ClickOnSign
 0001:0002B5F8       EListView.TListViewItems.ClickOnItem
 0001:0002B768       EListView.TListViewItems.Delete
 0001:0002B7AC       EListView.TListViewItems.Clear
 0001:0002B7D0       EListView.TListViewItems.GetItem
 0001:0002B7E4       EListView.TListViewItems.GetItemParam
 0001:0002B814       EListView.HandleBackgroundState
 0001:0002B888       EListView.DrawFrame
 0001:0002B8FC       EListView.DrawBottom
 0001:0002B950       EListView.DrawLine
 0001:0002B9A4       EListView.DrawItem
 0001:0002BDC4       EListView.TListViewItems.DrawList
 0001:0002BDEC       EListView.GetColumnCount
 0001:0002BE18       EListView.GetColumnAlign
 0001:0002BE74       EListView.TListViewItems.InitializeData
 0001:0002BF88       EListView.TListViewItems.SetRedrawState
 0001:0002BF9C       EEncrypt.XorBlock
 0001:0002BFC4       EEncrypt.SwapDWord
 0001:0002BFF8       EEncrypt.TEA_Encrypt
 0001:0002C0A8       EEncrypt.TEA_Decrypt
 0001:0002C158       EEncrypt.InitKey
 0001:0002C20C       EEncrypt.Decrypt
 0001:0002C2D0       EBase64.CalcEncodedSize
 0001:0002C2FC       EBase64.CalcDecodedSize
 0001:0002C334       EBase64.Base64Encode
 0001:0002C3F0       EBase64.Base64Decode
 0001:0002C484       EBase64.Base64EncodeStr
 0001:0002C4D4       EBase64.Base64DecodeStr
 0001:0002C538       EBase64.Base64EncodeString
 0001:0002C540       EBase64.Base64DecodeString
 0001:0002C548       EBase64.Base64EncodeToString
 0001:0002C57C       EXMLBuilder..TXMLItems
 0001:0002C5E4       EXMLBuilder..TXMLItem
 0001:0002C66C       EXMLBuilder.TXMLItems.AddItem
 0001:0002C698       EXMLBuilder.TXMLItems.Destroy
 0001:0002C6E8       EXMLBuilder.TXMLItems.GetItem
 0001:0002C6FC       EXMLBuilder.TXMLItem.AddField
 0001:0002C790       EXMLBuilder.TXMLItem.AddItem
 0001:0002C7A0       EXMLBuilder.TXMLItem.Create
 0001:0002C848       EXMLBuilder.TXMLItem.Destroy
 0001:0002C878       EXMLBuilder.TXMLItem.EncodedString
 0001:0002C9A0       EXMLBuilder.TXMLItem.AppendXMLText
 0001:0002CAD4       EXMLBuilder.TXMLItem.GetXMLText
 0001:0002CAF0       ELogManager..TLogFile
 0001:0002CB60       ELogManager..TLogItem
 0001:0002CBD8       ELogManager.NeedConvertNotDosText
 0001:0002CC18       ELogManager.ConvertNotDosText
 0001:0002CCE0       ELogManager.TLogFile.Create
 0001:0002CD8C       ELogManager.TLogFile.Destroy
 0001:0002CDBC       ELogManager.SearchNextItem
 0001:0002CE10       ELogManager.TLogFile.ParseBuffer
 0001:0002CF08       ELogManager.TLogFile.LoadFromStream
 0001:0002D064       ELogManager.TLogFile.SaveToStream
 0001:0002D138       ELogManager.TLogFile.Append
 0001:0002D1B8       ELogManager.ElaborateString
 0001:0002D334       ELogManager.SearchItem
 0001:0002D448       ELogManager.TLogFile.FindItem
 0001:0002D4F4       ELogManager.TLogFile.Save
 0001:0002D544       ELogManager.CompleteStr
 0001:0002D588       ELogManager.TLogFile.SetItemValue
 0001:0002D940       ELogManager.TLogFile.GetItemValue
 0001:0002DBC8       ELogManager.TLogFile.GetCount
 0001:0002DBD4       ELogManager.TLogFile.GetText
 0001:0002DBE8       ELogManager.TLogFile.SectionIndex
 0001:0002DC7C       ELogManager.TLogFile.GetItem_Generals
 0001:0002DD20       ELogManager.TLogFile.GetItem_CallStack
 0001:0002DDB8       ELogManager.TLogFile.GetItem_Modules
 0001:0002DEC0       ELogManager.TLogFile.GetItem_Processes
 0001:0002DFFC       ELogManager.TLogFile.GetItem_Assembler
 0001:0002E0E0       ELogManager.TLogFile.GetItem_CPU
 0001:0002E1F8       ELogManager.TLogFile.GetItem_Reproduce
 0001:0002E35C       ELogManager.AddValueField
 0001:0002E4DC       ELogManager.TLogFile.GetItem_GeneralsXML
 0001:0002E8E8       ELogManager.ExtractValue
 0001:0002E924       ELogManager.TestDecrypt
 0001:0002E95C       ELogManager.TLogFile.GetItem_CallStackXML
 0001:0002F2BC       ELogManager.TLogFile.GetItem_ModulesXML
 0001:0002F600       ELogManager.TLogFile.GetItem_ProcessesXML
 0001:0002F948       ELogManager.TLogFile.GetItem_AssemblerXML
 0001:0002FBD4       ELogManager.TLogFile.GetItem_CPUXML
 0001:00030180       ELogManager.TLogFile.GetItem_ReproduceXML
 0001:00030284       ELogManager.TLogFile.GetItem_XML
 0001:00030444       ELogManager.TLogFile.GetXML
 0001:000305A8       ELogManager.TLogFile.GetLogVersion
 0001:00030694       ELogManager.TLogFile.SaveXMLCopy
 0001:00030730       ELogManager.TLogItem.Create
 0001:00030768       ELogManager.TLogItem.Clear
 0001:00030780       ELogManager.TLogItem.AddHeader
 0001:000307F8       ELogManager.TLogItem.AddItem
 0001:00030A98       ELogManager.RemoveEmptySections
 0001:00030BE4       ELogManager.Spaces
 0001:00030C18       ELogManager.NormalizeSpaces
 0001:00030DFC       ELogManager.Lines
 0001:00030E30       ELogManager.NormalizeLines
 0001:0003100C       ELogManager.TLogItem.GetString
 0001:00031084       ELogManager.Finalization
 0001:000310F4       EWebTools..THTTPResponse
 0001:00031188       EWebTools..THTTPConnectionBase
 0001:00031230       EWebTools..THTTPSendReport
 0001:00031290       EWebTools..THTTPMantisSendReport
 0001:000312F8       EWebTools..THTTPBugzillaSendReport
 0001:00031360       EWebTools..THTTPFogBugzSendReport
 0001:000313C8       EWebTools.PurgeHTMLCode
 0001:00031408       EWebTools.ConvertSpecialHTMLChars
 0001:00031594       EWebTools.IsEnd
 0001:0003162C       EWebTools.GetTagValue
 0001:00031824       EWebTools.PurgeQuotes
 0001:00031890       EWebTools.GetFieldValue
 0001:00031A74       EWebTools.GetTextAreaValue
 0001:00031C88       EWebTools.GetOptionsValue
 0001:00031E90       EWebTools.GetListValue
 0001:0003200C       EWebTools.FindSelected
 0001:000320FC       EWebTools.GetOptionsDefault
 0001:00032220       EWebTools.GetListDefault
 0001:00032390       EWebTools.ParserHTML
 0001:000324A4       EWebTools.DoneLib
 0001:000324BC       EWebTools.InitLib
 0001:00032830       EWebTools.IsRealFile
 0001:0003284C       EWebTools.GetFileContents
 0001:000328B8       EWebTools.FindErrorMessage
 0001:000329C8       EWebTools.CheckError
 0001:00032A5C       EWebTools.AddAuthenticationToURL
 0001:00032B40       EWebTools.SearchWord
 0001:00032BE0       EWebTools.SearchPort
 0001:00032CB8       EWebTools.ElaborateURL
 0001:00032E2C       EWebTools.ElaborateWebPage
 0001:00032F04       EWebTools.GetHTTPResponse
 0001:00033054       EWebTools.URLEncode
 0001:00033128       EWebTools.GetValueFromIndex
 0001:000331C8       EWebTools.THTTPConnectionBase.Create
 0001:00033414       EWebTools.THTTPConnectionBase.Destroy
 0001:0003346C       EWebTools.THTTPConnectionBase.Open
 0001:000335A0       EWebTools.THTTPConnectionBase.Close
 0001:0003365C       EWebTools.GenerateMultipartBoundary
 0001:00033720       EWebTools.GenerateRequestBody
 0001:00033A24       EWebTools.THTTPConnectionBase.SendRequest
 0001:000343D4       EWebTools.THTTPConnectionBase.SetRequest
 0001:00034404       EWebTools.THTTPConnectionBase.AddCustomFields
 0001:000344BC       EWebTools.THTTPConnectionBase.AddField
 0001:00034528       EWebTools.THTTPConnectionBase.AddFieldValue
 0001:000345AC       EWebTools.THTTPConnectionBase.AddOptionalField
 0001:00034608       EWebTools.THTTPConnectionBase.AddFieldByTextArea
 0001:0003468C       EWebTools.THTTPConnectionBase.AddFieldByDefaultList
 0001:0003471C       EWebTools.THTTPConnectionBase.AddFieldByDefaultList2
 0001:000347B4       EWebTools.THTTPConnectionBase.AddFieldByListTitle
 0001:0003487C       EWebTools.CompleteNumber
 0001:00034924       EWebTools.THTTPConnectionBase.GetBugCountField
 0001:00034AB0       EWebTools.THTTPConnectionBase.IsSuccessfulSend
 0001:00034B7C       EWebTools.THTTPConnectionBase.AddBugSummary
 0001:00034C20       EWebTools.THTTPConnectionBase.AddSearchText
 0001:00034CAC       EWebTools.THTTPMantisSendReport.PostBug
 0001:000359A4       EWebTools.THTTPBugzillaSendReport.PostBug
 0001:00036A90       EWebTools.THTTPFogBugzSendReport.PostBug
 0001:00037958       EWebTools.SendWebTrakerReport
 0001:000379F0       EWebTools.SimpleCheckError
 0001:00037A08       EWebTools.SetProxyServer
 0001:00037A74       EWebTools.SetProxyAuthenticationData
 0001:00037A98       EWebTools.GenerateMultipartBoundary
 0001:00037B5C       EWebTools.GetFileContents
 0001:00037BC8       EWebTools.GenerateRequestBody
 0001:00037E88       EWebTools.GetHTTPResponse
 0001:00037F40       EWebTools.OpenRequest
 0001:00038140       EWebTools.HTTPUploadFiles
 0001:00038618       EWebTools.GetFileSize
 0001:00038654       EWebTools.FTPUploadFiles
 0001:00038AD4       EWebTools.THTTPSendReport.Create
 0001:00038B10       EWebTools.THTTPSendReport.SetHTTPConnectionClass
 0001:00038B14       EWebTools.THTTPResponse.Assign
 0001:00038BF0       EWebTools.THTTPResponse.Clear
 0001:00038C28       EWebTools.Finalization
 0001:00038CFC       EZlib2..EZLibError
 0001:00038D54       EZlib2.zcalloc
 0001:00038D60       EZlib2.zcfree
 0001:00038D68       EZlib2.InflateInit
 0001:00038D80       EZlib2.ZCheck
 0001:00038DEC       EZlib2.ZDecompress
 0001:00038F00       EZlib2._memset
 0001:00038F14       EZlib2._memcpy
 0001:00038F28       EZlib2._malloc
 0001:00038F38       EZlib2._free
 0001:00038F48       EZlib2._time
 0001:00038F54       EZlib2._rand
 0001:00038F60       EZlib2._srand
 0001:00038F70       EZlib2._fopen
 0001:00038FB8       EZlib2._ftell
 0001:00038FFC       EZlib2._fwrite
 0001:0003904C       EZlib2._fread
 0001:000390BC       EZlib2._fclose
 0001:0003911C       EZlib2._fseek
 0001:00039188       EZlib2._strlen
 0001:000391E8       EZlib2.GetModifiedDate
 0001:000392EC       EZlib2.CreateZipFile
 0001:00039348       EZlib2.GetFileSize
 0001:00039384       EZlib2.AddZipFile
 0001:00039548       EZlib2.CloseZipFile
 0001:00039570       EZlib2...
 0001:00039FC0       EZlib2.zipOpen
 0001:00039FCC       EZlib2.zipOpenNewFileInZip3
 0001:0003A5DC       EZlib2.zipWriteInFileInZip
 0001:0003A8B8       EZlib2.zipCloseFileInZip
 0001:0003A8C4       EZlib2.zipClose
 0001:0003AA84       EZlib2...
 0001:0003AB50       EZlib2.@fill_fopen_filefunc
 0001:0003AB88       EZlib2.adler32
 0001:0003AE90       EZlib2...
 0001:0003AF44       EZlib2.compressBound
 0001:0003AF58       EZlib2...
 0001:0003B088       EZlib2.@get_crc_table
 0001:0003B09C       EZlib2.crc32
 0001:0003B8E8       EZlib2.deflateInit_
 0001:0003B904       EZlib2.@deflateInit2_
 0001:0003BED4       EZlib2.deflate
 0001:0003C198       EZlib2.deflateEnd
 0001:0003CA40       EZlib2.@inflate_fast
 0001:0003CF3C       EZlib2.inflateReset
 0001:0003CFF8       EZlib2.@inflateInit2_
 0001:0003D0C4       EZlib2.inflateInit_
 0001:0003D2FC       EZlib2.inflate
 0001:0003E1B4       EZlib2.inflateEnd
 0001:0003E550       EZlib2.@inflate_table
 0001:0003E9C0       EZlib2...
 0001:0003E9C4       EZlib2.@_tr_init
 0001:0003FB04       EZlib2.@_tr_stored_block
 0001:0003FBC0       EZlib2.@_tr_align
 0001:0003FE8C       EZlib2.@_tr_flush_block
 0001:00040804       EZip..TZipWriter
 0001:00040870       EZip.TZipWriter.Create
 0001:000408C0       EZip.TZipWriter.AddFile
 0001:000408F0       EZip.TZipWriter.Destroy
 0001:00040920       WinSock.closesocket
 0001:00040928       WinSock.connect
 0001:00040930       WinSock.htons
 0001:00040938       WinSock.inet_addr
 0001:00040940       WinSock.ioctlsocket
 0001:00040948       WinSock.recv
 0001:00040950       WinSock.send
 0001:00040958       WinSock.socket
 0001:00040960       WinSock.gethostbyname
 0001:00040968       WinSock.gethostname
 0001:00040970       WinSock.WSAAsyncSelect
 0001:00040978       WinSock.WSAGetLastError
 0001:00040980       WinSock.WSAStartup
 0001:00040988       WinSock.WSACleanup
 0001:00040990       ESockets..TEurekaClientSocket
 0001:00040A1C       ESockets..TEurekaClientSMTP
 0001:00040A84       ESockets..EEurekaSocketError
 0001:00040AE4       ESockets.InternalStartup
 0001:00040B14       ESockets.InternalCleanup
 0001:00040B28       ESockets.TEurekaClientSocket.LookupName
 0001:00040B88       ESockets.TEurekaClientSocket.Error
 0001:00040D1C       ESockets.TEurekaClientSocket.Create
 0001:00040DB4       ESockets.TEurekaClientSocket.Destroy
 0001:00040DE8       ESockets.TEurekaClientSocket.Close
 0001:00040EB0       ESockets.TEurekaClientSocket.Open
 0001:000410A0       ESockets.TEurekaClientSocket.SendBuf
 0001:00041170       ESockets.TEurekaClientSocket.SendText
 0001:00041238       ESockets.TEurekaClientSocket.ReceiveBuf
 0001:00041320       ESockets.TEurekaClientSocket.ReceiveText
 0001:00041408       ESockets.TEurekaClientSocket.GetFullText
 0001:00041440       ESockets.TEurekaClientSocket.ReceiveFullText
 0001:00041494       ESockets.TEurekaClientSMTP.Open
 0001:000414D8       ESockets.TEurekaClientSMTP.GetText
 0001:000415BC       ESockets.TEurekaClientSMTP.SendCommand
 0001:000416E0       ESockets.IsValidDNS
 0001:00041748       ESockets.AddDNS
 0001:0004176C       ESockets.GetDNSList
 0001:0004190C       ESockets.StrToWord
 0001:00041924       ESockets.GetDomain
 0001:00041AA8       ESockets.GetDomainName
 0001:00041BA8       ESockets.CreateMXQuery
 0001:00041C30       ESockets.GetMXRecord
 0001:00041CF8       ESockets.GetMXBestRecord
 0001:00041DF0       ESockets.GetMXServerFromEmail
 0001:0004200C       ESockets.Init
 0001:00042014       ESockets.Done
 0001:0004201C       ESockets.Finalization
 0001:00042074       ELang.TranslateCharsetInfo
 0001:0004207C       ELang.UserCharSet
 0001:00042124       EHook..EHookError
 0001:0004217C       EHook..EProcNull
 0001:000421D4       EHook..EHookingError
 0001:00042230       EHook..ESharedArea
 0001:000422AC       EHook..THookedMethodsList
 0001:0004231C       EHook.THookedMethodsList.Create
 0001:0004235C       EHook.THookedMethodsList.GetItem
 0001:00042370       EHook.THookedMethodsList.Lock
 0001:0004237C       EHook.THookedMethodsList.Unlock
 0001:00042388       EHook.THookedMethodsList.Delete
 0001:000423B0       EHook.THookedMethodsList.Destroy
 0001:00042458       EHook.GetVirtualMethod
 0001:00042464       EHook.SetVirtualMethod
 0001:000424AC       EHook.HookVirtualMethod
 0001:000425A0       EHook.UnhookVirtualMethod
 0001:00042664       EHook.WriteMem
 0001:000426A4       EHook.JumpToMem
 0001:000426C4       EHook.ModuleFileName
 0001:000426F4       EHook.AddrSize
 0001:00042708       EHook.SIDSize
 0001:00042720       EHook.ModRMByte
 0001:00042860       EHook.GetAsmSize
 0001:00042994       EHook.GetFunctionSize
 0001:00042A4C       EHook.CalculateRelocatedAsmSize
 0001:00042B00       EHook.RelocateMemory
 0001:00042CAC       EHook.HookProcedure
 0001:00042DBC       EHook.HookProcedureEx
 0001:00042F8C       EHook.UnhookProcedure
 0001:00043008       EHook.IsWin9xDebugThunk
 0001:0004301C       EHook.PeMapImgNtHeaders
 0001:00043068       EHook.CheckFail
 0001:000430CC       EHook.HookDllProcedure
 0001:000433D4       EHook.TryHookDllProcedureEx
 0001:00043520       EHook.Init
 0001:00043554       EHook.Done
 0001:000435FC       EHook.Finalization
 0001:00043650       ShellAPI.ShellExecuteA
 0001:000436FC       ExceptionLog..TEurekaStackList
 0001:0004376C       ExceptionLog..TEurekaModulesList
 0001:000437DC       ExceptionLog..TEurekaProcessesList
 0001:00043850       ExceptionLog..TEurekaFunctionsList
 0001:000438F0       ExceptionLog..EFrozenApplication
 0001:00043950       ExceptionLog..EMemoryLeak
 0001:000439A8       ExceptionLog..EMemoryOverrun
 0001:00043A04       ExceptionLog..EMultiFree
 0001:00043B20       ExceptionLog..THModuleStream
 0001:00043B9C       ExceptionLog..TEurekaThreadsList
 0001:00043C0C       ExceptionLog..TSafeObject
 0001:00043C98       ExceptionLog..TExceptionThread
 0001:00043D10       ExceptionLog..TFreezeThread
 0001:00043D78       ExceptionLog..TEurekaModuleOptionsEx
 0001:00043E04       ExceptionLog..TSendDialogThread
 0001:00043E6C       ExceptionLog..TSendObject
 0001:00043EC4       ExceptionLog..TSendThread
 0001:00043F24       ExceptionLog..TEurekaLogList
 0001:00043F90       ExceptionLog..TIdThread9
 0001:00044004       ExceptionLog..TIdThread10
 0001:00044080       ExceptionLog..THTTPConnection
 0001:000440E8       ExceptionLog..TActiveXException
 0001:00044194       ExceptionLog.FirstProc
 0001:00044198       ExceptionLog.TActiveXException.Destroy
 0001:000441C8       ExceptionLog.CheckMagicCode
 0001:000441DC       ExceptionLog.FindHandled
 0001:000442E4       ExceptionLog.SetItem
 0001:0004433C       ExceptionLog.InsertHandled
 0001:00044438       ExceptionLog.ModuleFileName
 0001:00044550       ExceptionLog.IsValidModule
 0001:0004459C       ExceptionLog.Real_GetCommandLine
 0001:000445B0       ExceptionLog.Real_GetCurrentProcess
 0001:000445B8       ExceptionLog.Real_GetCurrentProcessID
 0001:000445C0       ExceptionLog.Real_GetCurrentModuleFileName
 0001:000445D4       ExceptionLog.TEurekaLogList.GetItem
 0001:000445E8       ExceptionLog.ifelseStr
 0001:00044660       ExceptionLog.ifStr
 0001:000446B4       ExceptionLog.TempPath
 0001:000446E0       ExceptionLog.OneString
 0001:00044798       ExceptionLog.CompleteStr
 0001:000447DC       ExceptionLog.SimpleWord
 0001:00044824       ExceptionLog.GetCompleteTimeStr
 0001:00044AE4       ExceptionLog.Load
 0001:00044B30       ExceptionLog.RTF_LoadFromStream
 0001:00044B5C       ExceptionLog.RTF_LoadFromText
 0001:00044C14       ExceptionLog.SetRTFBackColor
 0001:00044C3C       ExceptionLog.TextToRTF
 0001:00044D54       ExceptionLog.GeneralToRTF
 0001:000451D4       ExceptionLog.AssemblerToRTF
 0001:00045570       ExceptionLog.CPUToRTF
 0001:00045B74       ExceptionLog.IsWin95
 0001:00045B90       ExceptionLog.IsWinNT4
 0001:00045BAC       ExceptionLog.IsWinVista
 0001:00045BC8       ExceptionLog.IsWin64
 0001:00045C20       ExceptionLog.IsWorkstation
 0001:00045C60       ExceptionLog.GetOSType
 0001:00046080       ExceptionLog.GetOSBuild
 0001:000460B4       ExceptionLog.ComputerName
 0001:000460E8       ExceptionLog.UserName
 0001:0004611C       ExceptionLog.UserFullName
 0001:00046268       ExceptionLog.TextToHtml
 0001:00046460       ExceptionLog.SetEventAddr
 0001:000464B4       ExceptionLog.IsDebugged
 0001:00046524       ExceptionLog.IsValidHandle
 0001:00046584       ExceptionLog.IsValidRunningThread
 0001:000465B4       ExceptionLog.IsCompatibleVersion
 0001:000465E4       ExceptionLog.ObjectInstanceSize
 0001:000465F8       ExceptionLog.CloneObject
 0001:0004662C       ExceptionLog.FreeClonedObject
 0001:0004664C       ExceptionLog.GetCurrentTopOfStack
 0001:00046654       ExceptionLog.IsValidSymbolName
 0001:0004666C       ExceptionLog.StandardIsValidClass
 0001:000466F8       ExceptionLog.IsValidClass
 0001:0004680C       ExceptionLog.IsValidObject
 0001:00046860       ExceptionLog.ObjectName
 0001:0004689C       ExceptionLog.SetLastThreadException
 0001:00046930       ExceptionLog.IsAParentClassStr
 0001:00046A18       ExceptionLog.IsAParentStr
 0001:00046A40       ExceptionLog.IsAParent
 0001:00046AB0       ExceptionLog.IsAParents
 0001:00046B04       ExceptionLog.IsAParentClassStr_Unsafe
 0001:00046BE4       ExceptionLog.IsAParentStr_Unsafe
 0001:00046C00       ExceptionLog.IsManageableObject
 0001:00046C38       ExceptionLog.CreateVirtualFile
 0001:00046DA4       ExceptionLog.DeleteVirtualFile
 0001:00046DD4       ExceptionLog.StoreSharedDataEx
 0001:00046EA4       ExceptionLog.LoadSharedDataEx
 0001:00046F78       ExceptionLog.RFCDate
 0001:0004734C       ExceptionLog.GetOutOfMemoryCache
 0001:00047368       ExceptionLog.FreeOutOfMemoryCache
 0001:00047384       ExceptionLog.IsDelphiException
 0001:00047398       ExceptionLog.GetESP
 0001:000473A0       ExceptionLog.GetTopOfStack
 0001:000473A8       ExceptionLog.GetCallStackDump
 0001:000476C0       ExceptionLog.ExceptionLine
 0001:00047844       ExceptionLog.InternalCriticalError
 0001:00047FC0       ExceptionLog.SetInternalError
 0001:0004810C       ExceptionLog.ClearInternalError
 0001:00048120       ExceptionLog.SetErrorType
 0001:0004821C       ExceptionLog.HasWindowASize
 0001:00048258       ExceptionLog.GetWindowClassName
 0001:000482A4       ExceptionLog.IsApplicationWindow
 0001:00048314       ExceptionLog.IsMainWindow
 0001:000483B4       ExceptionLog.EnumWindowsProc
 0001:000483EC       ExceptionLog.GetMainWindow
 0001:0004840C       ExceptionLog.GetWindowName
 0001:00048458       ExceptionLog.EnumWindowsProc
 0001:000484E8       ExceptionLog.IsDelphiProcess
 0001:00048510       ExceptionLog.EnumWindowsProc
 0001:00048588       ExceptionLog.GetApplicationRect
 0001:000485F4       ExceptionLog.IsCurrentProcessWindow
 0001:0004860C       ExceptionLog.IsANewProcessWindow
 0001:00048624       ExceptionLog.EnumWindowsProc
 0001:00048654       ExceptionLog.PopulateCurrentProcessWindows
 0001:00048670       ExceptionLog.SetClipboardText
 0001:00048758       ExceptionLog.KillApplication
 0001:0004882C       ExceptionLog.THModuleStream.Create
 0001:00048874       ExceptionLog.THModuleStream.Destroy
 0001:000488A4       ExceptionLog.THModuleStream.SecureRead
 0001:000488E0       ExceptionLog.Real_FindHInstance
 0001:000488E8       ExceptionLog.ModuleInfoByHandle
 0001:000489A4       ExceptionLog.ModuleInfoByAddr
 0001:000489B8       ExceptionLog.IsModuleLibrary
 0001:00048A98       ExceptionLog.FindModuleType
 0001:00048C5C       ExceptionLog.GetModulePath
 0001:00048D4C       ExceptionLog.GetModuleSize
 0001:00048DDC       ExceptionLog.GetModuleVer
 0001:00048E7C       ExceptionLog.GetModuleDescriptionAndVersion
 0001:00049124       ExceptionLog.PriorityToString
 0001:00049228       ExceptionLog.GetProcessThreads
 0001:00049260       ExceptionLog.GetVersionNumber
 0001:000492B4       ExceptionLog.GetFileSize
 0001:000492E8       ExceptionLog.DeleteFileEx
 0001:00049364       ExceptionLog.CompareModulesFunctions
 0001:0004936C       ExceptionLog.GetModulesWinNT
 0001:000494D0       ExceptionLog.GetModulesWin9X
 0001:00049660       ExceptionLog.GetModulesList
 0001:000496F0       ExceptionLog.CompareProcessesFunctions
 0001:000496F8       ExceptionLog.FindProcess
 0001:00049778       ExceptionLog.GetAllocatedMemory
 0001:000497AC       ExceptionLog.FillThreadsCount
 0001:0004989C       ExceptionLog.AddNewProcess
 0001:00049A08       ExceptionLog.RealPriority
 0001:00049A54       ExceptionLog.FindFullPath
 0001:00049C6C       ExceptionLog.AddNewProcessEx
 0001:00049DC8       ExceptionLog.BuildListTH
 0001:00049F04       ExceptionLog.BuildListPS
 0001:00049F64       ExceptionLog.GetProcessesList
 0001:0004A130       ExceptionLog.GetParentProcessID
 0001:0004A284       ExceptionLog.ModuleInitTable
 0001:0004A294       ExceptionLog.LogicToPhysicAddr
 0001:0004A2A0       ExceptionLog.IsConsoleApp
 0001:0004A2AC       ExceptionLog.IsCGI
 0001:0004A2E0       ExceptionLog.InternalFileExists
 0001:0004A354       ExceptionLog.IsWinCGI
 0001:0004A4AC       ExceptionLog.IsISAPI
 0001:0004A4E8       ExceptionLog.IsIntraWeb
 0001:0004A4F4       ExceptionLog.IsWeb
 0001:0004A520       ExceptionLog.IsGUI
 0001:0004A538       ExceptionLog.WriteHTMLToWeb
 0001:0004A954       ExceptionLog.CreateHTMLByLayout
 0001:0004ABE4       ExceptionLog.GenerateHTML
 0001:0004AD08       ExceptionLog.DirectoryExists
 0001:0004AD2C       ExceptionLog.CreateTemplateFile
 0001:0004ADFC       ExceptionLog.WriteTextToIntraWeb
 0001:0004B224       ExceptionLog.VersionWorkAround
 0001:0004B24C       ExceptionLog.IsLocalStorageProc
 0001:0004B26C       ExceptionLog.IsStackFramesProc
 0001:0004B29C       ExceptionLog.IsRTLCompiledWithStackFrames
 0001:0004B2A8       ExceptionLog.IsCompiledWithPackages
 0001:0004B2BC       ExceptionLog.ExceptionTypeByAddr
 0001:0004B308       ExceptionLog.Is_HandleOnException_Handled
 0001:0004B3B0       ExceptionLog.GetResourceData
 0001:0004B3F8       ExceptionLog.ReadEncodeString
 0001:0004B59C       ExceptionLog.CheckForResult
 0001:0004B6F4       ExceptionLog.GetSourceInfoByAddr
 0001:0004BEE8       ExceptionLog.GetSymbolAddr
 0001:0004C05C       ExceptionLog.ExtractStr
 0001:0004C238       ExceptionLog.GetDebugPartialInfo
 0001:0004C458       ExceptionLog.GetAndSetFunctionSize
 0001:0004C478       ExceptionLog.FindFunction
 0001:0004C540       ExceptionLog.ExtractDebugData
 0001:0004C838       ExceptionLog.GetDebugInfosByAddr
 0001:0004C8E0       ExceptionLog.OpenLogFile
 0001:0004C9AC       ExceptionLog.CloseLogFile
 0001:0004C9C8       ExceptionLog.CalcDuplicatedException
 0001:0004CB1C       ExceptionLog.GetRealFileName
 0001:0004CC48       ExceptionLog.SavedScreenshot
 0001:0004CCC8       ExceptionLog.TmpScreenshot
 0001:0004CCE8       ExceptionLog.TmpLogFileName
 0001:0004CD68       ExceptionLog.TmpZIPFileName
 0001:0004CDD0       ExceptionLog.TmpOptionsFileName
 0001:0004CE70       ExceptionLog.RealTmpLastHTMLPage
 0001:0004CEF4       ExceptionLog.TmpLastHTMLPage
 0001:0004CF14       ExceptionLog.TmpXMLLogCopy
 0001:0004CFCC       ExceptionLog.CreateHTMLFile
 0001:0004D098       ExceptionLog.CreateXMLLogCopy
 0001:0004D18C       ExceptionLog.LoadTextFile
 0001:0004D224       ExceptionLog.FillAttachedList
 0001:0004D344       ExceptionLog.SetLastExceptionObject
 0001:0004D34C       ExceptionLog.GetModule_ProcedureEvent
 0001:0004D3A0       ExceptionLog.CallModuleEvent_ExceptionNotify
 0001:0004D3F0       ExceptionLog.CallExceptionNotify
 0001:0004D45C       ExceptionLog.CallExceptionNotifyEvents
 0001:0004D468       ExceptionLog.CallModuleEvent_HandledExceptionNotify
 0001:0004D4C0       ExceptionLog.CallHandledExceptionNotify
 0001:0004D52C       ExceptionLog.CallHandledExceptionNotifyEvents
 0001:0004D538       ExceptionLog.CallModuleEvent_ExceptionActionNotify
 0001:0004D5E8       ExceptionLog.CallExceptionActionNotify
 0001:0004D6B0       ExceptionLog.CallModuleEvent_ExceptionErrorNotify
 0001:0004D75C       ExceptionLog.CallExceptionErrorNotify
 0001:0004D824       ExceptionLog.CallPasswordRequest
 0001:0004D890       ExceptionLog.CallModuleEvent_CustomDataRequest
 0001:0004D8E4       ExceptionLog.CallCustomDataRequest
 0001:0004D954       ExceptionLog.CallCustomDataRequestEvents
 0001:0004D960       ExceptionLog.CallModuleEvent_AttachedFilesRequest
 0001:0004D9B4       ExceptionLog.CallAttachedFilesRequest
 0001:0004DA24       ExceptionLog.CallAttachedFilesRequestEvents
 0001:0004DA30       ExceptionLog.CallModuleEvent_CustomWebFieldsRequest
 0001:0004DA88       ExceptionLog.CallCustomWebFieldsRequest
 0001:0004DAF8       ExceptionLog.CallCustomWebFieldsRequestEvents
 0001:0004DB04       ExceptionLog.CallModuleEvent_CustomButtonClickNotify
 0001:0004DB58       ExceptionLog.CallCustomButtonClickEvent
 0001:0004DBC4       ExceptionLog.CallCustomButtonClickEvents
 0001:0004DBD0       ExceptionLog.CallModuleEvent_PasswordRequest
 0001:0004DCB8       ExceptionLog.MappedExceptionObject
 0001:0004DD8C       ExceptionLog.SaveGlobalExceptionRecord
 0001:0004DE54       ExceptionLog.RestoreGlobalExceptionRecord
 0001:0004DEC4       ExceptionLog.CopyStrings
 0001:0004DF48       ExceptionLog.EurekaLog_PasswordRequestEvent
 0001:0004DF8C       ExceptionLog.EurekaLog_PasswordRequestEventEx
 0001:0004E05C       ExceptionLog.EurekaLog_ExceptionNotifyEvent
 0001:0004E104       ExceptionLog.EurekaLog_HandledExceptionNotifyEvent
 0001:0004E1AC       ExceptionLog.EurekaLog_ExceptionActionNotifyEvent
 0001:0004E250       ExceptionLog.EurekaLog_ExceptionErrorNotifyEvent
 0001:0004E2F4       ExceptionLog.EurekaLog_CustomDataRequestEventEx
 0001:0004E398       ExceptionLog.EurekaLog_AttachedFilesRequestEvent
 0001:0004E43C       ExceptionLog.EurekaLog_CustomWebFieldsRequestEvent
 0001:0004E4E0       ExceptionLog.EurekaLog_CustomButtonClickEvent
 0001:0004E588       ExceptionLog.CanExit
 0001:0004E594       ExceptionLog.SynchronizeEvent
 0001:0004E648       ExceptionLog.RoundMatch
 0001:0004E660       ExceptionLog.RoundMatchPtr
 0001:0004E668       ExceptionLog.HookSymbolProcedure
 0001:0004E700       ExceptionLog.HookBPLProcedureByAddr
 0001:0004E774       ExceptionLog.HookBPLProcedureBySymbol
 0001:0004E79C       ExceptionLog.GetEF
 0001:0004E7A4       ExceptionLog.ASMAssigned
 0001:0004E7AC       ExceptionLog.IntoSystemUnit
 0001:0004E7C4       ExceptionLog.IntoThisUnit
 0001:0004E7DC       ExceptionLog.IntoCreateClassFunction
 0001:0004E840       ExceptionLog.IsExceptionHandled
 0001:0004EA7C       ExceptionLog.CompareEurekaFunctions
 0001:0004EA84       ExceptionLog.ReadStartData
 0001:0004EB08       ExceptionLog.ReadAddr
 0001:0004EB2C       ExceptionLog.ExportedFunctions
 0001:0004EE38       ExceptionLog.IsEurekaLogModule_Old
 0001:0004EF50       ExceptionLog.IsEurekaLogModule_New
 0001:0004EFE0       ExceptionLog.IsEurekaLogModule
 0001:0004F004       ExceptionLog.IsEurekaLogCompatibleModule
 0001:0004F038       ExceptionLog.GetEurekaLogModuleVersion
 0001:0004F218       ExceptionLog.LoadData_Old
 0001:0004F388       ExceptionLog.GetPassword
 0001:0004F418       ExceptionLog.LoadData
 0001:0004F838       ExceptionLog.LoadDebugInformation
 0001:0004F898       ExceptionLog.AddModuleFromFileName
 0001:0004F99C       ExceptionLog.AddModule
 0001:0004F9FC       ExceptionLog.GetDebugDetail
 0001:0004FA40       ExceptionLog.AddToStack
 0001:0004FB98       ExceptionLog.NextItem
 0001:0004FC08       ExceptionLog.IsWrongCall
 0001:0004FC98       ExceptionLog.PurgeCallStack
 0001:0004FE80       ExceptionLog.CallStackByAddresses
 0001:00050184       ExceptionLog.GetCallStackByAddresses
 0001:000501D8       ExceptionLog.ProcessMessage
 0001:00050238       ExceptionLog.ApplicationRestore
 0001:0005027C       ExceptionLog.SetLastExceptionData
 0001:000502A4       ExceptionLog.SetLastException
 0001:000502AC       ExceptionLog.GetBaseOfStack
 0001:000502B4       ExceptionLog.GetCurrentStackPointer
 0001:000502BC       ExceptionLog.SetLastExceptStack
 0001:000503AC       ExceptionLog.SetCustomErrorMessage
 0001:000503C0       ExceptionLog.GetExceptMessage
 0001:000503EC       ExceptionLog.SetRectangles
 0001:000504B0       ExceptionLog.DlgTemplate
 0001:00050808       ExceptionLog.CreateDialogFonts
 0001:00050A50       ExceptionLog.DestroyDialogFonts
 0001:00050AA0       ExceptionLog.SetInitDialog
 0001:00050B74       ExceptionLog.CenterWindow
 0001:00050BF0       ExceptionLog.AutoCloseTimerProc
 0001:00050C20       ExceptionLog.SetAutoCloseTimer
 0001:00050C4C       ExceptionLog.UnsetAutoCloseTimer
 0001:00050C64       ExceptionLog.ResetAutoCloseTimer
 0001:00050C6C       ExceptionLog.TopMostTimerProc
 0001:00050CB0       ExceptionLog.SetAutoTopMost
 0001:00050CD0       ExceptionLog.UnsetAutoTopMost
 0001:00050CE0       ExceptionLog.ISODateTime
 0001:00050D54       ExceptionLog.AddCustomHeaderToLog
 0001:00050EC0       ExceptionLog.AddCustomHeadersToLog
 0001:00051090       ExceptionLog.GetTextHeight
 0001:00051284       ExceptionLog.GetTextWidth
 0001:0005130C       ExceptionLog.GetEditText
 0001:00051374       ExceptionLog.GetParentWnd
 0001:00051378       ExceptionLog.ShiftWndBottom
 0001:000513B8       ExceptionLog.NewDialogProc
 0001:00051714       ExceptionLog.ShowRequestDialog
 0001:000517BC       ExceptionLog.AssignPriority
 0001:000518A4       ExceptionLog.ExtractThreadByList
 0001:0005193C       ExceptionLog.GetThreadData
 0001:00051A6C       ExceptionLog.ReadableThreadID
 0001:00051A74       ExceptionLog.CreateExceptionReport
 0001:00051DC0       ExceptionLog.CreateLeakReport
 0001:00051F60       ExceptionLog.CreateThreadStr
 0001:00051FC8       ExceptionLog.GetActiveMonitorData
 0001:0005211C       ExceptionLog.GetMonitorWorkAreaFromWndEx
 0001:00052204       ExceptionLog.GetMonitorWorkAreaFromWnd
 0001:00052228       ExceptionLog.GetMonitorWorkAreaFromActiveWnd
 0001:0005224C       ExceptionLog.CenterOnActiveWndMonitor
 0001:000522A0       ExceptionLog.IsEscapePressed
 0001:000522C8       ExceptionLog.InsertColumn
 0001:00052344       ExceptionLog.SetDialogRect
 0001:0005238C       ExceptionLog.ReadState
 0001:0005263C       ExceptionLog.SaveState
 0001:000527D4       ExceptionLog.SetDialogState
 0001:0005280C       ExceptionLog.AdjustFlatStyle
 0001:0005284C       ExceptionLog.DetailsState
 0001:00052DC4       ExceptionLog.ModuleBmp
 0001:00052EBC       ExceptionLog.ModulesListDialogProc
 0001:000535F0       ExceptionLog.ProcessesListDialogProc
 0001:00053DBC       ExceptionLog.AssemblerDialogProc
 0001:00053FC4       ExceptionLog.MailSlotSend
 0001:00054124       ExceptionLog.OpenIDEEditor
 0001:00054288       ExceptionLog.GetItemText
 0001:000542D4       ExceptionLog.CallStackDialogProc
 0001:00054F38       ExceptionLog.GeneralDialogProc
 0001:00055140       ExceptionLog.CPUDialogProc
 0001:00055348       ExceptionLog.GetDialogState
 0001:0005536C       ExceptionLog.AdjustDialog
 0001:0005541C       ExceptionLog.ActicatePage
 0001:00055630       ExceptionLog.SetRectangles
 0001:000556FC       ExceptionLog.DrawSupportLink
 0001:000557E4       ExceptionLog.NewDialogProc
 0001:000575EC       ExceptionLog.DrawControl
 0001:00057674       ExceptionLog.DrawClickHere
 0001:00057760       ExceptionLog.GetBottonWidth
 0001:000577E8       ExceptionLog.DrawButton
 0001:00057850       ExceptionLog.IsValidEmail
 0001:00057894       ExceptionLog.ChangeLogUserEmail
 0001:00057920       ExceptionLog.AssignOnCloseData
 0001:00057AFC       ExceptionLog.NewMSDialogProc
 0001:0005890C       ExceptionLog.CallExceptionActionNotify_atTerminating
 0001:00058930       ExceptionLog.ShowDialog
 0001:00058B74       ExceptionLog.CalsCoordinates
 0001:00058BCC       ExceptionLog.SetRectangles
 0001:00058C68       ExceptionLog.NewDialogProc
 0001:00058EAC       ExceptionLog.ShowSendDialogThread
 0001:00058F40       ExceptionLog.ShowSendDialog
 0001:00058FE8       ExceptionLog.BytesSwap
 0001:0005901C       ExceptionLog.CalcCRC
 0001:000590A0       ExceptionLog.InitDeflate
 0001:000590F8       ExceptionLog.WriteIDAT
 0001:0005918C       ExceptionLog.IDATWrite
 0001:000591D4       ExceptionLog.Encode
 0001:000592B0       ExceptionLog.DeleteTree
 0001:000592EC       ExceptionLog.GetPaletteColors
 0001:000593A4       ExceptionLog.CreateOctreeNode
 0001:00059408       ExceptionLog.AddColor
 0001:000594CC       ExceptionLog.ReduceTree
 0001:00059564       ExceptionLog.BytesPerScanline
 0001:0005958C       ExceptionLog.ProcessImage
 0001:00059718       ExceptionLog.GetOptimizedPalette
 0001:00059788       ExceptionLog.Create8bitBitmap
 0001:000598D0       ExceptionLog.InitScreenshot
 0001:00059C44       ExceptionLog.CommonSaveToStream
 0001:00059D00       ExceptionLog.AfterScreenshotToStream
 0001:00059FDC       ExceptionLog.AfterScreenshot
 0001:0005A06C       ExceptionLog.FreeScreenshot
 0001:0005A0A8       ExceptionLog.Error
 0001:0005A0B4       ExceptionLog.InternalSendMail
 0001:0005AA28       ExceptionLog.EurekaLogSendEmail
 0001:0005AAD0       ExceptionLog.Base64EncodeFromFile
 0001:0005AC64       ExceptionLog.ProcessDialogMessages
 0001:0005ACD0       ExceptionLog.SetSendDialogLabel
 0001:0005ADC4       ExceptionLog.SetSendDialogSingleLabel
 0001:0005ADFC       ExceptionLog.SetSendDialogBar
 0001:0005AE44       ExceptionLog.IncSendDialogBar
 0001:0005AE58       ExceptionLog.CloseSendDialog
 0001:0005AE80       ExceptionLog.TSendObject.OnSent
 0001:0005AE94       ExceptionLog.HostName
 0001:0005AEDC       ExceptionLog.LoggedUserName
 0001:0005AEF4       ExceptionLog.SetCounting
 0001:0005AF18       ExceptionLog.ResetCounting
 0001:0005AF44       ExceptionLog.AttachedFile
 0001:0005B1A0       ExceptionLog.AttachedFiles
 0001:0005B2C4       ExceptionLog.SendCommandEx
 0001:0005B344       ExceptionLog.SMTPSendSingleEmail
 0001:0005BBC4       ExceptionLog.SMTPSendEmail
 0001:0005BE7C       ExceptionLog.TSendDialogThread.Create
 0001:0005BEC4       ExceptionLog.TSendDialogThread.Execute
 0001:0005BED0       ExceptionLog.WebCallBackProc
 0001:0005BFA8       ExceptionLog.FindEOFLine
 0001:0005C038       ExceptionLog.CreateTmpLogFile
 0001:0005C148       ExceptionLog.LogFileMessage
 0001:0005C188       ExceptionLog.SMTPSend
 0001:0005C19C       ExceptionLog.EncodeURL
 0001:0005C288       ExceptionLog.ShellSendMail
 0001:0005C540       ExceptionLog.CallExceptionActionNotify_atSendingEmail
 0001:0005C564       ExceptionLog.CallExceptionActionNotify_atSentEmail
 0001:0005C588       ExceptionLog.CallExceptionActionNotify_atSendingWebMessage
 0001:0005C5AC       ExceptionLog.CallExceptionActionNotify_atSentWebMessage
 0001:0005C5D0       ExceptionLog.CallExceptionErrorNotify_atSentEmail
 0001:0005C5F4       ExceptionLog.CallExceptionErrorNotify_atSentWebMessage
 0001:0005C618       ExceptionLog.CreateZIPFile
 0001:0005C6FC       ExceptionLog.TmpCompressedFileName
 0001:0005C784       ExceptionLog.DeleteExtraFiles
 0001:0005C91C       ExceptionLog.SendEmailMessage
 0001:0005CAE4       ExceptionLog.SetError
 0001:0005CC58       ExceptionLog.UploadHTTPFiles
 0001:0005CE40       ExceptionLog.UploadFTPFiles
 0001:0005CF98       ExceptionLog.SetFullURL
 0001:0005CFE0       ExceptionLog.SetWebTrakerError
 0001:0005D15C       ExceptionLog.GenerateCustomWebFieldsString
 0001:0005D280       ExceptionLog.UploadBugTrakerFiles
 0001:0005D55C       ExceptionLog.SendWebMessage
 0001:0005D6AC       ExceptionLog.PrepareFilesToSend
 0001:0005D770       ExceptionLog.BlockingSendInternetMessage
 0001:0005DA04       ExceptionLog.SendInternetMessage
 0001:0005DA58       ExceptionLog.ExceptNotifyAfter1
 0001:0005DB58       ExceptionLog.ExceptNotifyAfter2
 0001:0005DB6C       ExceptionLog.ExceptNotifyAfter3
 0001:0005DB88       ExceptionLog.TSendThread.Execute
 0001:0005DBE4       ExceptionLog.AddStr
 0001:0005DC34       ExceptionLog.DebugToStr
 0001:0005DCD4       ExceptionLog.GetDebugInfoEx
 0001:0005DD28       ExceptionLog.OnCallInstr
 0001:0005DE3C       ExceptionLog.OnRefProc
 0001:0005DE44       ExceptionLog.ImmidiateDataProc
 0001:0005DF6C       ExceptionLog.StartComment
 0001:0005DFA4       ExceptionLog.GetFunctionAsm
 0001:0005E714       ExceptionLog.ASPDotNetWebSiteFile
 0001:0005E720       ExceptionLog.DotNetMainFile
 0001:0005E76C       ExceptionLog.DotNetHostedFileHandle
 0001:0005E87C       ExceptionLog.PurgeString
 0001:0005E94C       ExceptionLog.AccessViolationModuleInLongFormat
 0001:0005EC18       ExceptionLog.GetExceptionMessage
 0001:0005ECFC       ExceptionLog.RemoveDoubleQuotes
 0001:0005EDD0       ExceptionLog.GetParameters
 0001:0005EE78       ExceptionLog.GetCompilationDate
 0001:0005EED8       ExceptionLog.GetApplicationUpTime
 0001:0005EEF8       ExceptionLog.GetActiveFormClass
 0001:0005EF44       ExceptionLog.GetActiveFormText
 0001:0005EFD8       ExceptionLog.GetActiveControlClass
 0001:0005EFF0       ExceptionLog.GetActiveControlText
 0001:0005F008       ExceptionLog.GetOSUpdate
 0001:0005F01C       ExceptionLog.GetLocaleDataW
 0001:0005F05C       ExceptionLog.GetLocaleDataA
 0001:0005F0A0       ExceptionLog.LocalesCallback
 0001:0005F198       ExceptionLog.GetLanguageString
 0001:0005F1C0       ExceptionLog.GetOSLanguage
 0001:0005F1CC       ExceptionLog.GetOSCharset
 0001:0005F1E4       ExceptionLog.GetExceptionDate
 0001:0005F1FC       ExceptionLog.GetExceptionAddress
 0001:0005F230       ExceptionLog.GetExceptionModuleName
 0001:0005F314       ExceptionLog.GetExceptionModuleVersion
 0001:0005F398       ExceptionLog.GetExceptionType
 0001:0005F43C       ExceptionLog.GetMemInfo
 0001:0005F508       ExceptionLog.GetTotalMemory
 0001:0005F588       ExceptionLog.GetFreeMemory
 0001:0005F608       ExceptionLog.GetDiskInfo
 0001:0005F6FC       ExceptionLog.GetFreeDisk
 0001:0005F79C       ExceptionLog.GetTotalDisk
 0001:0005F83C       ExceptionLog.GetStartDate
 0001:0005F854       ExceptionLog.GetApplicationName
 0001:0005F924       ExceptionLog.GetProcessor
 0001:0005FAC8       ExceptionLog.GetSystemUpTime
 0001:0005FB04       ExceptionLog.GetDisplayMode
 0001:0005FBA4       ExceptionLog.CompleteIP
 0001:0005FCEC       ExceptionLog.GetAdapterInfo
 0001:00060014       ExceptionLog.RemoveLastSeparator
 0001:000600A8       ExceptionLog.GetNetworkData
 0001:0006022C       ExceptionLog.GetFileVersionEx
 0001:000603F4       ExceptionLog.OSSupportDisplayAPI
 0001:00060428       ExceptionLog.GetIndexKeyName
 0001:0006051C       ExceptionLog.ReadDWordKey
 0001:00060604       ExceptionLog.GetVideoCardStr
 0001:00060DA4       ExceptionLog.GetDisplayDPI
 0001:00060DFC       ExceptionLog.AttrToString
 0001:00060E50       ExceptionLog.CompleteString
 0001:00060E94       ExceptionLog.GetCurrentUserPrivileges
 0001:00061060       ExceptionLog.GetUserEmail
 0001:00061074       ExceptionLog.GetCompanyName
 0001:000611CC       ExceptionLog.FetchStr
 0001:00061200       ExceptionLog.GetIniDefPrinter
 0001:00061260       ExceptionLog.GetDefaultPrinter
 0001:00061344       ExceptionLog.GetCurrentPrinterHandle
 0001:000613C0       ExceptionLog.GetPrinterStr
 0001:0006161C       ExceptionLog.FormatComplete
 0001:000616E8       ExceptionLog.CallExceptionActionNotify_atSavingLogFile
 0001:0006170C       ExceptionLog.CallExceptionActionNotify_atSavedLogFile
 0001:00061730       ExceptionLog.CallExceptionErrorNotify_atSavedLogFile
 0001:00061754       ExceptionLog.SaveLogFile
 0001:000618BC       ExceptionLog.IsAParentX
 0001:00061940       ExceptionLog.IsCompatibleException
 0001:00061A08       ExceptionLog.FindException
 0001:00061A64       ExceptionLog.CallExceptionActionNotify_atShowingExceptionInfo
 0001:00061A88       ExceptionLog.CallExceptionActionNotify_atShowedExceptionInfo
 0001:00061AAC       ExceptionLog.CallWriteIntraWebText
 0001:00061AB8       ExceptionLog.CreateGeneralText
 0001:000626A8       ExceptionLog.GetEAX
 0001:00062700       ExceptionLog.GetEBX
 0001:00062758       ExceptionLog.GetECX
 0001:000627B0       ExceptionLog.GetEDX
 0001:00062808       ExceptionLog.GetESI
 0001:00062860       ExceptionLog.GetEDI
 0001:000628B8       ExceptionLog.GetESP
 0001:00062910       ExceptionLog.GetEIP
 0001:00062968       ExceptionLog.GetDump
 0001:00062B48       ExceptionLog.GetStack
 0001:00062BE8       ExceptionLog.GetEmptySection
 0001:00062C94       ExceptionLog.CreateLogText
 0001:000655D8       ExceptionLog.WriteToWeb
 0001:00065778       ExceptionLog.MustSendMessage
 0001:000657B8       ExceptionLog.MustRestoreApplication
 0001:00065810       ExceptionLog.PurgeModulesList
 0001:00065868       ExceptionLog.ShowType
 0001:000658AC       ExceptionLog.AddCallerCallStack
 0001:000658E8       ExceptionLog.IsMainThread
 0001:000658F8       ExceptionLog.IsBorlandThread
 0001:00065914       ExceptionLog.IsWindowsThread
 0001:00065924       ExceptionLog.CanPauseThisThread
 0001:0006596C       ExceptionLog.MustPauseThisThread
 0001:000659C4       ExceptionLog.SetEnvVariables
 0001:00065B88       ExceptionLog.InternalExceptNotify
 0001:00066F5C       ExceptionLog.GetControlClass
 0001:00066FB8       ExceptionLog.GetControlText
 0001:00067168       ExceptionLog.TExceptionThread.Create
 0001:000672C8       ExceptionLog.TExceptionThread.Execute
 0001:00067338       ExceptionLog.ResetGlobalVars
 0001:0006737C       ExceptionLog.ProcessMessages
 0001:00067414       ExceptionLog.SetHandledWithEurekaLog
 0001:0006747C       ExceptionLog.IsHandledSafeCallException
 0001:000674F0       ExceptionLog.ExceptNotify
 0001:0006789C       ExceptionLog.GetThreadParams
 0001:00067914       ExceptionLog.GetIntraWebExceptionType
 0001:00067970       ExceptionLog.IntraWeb_OnExceptionEvent_Old
 0001:000679FC       ExceptionLog.IntraWeb_OnExceptionEvent_New
 0001:00067A80       ExceptionLog.IntraWeb_OnExceptionEvent
 0001:00067A94       ExceptionLog.SetIntraWebEvent
 0001:00067AD8       ExceptionLog.LockCheck
 0001:00067AE4       ExceptionLog.GoNotify
 0001:00067C3C       ExceptionLog.GeneralRaise
 0001:00067E5C       ExceptionLog.EurekaLog_CallGeneralRaise
 0001:00067E90       ExceptionLog.IsSetThreadNameException
 0001:00067EA4       ExceptionLog.IsSetThreadNameExceptionEx
 0001:00067ED0       ExceptionLog.Call_HookedRaise
 0001:00067FA0       ExceptionLog.SetLastStackPointer
 0001:00067FB0       ExceptionLog.SetLastECX
 0001:00067FC0       ExceptionLog.HookedRaise
 0001:00067FE0       ExceptionLog.EurekaLog_CallExceptObject
 0001:0006816C       ExceptionLog.Call_HookedExceptionObject
 0001:00068174       ExceptionLog.HookedExceptionObject
 0001:00068198       ExceptionLog.Call_HookedRtlUnwind
 0001:0006824C       ExceptionLog.HookedRtlUnwind
 0001:00068274       ExceptionLog.HookedWriteFile
 0001:00068304       ExceptionLog.HookedExceptProc
 0001:0006834C       ExceptionLog.TIdThread9.HandledException
 0001:0006838C       ExceptionLog.TIdThread10.HandledException
 0001:000683CC       ExceptionLog.IsOldIndy9
 0001:000683DC       ExceptionLog.SetIndyEvent9
 0001:00068420       ExceptionLog.SetIndyEvent10
 0001:00068464       ExceptionLog.SetIndyEvent
 0001:00068490       ExceptionLog.HookedThreadExecute
 0001:000685E8       ExceptionLog.HookedRTLThreadProc
 0001:00068718       ExceptionLog.HookedThreadProc
 0001:00068848       ExceptionLog.EurekaLog_LastDelphiException
 0001:00068850       ExceptionLog.EurekaLog_CallCreateThread
 0001:000688E4       ExceptionLog.EurekaLog_CallResumeThread
 0001:00068988       ExceptionLog.EurekaLog_CallExitThread
 0001:000689A8       ExceptionLog.HookedCreateThread
 0001:00068C04       ExceptionLog.HookedResumeThread
 0001:00068E20       ExceptionLog.HookedExitThread
 0001:00068EDC       ExceptionLog.HookedWriteClientProc
 0001:00068F10       ExceptionLog.HookedHttpExtensionProc
 0001:00068F4C       ExceptionLog.TEurekaStackList.Clear
 0001:00068F70       ExceptionLog.TEurekaStackList.Delete
 0001:00068F98       ExceptionLog.TEurekaStackList.Destroy
 0001:00068FC4       ExceptionLog.TEurekaStackList.GetItem
 0001:00068FD8       ExceptionLog.TEurekaModulesList.Clear
 0001:00068FFC       ExceptionLog.TEurekaModulesList.Delete
 0001:00069050       ExceptionLog.TEurekaModulesList.Destroy
 0001:0006907C       ExceptionLog.TEurekaModulesList.GetItem
 0001:00069090       ExceptionLog.TEurekaProcessesList.Clear
 0001:000690B4       ExceptionLog.TEurekaProcessesList.Delete
 0001:000690DC       ExceptionLog.TEurekaProcessesList.Destroy
 0001:00069108       ExceptionLog.TEurekaProcessesList.GetItem
 0001:0006911C       ExceptionLog.TEurekaThreadsList.Create
 0001:00069200       ExceptionLog.TEurekaThreadsList.Destroy
 0001:0006923C       ExceptionLog.TEurekaThreadsList.Clear
 0001:00069260       ExceptionLog.TEurekaThreadsList.Delete
 0001:000692A4       ExceptionLog.TEurekaThreadsList.RemoveCurrentThread
 0001:00069300       ExceptionLog.TEurekaThreadsList.FindByThreadHandle
 0001:00069330       ExceptionLog.TEurekaThreadsList.FindByThreadObject
 0001:00069360       ExceptionLog.TEurekaThreadsList.FindByThreadID
 0001:00069390       ExceptionLog.TEurekaThreadsList.GetItem
 0001:000693A4       ExceptionLog.TEurekaThreadsList.BeginRead
 0001:000693B0       ExceptionLog.TEurekaThreadsList.EndRead
 0001:000693BC       ExceptionLog.TEurekaThreadsList.BeginWrite
 0001:000693C8       ExceptionLog.TEurekaThreadsList.EndWrite
 0001:000693D4       ExceptionLog.TEurekaThreadsList.NewItem
 0001:00069410       ExceptionLog.TEurekaThreadsList.PurgeList
 0001:00069480       ExceptionLog.CanShowHandledExceptionEx
 0001:00069530       ExceptionLog.TEurekaFunctionsList.Clear
 0001:00069554       ExceptionLog.TEurekaFunctionsList.Delete
 0001:0006957C       ExceptionLog.TEurekaFunctionsList.Destroy
 0001:000695A8       ExceptionLog.TEurekaFunctionsList.GetItem
 0001:000695BC       ExceptionLog.CalcAddr
 0001:000695E0       ExceptionLog.TSafeObject.GetSafeCall
 0001:00069628       ExceptionLog.IsEurekaLogInstalled
 0001:00069630       ExceptionLog.CurrentEurekaLogOptions
 0001:00069810       ExceptionLog.SetCurrentStackPointer
 0001:00069854       ExceptionLog.StandardEurekaNotify
 0001:0006989C       ExceptionLog.ForceApplicationTermination
 0001:000698E0       ExceptionLog.IsEurekaLogActiveInThread
 0001:00069938       ExceptionLog.SetEurekaLogState
 0001:00069940       ExceptionLog.IsEurekaLogActive
 0001:00069948       ExceptionLog.GetCurrentStackPointer
 0001:00069950       ExceptionLog.ExceptionManager
 0001:00069AD8       ExceptionLog.Hooked_CGIHandleServerException
 0001:00069B08       ExceptionLog.Hooked_ISAPIHandleServerException
 0001:00069B38       ExceptionLog.Hooked_VCLHandleException
 0001:00069BAC       ExceptionLog.Hooked_VCLShowException
 0001:00069BEC       ExceptionLog.Hooked_CLXHandleException
 0001:00069C1C       ExceptionLog.Hooked_CLXShowException
 0001:00069C70       ExceptionLog.Hooked_IntraWebCreateServer
 0001:00069DA4       ExceptionLog.IsHTMLPage
 0001:00069E24       ExceptionLog.ExtractGZipStream
 0001:00069F70       ExceptionLog.Hooked_IntraWebSendResponse
 0001:0006A1E0       ExceptionLog.Hooked_NTServiceLogMessage
 0001:0006A294       ExceptionLog.Hooked_IndyThreadHandleException
 0001:0006A2C4       ExceptionLog.Hooked_DoneExcept
 0001:0006A328       ExceptionLog.TFreezeThread.Create
 0001:0006A360       ExceptionLog.SleepAndWait
 0001:0006A38C       ExceptionLog.GetValidMainWindow
 0001:0006A3C0       ExceptionLog.TFreezeThread.Execute
 0001:0006A5B8       ExceptionLog.InitCheckFreeze
 0001:0006A660       ExceptionLog.DoneCheckFreeze
 0001:0006A6C0       ExceptionLog.TEurekaModuleOptionsEx.SetActive
 0001:0006A708       ExceptionLog.TEurekaModuleOptionsEx.SetFreezeActivate
 0001:0006A750       ExceptionLog.TEurekaModuleOptionsEx.StoreSharedData
 0001:0006A758       ExceptionLog.TEurekaModuleOptionsEx.LoadSharedData
 0001:0006A760       ExceptionLog.THTTPConnection.SetSendState
 0001:0006A98C       ExceptionLog.Create_EurekaLogUnitsList
 0001:0006AA08       ExceptionLog.Internal_ResetLeaks
 0001:0006AC88       ExceptionLog.Internal_AddLeak
 0001:0006AE0C       ExceptionLog.Internal_ShowLeaks
 0001:0006B2C8       ExceptionLog.Internal_OverrunProc
 0001:0006B2E0       ExceptionLog.Internal_MultiFreeProc
 0001:0006B2F8       ExceptionLog.Internal_Finalization
 0001:0006B304       ExceptionLog.CheckForMemoryLeaks
 0001:0006B398       ExceptionLog.CustomHandler
 0001:0006B4B0       ExceptionLog.RealAddr
 0001:0006B4B4       ExceptionLog.SetMainThreadTopOfStack
 0001:0006B4C4       ExceptionLog.HandleAnyExceptionAddr
 0001:0006B510       ExceptionLog.HandleOnExceptionAddr
 0001:0006B568       ExceptionLog.HandleAutoExceptionAddr
 0001:0006B5C8       ExceptionLog.DoneExceptAddr
 0001:0006B614       ExceptionLog.ChangeFinalizationOrder
 0001:0006B738       ExceptionLog.HookLastInit
 0001:0006B7C0       ExceptionLog.HookLastFInit
 0001:0006B7D0       ExceptionLog.Hook_InitializationAndFinalization
 0001:0006B884       ExceptionLog.IntraWeb_BPL
 0001:0006B968       ExceptionLog.Hook_OnExceptionEvents
 0001:0006BE00       ExceptionLog.SetDebugHook
 0001:0006BE1C       ExceptionLog.HookingModuleName
 0001:0006BE34       ExceptionLog.InstanceModuleName
 0001:0006BE40       ExceptionLog.HookingRTLModuleName
 0001:0006BE4C       ExceptionLog.FindMainInstance
 0001:0006BEBC       ExceptionLog.LoadFromFile
 0001:0006BF10       ExceptionLog.CheckCrc32
 0001:0006C014       ExceptionLog.Init
 0001:0006C834       ExceptionLog.Done
 0001:0006CACC       ExceptionLog.LastProc
 0001:0006CAE0       ExceptionLog.Finalization
 0001:0006CC90       Portscan.isNumeric
 0001:0006CD28       Portscan.ClearScreen
 0001:0006CDA8       Portscan.SetCursorTo
 0001:0006CDFC       Portscan.ShowTitle
 0001:0006CF00       Portscan.Finalization
 0002:00000000       System.System
 0002:00000098       Windows.Windows
 0002:000000AC       SysUtils.SysUtils
 0002:00000134       VarUtils.VarUtils
 0002:00000144       Variants.Variants
 0002:000001F0       TypInfo.TypInfo
 0002:000001F8       Classes.Classes
 0002:0000028C       EConsts.EConsts
 0002:00000294       ECore.ECore
 0002:000002C4       EDebug.EDebug
 0002:000002CC       ELeaks.ELeaks
 0002:000002E0       EDisAsm.EDisAsm
 0002:000002E8       ELogManager.ELogManager
 0002:000002F0       EWebTools.EWebTools
 0002:000002F8       ESockets.ESockets
 0002:0000032C       EHook.EHook
 0002:0000035C       ExceptionLog.ExceptionLog
 0002:000003D4       Portscan.Portscan
 0003:00000000       System.ExitCode
 0003:00000004       System.ErrorAddr
 0003:00000008       System.RandSeed
 0003:0000000C       System.FileMode
 0003:00000010       System.VarClearProc
 0003:00000014       System.VarAddRefProc
 0003:00000018       System.VarCopyProc
 0003:0000001C       System.VarToLStrProc
 0003:00000020       System.VarToWStrProc
 0003:00000024       System.Default8087CW
 0003:00000028       System.DebugHook
 0003:0000002C       System.JITEnable
 0003:00000030       System.NoErrMsg
 0003:00000034       System.DefaultTextLineBreakStyle
 0003:00000038       System.SystemThreadFuncProc
 0003:0000003C       System.SystemThreadEndProc
 0003:00000040       System.LibModuleList
 0003:00000044       System.ModuleUnloadList
 0003:00000048       System.Copyright
 0003:0000004C       System.SmallBlockTypes
 0003:0000072C       System.MemoryManager
 0003:00000744       System.reMap
 0003:00000760       System.errCaption
 0003:00000768       System.runErrMsg
 0003:00000788       System.dig
 0003:00000798       SysInit.TlsIndex
 0003:0000079C       SysInit.PtrToNil
 0003:000007A0       SysInit.Module
 0003:000007B8       SysUtils.EmptyStr
 0003:000007BC       SysUtils.EmptyWideStr
 0003:000007C0       SysUtils.Win32Platform
 0003:000007C4       SysUtils.Win32MajorVersion
 0003:000007C8       SysUtils.Win32MinorVersion
 0003:000007CC       SysUtils.Win32BuildNumber
 0003:000007D0       SysUtils.Win32CSDVersion
 0003:000007D4       SysUtils.TwoDigitYearCenturyWindow
 0003:000007D8       SysUtils.MonthDays
 0003:00000808       SysUtils.LeadBytes
 0003:00000828       SysUtils.HexDisplayPrefix
 0003:0000082C       SysUtils.GetDiskFreeSpaceEx
 0003:00000830       SysUtils.cSimpleBoolStrs
 0003:00000838       SysUtils.AccessMode
 0003:00000844       SysUtils.ShareMode
 0003:00000858       SysUtils.FormatErrorStrs
 0003:00000860       SysUtils.FCon1E18
 0003:0000086C       SysUtils.DCon10
 0003:00000870       SysUtils.CWNear
 0003:00000874       SysUtils.FMSecsPerDay
 0003:00000878       SysUtils.IMSecsPerDay
 0003:0000087C       SysUtils.Format
 0003:00000880       SysUtils.DefShortMonthNames
 0003:000008B0       SysUtils.DefLongMonthNames
 0003:000008E0       SysUtils.DefShortDayNames
 0003:000008FC       SysUtils.DefLongDayNames
 0003:00000918       SysUtils.ErrorMap
 0003:00000950       SysUtils.ExceptMap
 0003:00000A00       SysUtils.TerminateProcList
 0003:00000A04       VarUtils.CResult
 0003:00000A0C       Variants.NullStrictConvert
 0003:00000A10       Variants.NullAsStringValue
 0003:00000A14       Variants.BooleanToStringRule
 0003:00000A18       Variants.CInvalidCustomVariantType
 0003:00000A1C       Variants.CText
 0003:00000A70       Variants.CRelationshipToBoolean
 0003:00000A84       TypInfo.BooleanIdents
 0003:00000A8C       TypInfo.DotSep
 0003:00000A90       Classes.WakeMainThread
 0003:00000A98       Classes.SyncList
 0003:00000A9C       Classes.Priorities
 0003:00000AB8       EConsts.EurekaLogCurrentVersion
 0003:00000ABC       EConsts.UnassignedPointer
 0003:00000AC0       EConsts.EMsgs
 0003:00001020       EConsts.EVals
 0003:00001298       EConsts.EShowOptions
 0003:00001358       EConsts.EVariablesOptions
 0003:000013C0       ECore.CriticalError
 0003:000013C4       ECore.Digits
 0003:000013E4       ECore.NoChars
 0003:00001404       EDebug.TableHeader
 0003:00001414       EDebug.SegmentsHeader
 0003:00001424       EDebug.PublicsByNameHeader
 0003:00001434       EDebug.PublicsByValueHeader
 0003:00001444       EDebug.ResourceFilesHeader
 0003:00001450       ELeaks.BlockOverHead
 0003:00001454       ELeaks.BlockOverFoot
 0003:00001458       ELeaks.NewMemoryManager
 0003:00001464       EDisAsm.OneByteOpcodes
 0003:00001864       EDisAsm.TwoByteOpcodes
 0003:00001C64       EDisAsm.GroupsOpcodes
 0003:00001DA4       EDisAsm.GroupsOperands
 0003:00001E24       EDisAsm.FloatingPointOpcodes
 0003:00002724       EDisAsm.ByteRegs1
 0003:00002728       EDisAsm.ByteRegs2
 0003:0000272C       EDisAsm.WordRegs1
 0003:00002734       EDisAsm.WordRegs2
 0003:0000273C       EHash.Crc16Tab
 0003:0000293C       EHash.crc_table_computed
 0003:00002940       EHash.p
 0003:00002950       EBase64.cBase64Codec
 0003:00002990       EBase64.cBase64Codec
 0003:00002A10       EXMLBuilder.EncodedChars
 0003:00002A30       ELogManager.EOFLine
 0003:00002A34       ELogManager.chars
 0003:00002A54       EWebTools.MaxBugOccurrences
 0003:00002A58       EWebTools.WinInet_Error_Text
 0003:00004188       EWebTools.NetLib
 0003:0000418C       EWebTools.ProxyUserName
 0003:00004190       EWebTools.ProxyPassword
 0003:00004194       EWebTools.ProxyServer
 0003:00004198       EWebTools.PassiveMode
 0003:0000419C       EWebTools.HTMLDelimiters
 0003:0000449C       EWebTools.HTMLChars
 0003:00004628       EWebTools.ValidDomainChars
 0003:00004648       EWebTools.AlphaNumerics
 0003:00004668       EZlib2._z_errmsg
 0003:00004690       EZlib2...
 0003:000046EC       EZlib2...
 0003:000046F8       EZlib2...
 0003:00004700       EZlib2...
 0003:00004718       EZlib2...
 0003:0000476C       EZlib2...
 0003:000047BC       EZlib2...
 0003:0000492C       EZlib2...
 0003:00004A58       EZlib2...
 0003:000051C3       EZlib2.__dist_code
 0003:000053C3       EZlib2.__length_code
 0003:000054C4       ESockets.Initialized
 0003:000054C8       EHook.OpCodePrefixes
 0003:000054E8       EHook.OpCodeShortJump
 0003:00005508       EHook.OpCodeReturn
 0003:00005528       EHook.OpCodeLongJump1Byte
 0003:00005548       EHook.OpCodeLongJump2Bytes
 0003:00005568       EHook.AsmConst
 0003:00005668       ExceptionLog.ShowEurekaLogUnits
 0003:0000566C       ExceptionLog.CallFromCOMObject
 0003:00005670       ExceptionLog.CallForGetLogText
 0003:00005674       ExceptionLog.ShowInternalSendErrors
 0003:00005678       ExceptionLog.EurekaLogUnits
 0003:00005B60       ExceptionLog.UnAttachableThreads
 0003:00005B70       ExceptionLog.CannotProcessMessagesExceptions
 0003:00005B74       ExceptionLog.ISAPI_SendError
 0003:00005B78       ExceptionLog.ModulesList
 0003:00005B7C       ExceptionLog.ProcessesList
 0003:00005B80       ExceptionLog.CurrentStackList
 0003:00005B84       ExceptionLog.LeaksStackList
 0003:00005B88       ExceptionLog.Initialized
 0003:00005B8C       ExceptionLog.LastExceptionAddress
 0003:00005B90       ExceptionLog.LastExceptionObject
 0003:00005B94       ExceptionLog.CriticalExceptObject
 0003:00005B98       ExceptionLog.ModuleInfoHandle
 0003:00005B9C       ExceptionLog.ModuleInfoData
 0003:00005BA0       ExceptionLog.LoadedDotNetMain
 0003:00005BA4       ExceptionLog.DotNetMetadataFile
 0003:00005BA8       ExceptionLog.MultiFreeExceptionText
 0003:00005BAC       ExceptionLog.MemoryOverrunExceptionText
 0003:00005BB0       ExceptionLog.Global_IntoHandleException
 0003:00005BB4       ExceptionLog.Opened_LogFile_Name
 0003:00005BB8       ExceptionLog.fActivePage
 0003:00005BBC       ExceptionLog.CannotShowDialog
 0003:00005BC0       ExceptionLog.PNG_CRCListed
 0003:00005BC4       ExceptionLog.Dots
 0003:00005BE4       ExceptionLog.ColIdx
 0003:00005BEC       ExceptionLog.IDATHeader
 0003:00005BF0       ExceptionLog.Mask
 0003:00005BF8       ExceptionLog.PNG_HeaderBytes
 0003:00005C00       ExceptionLog.iLevel
 0004:00000000       System.DispCallByIDProc
 0004:00000004       System.ExceptProc
 0004:00000008       System.ErrorProc
 0004:0000000C       System.ExceptClsProc
 0004:00000010       System.ExceptObjProc
 0004:00000014       System.RaiseExceptionProc
 0004:00000018       System.RTLUnwindProc
 0004:0000001C       System.ExceptionClass
 0004:00000020       System.SafeCallErrorProc
 0004:00000024       System.AssertErrorProc
 0004:00000028       System.ExitProcessProc
 0004:0000002C       System.AbstractErrorProc
 0004:00000030       System.MainInstance
 0004:00000034       System.MainThreadID
 0004:00000038       System.IsLibrary
 0004:0000003C       System.CmdShow
 0004:00000040       System.CmdLine
 0004:00000044       System.ExitProc
 0004:00000048       System.IsConsole
 0004:00000049       System.IsMultiThread
 0004:0000004A       System.Test8086
 0004:0000004C       System.Input
 0004:00000218       System.Output
 0004:000003E4       System.ErrOutput
 0004:000005B0       System.AllocMemSize
 0004:000005B4       System.ReportMemoryLeaksOnShutdown
 0004:000005B8       System..6
 0004:000005BC       System.DefaultSystemCodePage
 0004:000005C0       System.AllocSize2SmallBlockTypeIndX4
 0004:00000706       System.MinimumBlockAlignment
 0004:00000708       System.MediumBlockPoolsCircularList
 0004:00000718       System.MediumBlocksLocked
 0004:0000071C       System.LastSequentiallyFedMediumBlock
 0004:00000720       System.MediumSequentialFeedBytesLeft
 0004:00000724       System.MediumBlockBinGroupBitmap
 0004:00000728       System.MediumBlockBinBitmaps
 0004:000007A8       System.MediumBlockBins
 0004:000027A8       System.LargeBlocksLocked
 0004:000027AC       System.LargeBlocksCircularList
 0004:000027BC       System.ExpectedMemoryLeaks
 0004:000027C0       System.ExpectedMemoryLeaksListLocked
 0004:000027C4       System.MMSharingWindow
 0004:000027C8       System.InitContext
 0004:000027F4       SysInit.ModuleIsLib
 0004:000027F5       SysInit.ModuleIsCpp
 0004:000027F8       SysInit.HInstance
 0004:000027FC       SysInit.tlsBuffer
 0004:00002800       Windows..3
 0004:00002804       Windows.HtmlHelpModule
 0004:00002808       SysUtils.CurrencyString
 0004:0000280C       SysUtils.CurrencyFormat
 0004:0000280D       SysUtils.NegCurrFormat
 0004:0000280E       SysUtils.ThousandSeparator
 0004:0000280F       SysUtils.DecimalSeparator
 0004:00002810       SysUtils.CurrencyDecimals
 0004:00002811       SysUtils.DateSeparator
 0004:00002814       SysUtils.ShortDateFormat
 0004:00002818       SysUtils.LongDateFormat
 0004:0000281C       SysUtils.TimeSeparator
 0004:00002820       SysUtils.TimeAMString
 0004:00002824       SysUtils.TimePMString
 0004:00002828       SysUtils.ShortTimeFormat
 0004:0000282C       SysUtils.LongTimeFormat
 0004:00002830       SysUtils.ShortMonthNames
 0004:00002860       SysUtils.LongMonthNames
 0004:00002890       SysUtils.ShortDayNames
 0004:000028AC       SysUtils.LongDayNames
 0004:000028C8       SysUtils.SysLocale
 0004:000028D6       SysUtils.ListSeparator
 0004:000028D8       SysUtils.EraNames
 0004:000028F4       SysUtils.EraYearOffsets
 0004:00002910       SysUtils.TrueBoolStrs
 0004:00002914       SysUtils.FalseBoolStrs
 0004:00002918       SysUtils..35
 0004:0000291C       SysUtils.OutOfMemory
 0004:00002920       SysUtils.InvalidPointer
 0004:00002924       SysUtils.CharHash
 0004:00002A24       SysUtils.ValidatedUnitHashBuckets
 0004:00002E24       SysUtils.UnitHashBuckets
 0004:00003224       SysUtils.FLanguages
 0004:00003228       VarUtils.VariantChangeTypeEx
 0004:0000322C       VarUtils.VarNeg
 0004:00003230       VarUtils.VarNot
 0004:00003234       VarUtils.VarAdd
 0004:00003238       VarUtils.VarSub
 0004:0000323C       VarUtils.VarMul
 0004:00003240       VarUtils.VarDiv
 0004:00003244       VarUtils.VarIDiv
 0004:00003248       VarUtils.VarMod
 0004:0000324C       VarUtils.VarAnd
 0004:00003250       VarUtils.VarOr
 0004:00003254       VarUtils.VarXor
 0004:00003258       VarUtils.VarCmp
 0004:0000325C       VarUtils.VarI4FromStr
 0004:00003260       VarUtils.VarR4FromStr
 0004:00003264       VarUtils.VarR8FromStr
 0004:00003268       VarUtils.VarDateFromStr
 0004:0000326C       VarUtils.VarCyFromStr
 0004:00003270       VarUtils.VarBoolFromStr
 0004:00003274       VarUtils.VarBstrFromCy
 0004:00003278       VarUtils.VarBstrFromDate
 0004:0000327C       VarUtils.VarBstrFromBool
 0004:00003280       VarUtils..5
 0004:00003284       Variants.EmptyParam
 0004:00003294       Variants.VarDispProc
 0004:00003298       Variants.ClearAnyProc
 0004:0000329C       Variants.ChangeAnyProc
 0004:000032A0       Variants.RefAnyProc
 0004:000032A4       Variants..81
 0004:000032A8       Variants.LVarTypes
 0004:000032AC       Variants.LVarTypeSync
 0004:000032C4       TypInfo..6
 0004:000032C8       Classes.GlobalNameSpace
 0004:000032CC       Classes.SyncEvent
 0004:000032D0       Classes..95
 0004:000032D4       Classes.IntConstList
 0004:000032D8       Classes.RegGroups
 0004:000032DC       Classes.FindGlobalComponentProcs
 0004:000032E0       Classes.GlobalFixupList
 0004:000032E4       Classes.ThreadLock
 0004:000032FC       Classes.ThreadCount
 0004:00003300       EConsts..5
 0004:00003304       ECore.LastEurekaVersion
 0004:00003308       ECore..4
 0004:0000330C       ECore.InternalIntoIDE
 0004:00003310       EDebug..03
 0004:00003314       ELeaks.OverrunProc
 0004:00003318       ELeaks.MultiFreeProc
 0004:0000331C       ELeaks.FinalizationProc
 0004:00003320       ELeaks.ResetLeaks
 0004:00003324       ELeaks.ShowLeaks
 0004:00003328       ELeaks.AddLeak
 0004:0000332C       ELeaks..1
 0004:00003330       ELeaks.OldMemoryManager
 0004:0000333C       ELeaks.AllocatedList_Lock
 0004:00003340       ELeaks.AllocatedList_Start
 0004:00003344       ELeaks.AllocatedList_End
 0004:00003348       ELeaks.TObjectCreate
 0004:0000334C       ELeaks.TObjectNewInstance
 0004:00003350       ELeaks.InstallNewMemoryManager
 0004:00003351       ELeaks.UseNewMemoryManager
 0004:00003352       ELeaks.LeaksOptions
 0004:00003354       ELeaks.MemoryPages
 0004:00003358       ELeaks.IsMMHost
 0004:0000335C       ELeaks.OriginalMemMgr
 0004:00003368       EDisAsm..2
 0004:0000336C       EHash.crc_table
 0004:0000376C       EEncrypt.CV
 0004:00003774       EEncrypt.KeyData
 0004:00003784       ELogManager..3
 0004:00003788       EWebTools..7
 0004:0000378C       EWebTools.InternetOpen
 0004:00003790       EWebTools.InternetConnect
 0004:00003794       EWebTools.HttpOpenRequest
 0004:00003798       EWebTools.HttpAddRequestHeaders
 0004:0000379C       EWebTools.HttpSendRequest
 0004:000037A0       EWebTools.HttpSendRequestEx
 0004:000037A4       EWebTools.InternetWriteFile
 0004:000037A8       EWebTools.HttpEndRequest
 0004:000037AC       EWebTools.HttpQueryInfo
 0004:000037B0       EWebTools.InternetCloseHandle
 0004:000037B4       EWebTools.InternetQueryOption
 0004:000037B8       EWebTools.InternetSetOption
 0004:000037BC       EWebTools.FtpOpenFile
 0004:000037C0       EWebTools.InternetGetLastResponseInfo
 0004:000037C4       EWebTools.InternetOpenUrl
 0004:000037C8       EWebTools.InternetReadFile
 0004:000037CC       EWebTools.InternetGetConnectedState
 0004:000037D0       EZlib2.hLib
 0004:000037D4       EZlib2...
 0004:000057D4       EZlib2...
 0004:00006060       ESockets..4
 0004:00006064       EHook..1
 0004:00006068       EHook.HookedProcedures
 0004:0000606C       EHook.DllList
 0004:00006070       EHook.HookedMethodsList
 0004:00006074       ExceptionLog.ExceptionNotify
 0004:00006078       ExceptionLog.HandledExceptionNotify
 0004:0000607C       ExceptionLog.ExceptionActionNotify
 0004:00006080       ExceptionLog.ExceptionErrorNotify
 0004:00006084       ExceptionLog.PasswordRequest
 0004:00006088       ExceptionLog.CustomDataRequest
 0004:0000608C       ExceptionLog.AttachedFilesRequest
 0004:00006090       ExceptionLog.CustomWebFieldsRequest
 0004:00006094       ExceptionLog.CustomButtonClickNotify
 0004:00006098       ExceptionLog..21
 0004:0000609C       ExceptionLog.Kernel_RaiseException
 0004:000060A0       ExceptionLog.Kernel_RtlUnwind
 0004:000060A4       ExceptionLog.Kernel_CreateThread
 0004:000060A8       ExceptionLog.Kernel_ResumeThread
 0004:000060AC       ExceptionLog.Kernel_ExitThread
 0004:000060B0       ExceptionLog.Kernel_WriteFile
 0004:000060B4       ExceptionLog.ISAPI_HttpExtensionProc
 0004:000060B8       ExceptionLog.ISAPI_WriteClientProc
 0004:000060BC       ExceptionLog.ISAPI_Proc
 0004:000060C0       ExceptionLog.ServerECB
 0004:000060C4       ExceptionLog.ExceptionCriticalSection
 0004:000060DC       ExceptionLog.OldExceptProc
 0004:000060E0       ExceptionLog.ThreadsList
 0004:000060E4       ExceptionLog.StartingDate
 0004:000060EC       ExceptionLog.OldExceptObjProc
 0004:000060F0       ExceptionLog.CurrentOptions
 0004:000060F4       ExceptionLog.CGIOutputFile
 0004:000060F8       ExceptionLog.LanguageStr
 0004:000060FC       ExceptionLog.ExceptionNumber
 0004:00006100       ExceptionLog.HandleAnyExceptionAddr_Variable
 0004:00006104       ExceptionLog.HandleOnExceptionAddr_Variable
 0004:00006108       ExceptionLog.HandleAutoExceptionAddr_Variable
 0004:0000610C       ExceptionLog.TerminateApplication
 0004:00006110       ExceptionLog.LastInitializationPtr
 0004:00006114       ExceptionLog.LastFinalizationPtr
 0004:00006118       ExceptionLog.IntraWeb_CreateServer
 0004:0000611C       ExceptionLog.IntraWeb_OnException_Old
 0004:00006120       ExceptionLog.IntraWeb_OnException_New
 0004:00006124       ExceptionLog.Indy_OnException
 0004:0000612C       ExceptionLog.IntraWeb_ShowMessage
 0004:00006130       ExceptionLog.IntraWeb_SendResponse
 0004:00006134       ExceptionLog.VCLHandleException
 0004:00006138       ExceptionLog.VCLShowException
 0004:0000613C       ExceptionLog.NTService_LogMessage
 0004:00006140       ExceptionLog.IndyThread_HandleException
 0004:00006144       ExceptionLog.DoneExcept
 0004:00006148       ExceptionLog.CGIHandleException
 0004:0000614C       ExceptionLog.ISAPIHandleException
 0004:00006150       ExceptionLog.CLXHandleException
 0004:00006154       ExceptionLog.CLXShowException
 0004:00006158       ExceptionLog.LastHTMLPage
 0004:0000615C       ExceptionLog.LastInitPointer
 0004:00006160       ExceptionLog.IntoInitialization
 0004:00006161       ExceptionLog.IntoFinalization
 0004:00006162       ExceptionLog.InitFInitException
 0004:00006164       ExceptionLog.OriginalThreadProc
 0004:00006168       ExceptionLog.IntraWebApplication
 0004:0000616C       ExceptionLog.IntraWebServerController
 0004:00006170       ExceptionLog.IntraWebCompressedPage
 0004:00006174       ExceptionLog.IntraWeb_Version
 0004:00006178       ExceptionLog.IntraWeb_NewEvent
 0004:0000617C       ExceptionLog.CurrentAsmErrorLine
 0004:00006180       ExceptionLog.CurrentGeneralErrorText
 0004:00006184       ExceptionLog.CurrentAsmErrorText
 0004:00006188       ExceptionLog.CurrentCPUErrorText
 0004:0000618C       ExceptionLog.OnlySafeCallExceptions
 0004:0000618D       ExceptionLog.CanHookLibraries
 0004:00006190       ExceptionLog.FreezeThread
 0004:00006194       ExceptionLog.MainThreadHandle
 0004:00006198       ExceptionLog.MainThreadTopOfStack
 0004:0000619C       ExceptionLog.LastExceptAddr
 0004:000061A0       ExceptionLog.RaisedExceptAddr
 0004:000061A4       ExceptionLog.LastExceptThreadID
 0004:000061A8       ExceptionLog.LastExceptObject
 0004:000061AC       ExceptionLog.LastDelphiException
 0004:000061B0       ExceptionLog.LastExceptMessage
 0004:000061B4       ExceptionLog.CustomExceptMessage
 0004:000061B8       ExceptionLog.LastExceptionRecord
 0004:000061BC       ExceptionLog.LastExceptionLog
 0004:000061C0       ExceptionLog.LastLog
 0004:000061C4       ExceptionLog.CanSendError_Show
 0004:000061C5       ExceptionLog.CanAttachScreenshot_Show
 0004:000061C6       ExceptionLog.CanCopy_Show
 0004:000061C7       ExceptionLog.CanSupport_Show
 0004:000061C8       ExceptionLog.CanSendMessage
 0004:000061C9       ExceptionLog.AbortOperation
 0004:000061CA       ExceptionLog.CanAttachScreenshot
 0004:000061CB       ExceptionLog.CanCopy
 0004:000061CC       ExceptionLog.DuplicatedException
 0004:000061D0       ExceptionLog.StartDir
 0004:000061D4       ExceptionLog.SynchronizeExcept
 0004:000061D8       ExceptionLog.SynchronizeRaise
 0004:000061DC       ExceptionLog.ThreadWrapperAddr
 0004:000061E0       ExceptionLog.InternalErrorCode
 0004:000061E4       ExceptionLog.InternalErrorMsg
 0004:000061E8       ExceptionLog.EurekaLogList
 0004:000061EC       ExceptionLog.UserEmail
 0004:000061F0       ExceptionLog.ThreadsCriticalSection
 0004:00006208       ExceptionLog.InactiveThreads
 0004:0000620C       ExceptionLog.EurekaLogUnitsList
 0004:00006210       ExceptionLog.ActivateEurekaLog
 0004:00006211       ExceptionLog.NotLoadDebugInfo
 0004:00006214       ExceptionLog.AutoCloseTimer
 0004:00006218       ExceptionLog.CurrentDialog
 0004:0000621C       ExceptionLog.UseTopMost
 0004:00006220       ExceptionLog.ExceptionsTime
 0004:00006224       ExceptionLog.ExceptionTime
 0004:0000622C       ExceptionLog.DbgSection
 0004:00006230       ExceptionLog.CurrentProcessWindowsList
 0004:00006234       ExceptionLog.IndyHooked
 0004:00006238       ExceptionLog.LastDumpCriticalSection
 0004:00006250       ExceptionLog.LastExceptionThreadID
 0004:00006254       ExceptionLog.LastExceptionCallStackAddress
 0004:00006258       ExceptionLog.LastExceptionCallStackSize
 0004:0000625C       ExceptionLog.LastExceptionCallStackDump
 0004:00006260       ExceptionLog.HandledCacheCount
 0004:00006264       ExceptionLog.HandledCache
 0004:00006354       ExceptionLog.HandledCacheCriticalSection
 0004:0000636C       ExceptionLog.DebugHook_Assigned
 0004:00006370       ExceptionLog.LastExceptionType
 0004:00006374       ExceptionLog.LastExceptionMessage
 0004:00006378       ExceptionLog.LastBugID
 0004:0000637C       ExceptionLog.DialogType
 0004:0000637D       ExceptionLog.IsFilterDialog
 0004:00006380       ExceptionLog.LeakTotalSize
 0004:00006384       ExceptionLog.LeakTotalCount
 0004:00006388       ExceptionLog.LeakAddr
 0004:0000638C       ExceptionLog.IDC_CURSOR
 0004:00006390       ExceptionLog.CannotUseThread
 0004:00006391       ExceptionLog.NoSynchronizeEvent
 0004:00006394       ExceptionLog.OutOfMemoryCache
 0004:00006398       ExceptionLog.Global_Execute
 0004:00006399       ExceptionLog.Global_Handled
 0004:0000639A       ExceptionLog.Global_Retry
 0004:0000639B       ExceptionLog.Global_CloseDialog
 0004:0000639C       ExceptionLog.OldGlobal_ExceptionRecord
 0004:000063C0       ExceptionLog.Global_ExceptionRecord
 0004:000063E4       ExceptionLog.MustFreeGlobalMappedObject
 0004:000063E8       ExceptionLog.Global_CurrentEvent
 0004:000063EC       ExceptionLog.Global_Password
 0004:000063F0       ExceptionLog.Global_LastInitPassword
 0004:000063F4       ExceptionLog.Global_AttachedFiles
 0004:000063F8       ExceptionLog.Global_WebFields
 0004:000063FC       ExceptionLog.Global_DataFields
 0004:00006400       ExceptionLog.Global_Module
 0004:00006404       ExceptionLog.Global_IntraWebText
 0004:00006408       ExceptionLog.Global_WebTextID
 0004:0000640C       ExceptionLog.Cached_LogFile
 0004:00006410       ExceptionLog.fDlgBack
 0004:00006414       ExceptionLog.fMemoBack
 0004:00006418       ExceptionLog.fActive
 0004:0000641C       ExceptionLog.fCaptionFont
 0004:00006420       ExceptionLog.fVariableFont
 0004:00006424       ExceptionLog.fFixedFont1
 0004:00006428       ExceptionLog.fFixedFont2
 0004:0000642C       ExceptionLog.fLinkFont
 0004:00006430       ExceptionLog.fLinkFont2
 0004:00006434       ExceptionLog.fBigFont
 0004:00006438       ExceptionLog.FixedFontSize
 0004:0000643C       ExceptionLog.CaptionFontName
 0004:00006440       ExceptionLog.FixedFontName1
 0004:00006444       ExceptionLog.FixedFontName2
 0004:00006448       ExceptionLog.NonClientMetrics
 0004:0000659C       ExceptionLog.fMonitor
 0004:000065A0       ExceptionLog.fSendBmp
 0004:000065A4       ExceptionLog.fMonitorInfo
 0004:000065BC       ExceptionLog.fListViewItems
 0004:000065C0       ExceptionLog.rSupport
 0004:000065D0       ExceptionLog.rClick
 0004:000065E0       ExceptionLog.SupportLinkActive
 0004:000065E1       ExceptionLog.ClickLinkActive
 0004:000065E4       ExceptionLog.OriginalWidth
 0004:000065E8       ExceptionLog.OriginalHeight
 0004:000065EC       ExceptionLog.RealLeft
 0004:000065F0       ExceptionLog.RealTop
 0004:000065F4       ExceptionLog.RealWidth
 0004:000065F8       ExceptionLog.RealHeight
 0004:000065FC       ExceptionLog.ListWidth
 0004:00006600       ExceptionLog.ListHeight
 0004:00006604       ExceptionLog.TextWidth
 0004:00006608       ExceptionLog.LeftButton
 0004:0000660C       ExceptionLog.TopButton
 0004:00006610       ExceptionLog.WindowState
 0004:00006614       ExceptionLog.ColWidths
 0004:00006654       ExceptionLog.DetailsActive
 0004:00006655       ExceptionLog.ShowInDetailsMode
 0004:00006658       ExceptionLog.MainDialog
 0004:0000665C       ExceptionLog.IsDialogShowed
 0004:00006660       ExceptionLog.DialogHeight
 0004:00006664       ExceptionLog.OldForegroundWnd
 0004:00006668       ExceptionLog.MonitorRect
 0004:00006678       ExceptionLog.CAPTION_HEIGHT
 0004:0000667C       ExceptionLog.FixedTmpOptionsFile
 0004:00006A7C       ExceptionLog.GlobalSendValues
 0004:00006A94       ExceptionLog.SendPosition
 0004:00006A98       ExceptionLog.SavedLastHTMLPage
 0004:00006A9C       ExceptionLog.PNG_ColoursCount
 0004:00006AA0       ExceptionLog.PNG_RowBytes
 0004:00006AA4       ExceptionLog.PNG_DataSize
 0004:00006AA8       ExceptionLog.PNG_ImgData
 0004:00006AAC       ExceptionLog.PNG_Data
 0004:00006AB0       ExceptionLog.PNG_HeaderData
 0004:00006AC0       ExceptionLog.PNG_Encode_Filter
 0004:00006AC4       ExceptionLog.PNG_Encode_Data
 0004:00006AC8       ExceptionLog.PNG_CRCList
 0004:00006EC8       ExceptionLog.PNG_pal
 0004:00006ECC       ExceptionLog.PNG_UsePal
 0004:00006ED0       ExceptionLog.PNG_HWindow
 0004:00006ED4       ExceptionLog.PNG_FocusWnd
 0004:00006ED8       ExceptionLog.PNG_Cursor
 0004:00006EDC       ExceptionLog.PNG_DCScreen
 0004:00006EE0       ExceptionLog.PNG_DCCompatible
 0004:00006EE4       ExceptionLog.PNG_Bitmap
 0004:00006EE8       ExceptionLog.PNG_Width
 0004:00006EEC       ExceptionLog.PNG_Height
 0004:00006EF0       Portscan.host
 0004:00006EF4       Portscan.startport
 0004:00006EF8       Portscan.stopport
 0004:00006EFC       Portscan.l
 0004:00006F00       Portscan.n
 0004:00006F04       Portscan.m
 0004:00006F08       Portscan.server
 0004:00006F18       Portscan.wsa
 0005:00000000       System.RaiseListPtr
 0005:00000004       System.InOutRes
 0005:00000008       Classes.GlobalLists
 0005:0000000C       ExceptionLog.LastThreadExceptionType
 0005:00000050       ExceptionLog.LastThreadExceptionAddr
 0005:00000054       ExceptionLog.CurrentStackPointer
 0005:00000058       ExceptionLog.LastStackPointer
 0005:0000005C       ExceptionLog.LastECX
 0005:00000060       ExceptionLog.CurrentContext
 0005:0000012C       ExceptionLog.CurrentExceptionRecord
 0005:0000017C       ExceptionLog.InUnhandledException
 0005:0000017D       ExceptionLog.NotCatchCallerThread
 0005:0000017E       ExceptionLog.RecursiveException
 0005:00000180       SysInit.TlsLast


Line numbers for ETypes(ETypes.pas) segment .text

   126 0001:00000000

Line numbers for EConsts(EConsts.pas) segment .itext

   739 0002:0000028C

Line numbers for ECore(ECore.pas) segment .text

   503 0001:00018478   504 0001:0001847E   505 0001:00018487   506 0001:000184AD
   508 0001:000184BC   509 0001:000184E0   510 0001:000184E5   512 0001:000184EA
   513 0001:000184FB   516 0001:00018513   517 0001:00018524   518 0001:0001853D
   521 0001:0001857D   522 0001:00018593   523 0001:000185A6   524 0001:000185C0
   525 0001:000185C3   526 0001:000185C6   527 0001:000185CE   528 0001:000185EC
   530 0001:00018648   531 0001:0001867B   532 0001:0001867D   533 0001:00018693
   534 0001:000186A9   535 0001:000186B5   536 0001:000186C3   570 0001:000186EC
   572 0001:000186EF   576 0001:000186F8   585 0001:000186FC   586 0001:0001873B
   587 0001:00018740   588 0001:0001875C   590 0001:00018773   592 0001:00018784
   593 0001:0001879F   594 0001:000187BC   595 0001:000187D3   597 0001:000187D6
   588 0001:000187D7   598 0001:000187DA   599 0001:000187F9   600 0001:00018815
   601 0001:00018826   613 0001:00018860   614 0001:0001886E   615 0001:00018870
   617 0001:0001887A   618 0001:0001887C   619 0001:0001887E   623 0001:00018888
   624 0001:0001888F   625 0001:00018890   627 0001:00018895   628 0001:00018898
   631 0001:0001889B   633 0001:000188A3   635 0001:000188AB   636 0001:000188B6
   637 0001:000188C5   638 0001:000188CF   642 0001:000188D4   644 0001:000188DC
   645 0001:000188E7   646 0001:000188F1   621 0001:000188F4   649 0001:000188FE
   650 0001:00018907   654 0001:0001890D   656 0001:00018912   657 0001:00018919
   658 0001:0001891A   660 0001:0001891F   661 0001:00018928   663 0001:00018929
   654 0001:0001892A   666 0001:0001892F   667 0001:00018932   670 0001:0001893C
   671 0001:00018957   672 0001:00018961   673 0001:00018968   675 0001:00018974
   677 0001:00018987   678 0001:000189B6   679 0001:000189C7   681 0001:000189CF
   682 0001:000189D9   691 0001:00018A04   692 0001:00018A2D   693 0001:00018A34
   694 0001:00018A4F   695 0001:00018A57   698 0001:00018A68   699 0001:00018A72
   702 0001:00018A88   704 0001:00018A90   705 0001:00018A9A   706 0001:00018AA9
   708 0001:00018AD4   709 0001:00018AE3   711 0001:00018B0E   712 0001:00018B1D
   714 0001:00018B24   722 0001:00018B7C   723 0001:00018B9F   725 0001:00018BA8
   728 0001:00018BB2   730 0001:00018BBF   731 0001:00018BC1   732 0001:00018BC4
   733 0001:00018BE3   735 0001:00018BEC   736 0001:00018BFF   737 0001:00018C0A
   738 0001:00018C30   739 0001:00018C3C   742 0001:00018C59   726 0001:00018C5A
   744 0001:00018C69   747 0001:00018C94   748 0001:00018C9A   749 0001:00018CA9
   759 0001:00018CBC   760 0001:00018CCA   762 0001:00018CD1   763 0001:00018CDE
   764 0001:00018CE4   765 0001:00018CF2   766 0001:00018D04   768 0001:00018D08
   769 0001:00018D1D   772 0001:00018D3C   774 0001:00018D4D   776 0001:00018D78
   777 0001:00018D7B   778 0001:00018D82   779 0001:00018D93   780 0001:00018DA4
   786 0001:00018DC4   787 0001:00018DCD   788 0001:00018DD2   789 0001:00018DDD
   790 0001:00018DEB   793 0001:00018DF4   794 0001:00018E0A   795 0001:00018E21
   798 0001:00018E58   799 0001:00018E5B   800 0001:00018E6E   801 0001:00018E75
   806 0001:00018E78   807 0001:00018EB6   808 0001:00018EBF   809 0001:00018EFC
   811 0001:00018F0C   813 0001:00018F4E   826 0001:00018F90   827 0001:00018FB8
   828 0001:00018FE9   830 0001:00018FF9   831 0001:00019020   879 0001:00019058
   880 0001:00019062   881 0001:00019064   884 0001:00019094   885 0001:0001909D
   888 0001:000190A1   889 0001:000190B1   890 0001:000190B9   891 0001:000190BB
   894 0001:000190C3   897 0001:000190E0   898 0001:000190E6   899 0001:000190F4
   911 0001:000190F8   912 0001:000190FC   913 0001:000190FE   916 0001:0001910E
   917 0001:00019126   919 0001:0001912B   927 0001:00019130   928 0001:00019152
   930 0001:0001915A   931 0001:0001916F   934 0001:00019174   936 0001:0001917A
   939 0001:0001918E   940 0001:000191A3   943 0001:000191AF   951 0001:000191D4
   952 0001:00019214   953 0001:0001921F   955 0001:00019234   956 0001:00019250
   957 0001:0001925B   958 0001:00019278   960 0001:0001928D   962 0001:00019299
   963 0001:000192A9   965 0001:000192AC   967 0001:000192BC   968 0001:000192CC
   969 0001:000192D3   970 0001:000192E7   971 0001:00019330   973 0001:00019336
   974 0001:00019344   975 0001:0001936B   977 0001:0001938C   982 0001:0001939D
   983 0001:000193AB   985 0001:000193AD   986 0001:000193BD   987 0001:000193CD
   992 0001:00019424   993 0001:00019449   994 0001:0001944E   995 0001:0001945C
   996 0001:0001946A   997 0001:0001946F   998 0001:00019496   999 0001:000194A0
  1005 0001:000194C8  1006 0001:000194D8  1007 0001:000194E9  1008 0001:000194F7
  1009 0001:00019505  1010 0001:0001950D  1012 0001:00019527  1013 0001:00019532
  1014 0001:0001953B  1015 0001:00019545  1016 0001:0001954F  1017 0001:00019559
  1018 0001:0001955C  1019 0001:00019568  1021 0001:0001956A  1022 0001:00019576
  1024 0001:0001957A  1025 0001:0001957F  1026 0001:0001958B  1027 0001:00019593
  1028 0001:00019595  1029 0001:000195A2  1030 0001:000195A7  1034 0001:000195AE
  1035 0001:000195BE  1036 0001:000195CA  1038 0001:000195CC  1039 0001:000195D0
  1040 0001:000195E6  1046 0001:000195F0  1047 0001:0001962D  1048 0001:00019632
  1050 0001:0001963E  1049 0001:0001963F  1051 0001:0001965C  1054 0001:00019660
  1056 0001:00019671  1057 0001:0001968E  1058 0001:00019698  1060 0001:0001969B
  1052 0001:0001969C  1062 0001:000196A8  1063 0001:000196C6  1064 0001:000196D6
  1078 0001:0001970C  1079 0001:0001973D  1080 0001:00019744  1081 0001:00019764
  1083 0001:00019782  1086 0001:000197A6  1087 0001:000197B0  1089 0001:000197CC
  1092 0001:000197EF  1093 0001:000197F6  1095 0001:000197FF  1153 0001:0001982C
  1154 0001:0001982F  1155 0001:00019835  1156 0001:0001983F  1157 0001:00019863
  1192 0001:0001986C  1193 0001:00019873  1199 0001:00019874  1200 0001:0001989D
  1201 0001:000198BA  1203 0001:000198CF  1204 0001:000198D7  1205 0001:00019909
  1208 0001:00019950  1209 0001:00019978  1212 0001:0001998C  1213 0001:00019996
  1215 0001:000199D0  1218 0001:00019A04  1219 0001:00019A23  1221 0001:00019A2C
  1222 0001:00019A5E  1223 0001:00019A79  1228 0001:00019AA8  1229 0001:00019AAB
  1230 0001:00019AB8  1231 0001:00019AC7  1234 0001:00019ACC  1235 0001:00019AF0
  1236 0001:00019AF2  1238 0001:00019AF8  1239 0001:00019AFA  1242 0001:00019AFF
  1243 0001:00019B20  1246 0001:00019B62  1247 0001:00019B8B  1253 0001:00019BB4
  1254 0001:00019BD2  1255 0001:00019BD4  1257 0001:00019BDE  1260 0001:00019BFF
  1262 0001:00019C04  1263 0001:00019C06  1264 0001:00019C0C  1266 0001:00019C2A
  1271 0001:00019C50  1272 0001:00019C54  1274 0001:00019C56  1277 0001:00019C75
  1279 0001:00019C7A  1280 0001:00019C7C  1282 0001:00019C82  1290 0001:00019C88
  1291 0001:00019C92  1292 0001:00019C97  1294 0001:00019C98  1295 0001:00019CC3
  1297 0001:00019CC5  1298 0001:00019CD9  1300 0001:00019CEC  1301 0001:00019CEE
  1302 0001:00019CF6  1304 0001:00019D12  1306 0001:00019D18  1307 0001:00019D50
  1310 0001:00019D68  1311 0001:00019D8A  1312 0001:00019D9A  1313 0001:00019DA4
  1314 0001:00019DA6  1334 0001:00019DEC  1335 0001:00019DF0  1336 0001:00019DF9
  1337 0001:00019E01  1343 0001:00019E08  1344 0001:00019E12  1345 0001:00019E1A
  1347 0001:00019E29  1348 0001:00019E3B  1349 0001:00019E49  1350 0001:00019E5D
  1351 0001:00019E71  1352 0001:00019E81  1353 0001:00019E91  1354 0001:00019EA1
  1355 0001:00019EB1  1356 0001:00019EBB  1345 0001:00019EBC  1357 0001:00019EC3
  1362 0001:00019ECC  1363 0001:00019ED0  1364 0001:00019EE5  1365 0001:00019EEC
  1366 0001:00019EF4  1369 0001:00019EF8  1370 0001:00019F0A  1371 0001:00019F0D
  1372 0001:00019F16  1375 0001:00019F30  1376 0001:00019F36  1377 0001:00019F4A
  1378 0001:00019F53  1379 0001:00019F5B  1382 0001:00019F60  1383 0001:00019F6B
  1384 0001:00019F72  1385 0001:00019F7E  1388 0001:00019F8C  1389 0001:00019F92
  1390 0001:00019F9B  1401 0001:00019FA0  1405 0001:00019FCF  1407 0001:00019FD8
  1408 0001:00019FE3  1409 0001:00019FE9  1411 0001:00019FFC  1412 0001:0001A001
  1413 0001:0001A012  1414 0001:0001A019  1415 0001:0001A01E  1418 0001:0001A058
  1419 0001:0001A063  1420 0001:0001A06A  1421 0001:0001A072  1422 0001:0001A07E
  1427 0001:0001A08C  1428 0001:0001A098  1430 0001:0001A0A0  1432 0001:0001A0A9
  1433 0001:0001A0B1  1434 0001:0001A0BF  1435 0001:0001A0CD  1436 0001:0001A0CF
  1435 0001:0001A0E3  1437 0001:0001A0E8  1438 0001:0001A0F6  1439 0001:0001A105
  1440 0001:0001A114  1441 0001:0001A120  1442 0001:0001A12B  1443 0001:0001A136
  1444 0001:0001A141  1445 0001:0001A14D  1446 0001:0001A158  1447 0001:0001A163
  1448 0001:0001A172  1449 0001:0001A181  1450 0001:0001A190  1451 0001:0001A19C
  1452 0001:0001A1AB  1453 0001:0001A1B9  1454 0001:0001A1C7  1455 0001:0001A1D5
  1456 0001:0001A1E3  1457 0001:0001A1F1  1458 0001:0001A1FF  1459 0001:0001A20E
  1461 0001:0001A219  1462 0001:0001A228  1463 0001:0001A236  1464 0001:0001A244
  1465 0001:0001A252  1466 0001:0001A260  1467 0001:0001A26F  1469 0001:0001A27D
  1470 0001:0001A28C  1471 0001:0001A29A  1472 0001:0001A2A8  1474 0001:0001A2B6
  1475 0001:0001A2C5  1476 0001:0001A2D4  1477 0001:0001A2E3  1478 0001:0001A2F1
  1480 0001:0001A2FF  1481 0001:0001A30A  1482 0001:0001A315  1483 0001:0001A320
  1484 0001:0001A32C  1485 0001:0001A337  1486 0001:0001A342  1487 0001:0001A34D
  1488 0001:0001A358  1489 0001:0001A363  1490 0001:0001A36E  1491 0001:0001A379
  1492 0001:0001A384  1493 0001:0001A38F  1494 0001:0001A39A  1495 0001:0001A3A6
  1496 0001:0001A3B2  1497 0001:0001A3C2  1500 0001:0001A3E2  1501 0001:0001A3EA
  1506 0001:0001A3FA  1508 0001:0001A410  1516 0001:0001A454  1517 0001:0001A45D
  1518 0001:0001A46B  1523 0001:0001A470  1524 0001:0001A477  1525 0001:0001A48D
  1526 0001:0001A49B  1528 0001:0001A4B2  1530 0001:0001A4C2  1540 0001:0001A4C8
  1542 0001:0001A4EC  1543 0001:0001A51A  1546 0001:0001A53C  1547 0001:0001A555
  1546 0001:0001A575  1549 0001:0001A578  1550 0001:0001A587  1551 0001:0001A597
  1552 0001:0001A59D  1553 0001:0001A5B2  1555 0001:0001A5E4  1558 0001:0001A5EF
  1559 0001:0001A601  1560 0001:0001A613  1561 0001:0001A625  1562 0001:0001A637
  1563 0001:0001A649  1564 0001:0001A65B  1565 0001:0001A66A  1566 0001:0001A679
  1567 0001:0001A683  1568 0001:0001A68D  1569 0001:0001A69C  1570 0001:0001A6A6
  1571 0001:0001A6B0  1572 0001:0001A6BF  1573 0001:0001A6D1  1574 0001:0001A6E3
  1575 0001:0001A6F0  1576 0001:0001A6FD  1577 0001:0001A70F  1578 0001:0001A71E
  1580 0001:0001A72B  1581 0001:0001A73D  1582 0001:0001A74A  1583 0001:0001A757
  1584 0001:0001A764  1585 0001:0001A776  1586 0001:0001A783  1588 0001:0001A795
  1589 0001:0001A7A7  1590 0001:0001A7B9  1591 0001:0001A7C6  1593 0001:0001A7D3
  1594 0001:0001A7E5  1595 0001:0001A7F7  1596 0001:0001A809  1597 0001:0001A81B
  1598 0001:0001A82D  1599 0001:0001A83F  1600 0001:0001A84E  1601 0001:0001A85D
  1602 0001:0001A867  1603 0001:0001A871  1604 0001:0001A87B  1605 0001:0001A88A
  1606 0001:0001A894  1607 0001:0001A89E  1608 0001:0001A8A8  1609 0001:0001A8B2
  1610 0001:0001A8BC  1611 0001:0001A8C6  1613 0001:0001A8D0  1614 0001:0001A8D9
  1615 0001:0001A8E7  1617 0001:0001A8FA  1618 0001:0001A912  1619 0001:0001A926
  1620 0001:0001A93A  1621 0001:0001A953  1622 0001:0001A96C  1623 0001:0001A985
  1624 0001:0001A99E  1615 0001:0001A99F  1625 0001:0001A9A9  1626 0001:0001A9B6
  1627 0001:0001A9BB  1626 0001:0001A9CF  1628 0001:0001A9D6  1630 0001:0001A9E3
  1687 0001:0001A9EC  1688 0001:0001A9F3  1689 0001:0001AA06  1690 0001:0001AA14
  1692 0001:0001AA2B  1694 0001:0001AA3B  1711 0001:0001AA40  1712 0001:0001AA66
  1713 0001:0001AA6D  1714 0001:0001AA72  1716 0001:0001AA74  1717 0001:0001AA98
  1718 0001:0001AA9A  1719 0001:0001AAA7  1714 0001:0001AAA8  1720 0001:0001AAAD
  1725 0001:0001AAD4  1726 0001:0001AAF6  1727 0001:0001AB05  1728 0001:0001AB0A
  1730 0001:0001AB0F  1731 0001:0001AB15  1732 0001:0001AB37  1733 0001:0001AB39
  1734 0001:0001AB46  1728 0001:0001AB47  1735 0001:0001AB4C  1740 0001:0001AB70
  1741 0001:0001AB7D  1742 0001:0001AB8C  1743 0001:0001AB96  1744 0001:0001AB9C
  1747 0001:0001ABAF  1748 0001:0001ABCD  1747 0001:0001ABEB  1749 0001:0001ABEE
  1751 0001:0001ABF8  1752 0001:0001AC1E  1754 0001:0001AC26  1755 0001:0001AC2E
  1758 0001:0001AC3C  1759 0001:0001AC51  1760 0001:0001AC66  1762 0001:0001AC7B
  1764 0001:0001AC86  1765 0001:0001AC95  1766 0001:0001ACA9  1769 0001:0001ACB9
  1772 0001:0001ACCE  1774 0001:0001ACEC  1775 0001:0001ACFB  1776 0001:0001AD1C
  1777 0001:0001AD37  1778 0001:0001AD46  1779 0001:0001AD67  1780 0001:0001AD82
  1781 0001:0001AD91  1782 0001:0001ADB2  1786 0001:0001ADCD  1788 0001:0001ADD8
  1789 0001:0001ADED  1790 0001:0001AE02  1792 0001:0001AE0D  1797 0001:0001AE23
  1799 0001:0001AE39  1800 0001:0001AE48  1801 0001:0001AE69  1805 0001:0001AE84
  1807 0001:0001AE93  1808 0001:0001AEA5  1809 0001:0001AEB7  1810 0001:0001AEC2
  1811 0001:0001AED6  1812 0001:0001AEE1  1814 0001:0001AEEB  1815 0001:0001AF0E
  1819 0001:0001AF26  1822 0001:0001AF43  1824 0001:0001AF4E  1825 0001:0001AF66
  1826 0001:0001AF7E  1829 0001:0001AF90  1831 0001:0001AF9B  1832 0001:0001AFAA
  1835 0001:0001AFBA  1836 0001:0001AFCF  1837 0001:0001AFE4  1838 0001:0001AFFE
  1839 0001:0001B018  1840 0001:0001B02D  1842 0001:0001B044  1843 0001:0001B04D
  1845 0001:0001B059  1848 0001:0001B063  1849 0001:0001B07A  1851 0001:0001B089
  1852 0001:0001B09B  1853 0001:0001B0A9  1854 0001:0001B0BB  1855 0001:0001B0CD
  1856 0001:0001B0DF  1857 0001:0001B0F1  1858 0001:0001B103  1859 0001:0001B115
  1862 0001:0001B136  1864 0001:0001B145  1865 0001:0001B157  1866 0001:0001B165
  1867 0001:0001B177  1868 0001:0001B189  1869 0001:0001B19B  1870 0001:0001B1AD
  1871 0001:0001B1BF  1872 0001:0001B1D1  1873 0001:0001B1E3  1875 0001:0001B201
  1877 0001:0001B213  1879 0001:0001B22D  1881 0001:0001B247  1883 0001:0001B256
  1884 0001:0001B26B  1885 0001:0001B285  1886 0001:0001B29F  1887 0001:0001B2B9
  1888 0001:0001B2CE  1889 0001:0001B2E8  1890 0001:0001B2FD  1891 0001:0001B308
  1893 0001:0001B325  1896 0001:0001B347  1897 0001:0001B358  1899 0001:0001B36D
  1900 0001:0001B382  1901 0001:0001B39C  1903 0001:0001B3B6  1904 0001:0001B3CB
  1905 0001:0001B3D6  1907 0001:0001B3EF  1909 0001:0001B3FA  1910 0001:0001B40F
  1914 0001:0001B426  1915 0001:0001B437  1917 0001:0001B44C  1918 0001:0001B461
  1919 0001:0001B476  1920 0001:0001B48B  1922 0001:0001B49A  1923 0001:0001B4AC
  1924 0001:0001B4BE  1925 0001:0001B4D6  1926 0001:0001B4EE  1927 0001:0001B506
  1928 0001:0001B518  1929 0001:0001B530  1930 0001:0001B548  1931 0001:0001B560
  1932 0001:0001B578  1933 0001:0001B590  1934 0001:0001B5A8  1938 0001:0001B5C0
  1939 0001:0001B5CB  1940 0001:0001B5DA  1942 0001:0001B5EA  1943 0001:0001B5FC
  1944 0001:0001B617  1946 0001:0001B61A  1947 0001:0001B624  1948 0001:0001B62F
  1949 0001:0001B639  1950 0001:0001B644  1952 0001:0001B64F  1953 0001:0001B65E
  1954 0001:0001B66D  1955 0001:0001B67C  1959 0001:0001B68D  1961 0001:0001B693
  1962 0001:0001B697  1963 0001:0001B69B  1964 0001:0001B69F  1968 0001:0001B6A5
  1969 0001:0001B6A9  1970 0001:0001B6AD  1971 0001:0001B6B1  1974 0001:0001B6B5
  1940 0001:0001B6C2  1977 0001:0001B6CB  1978 0001:0001B6EB  1981 0001:0001B6ED
  1982 0001:0001B700  1984 0001:0001B70A  2012 0001:0001B7F0  2013 0001:0001B812
  1978 0001:0001B813  2014 0001:0001B81C  2015 0001:0001B847  2016 0001:0001B84D
  2019 0001:0001B867  2020 0001:0001B86F  2022 0001:0001B87F  2030 0001:0001B96C
  2035 0001:0001B970  2039 0001:0001B974  2040 0001:0001B977  2044 0001:0001B978
  2045 0001:0001B97B  2062 0001:0001B97C  2063 0001:0001B992  2068 0001:0001B994
  2069 0001:0001B99D  2070 0001:0001B9A5  2071 0001:0001B9B3  2072 0001:0001B9BB
  2071 0001:0001B9D0  2073 0001:0001B9D5  2074 0001:0001B9E7  2075 0001:0001B9EE
  2076 0001:0001B9F8  2077 0001:0001BA08  2078 0001:0001BA13  2079 0001:0001BA1C
  2080 0001:0001BA27  2081 0001:0001BA32  2082 0001:0001BA3C  2083 0001:0001BA46
  2084 0001:0001BA50  2085 0001:0001BA5A  2086 0001:0001BA64  2087 0001:0001BA6B
  2088 0001:0001BA7B  2089 0001:0001BA8D  2090 0001:0001BA9A  2091 0001:0001BAA7
  2092 0001:0001BAB4  2093 0001:0001BAC1  2094 0001:0001BACE  2095 0001:0001BADB
  2097 0001:0001BAE5  2098 0001:0001BAEF  2099 0001:0001BAFC  2100 0001:0001BB09
  2101 0001:0001BB16  2102 0001:0001BB21  2103 0001:0001BB2E  2105 0001:0001BB3F
  2108 0001:0001BB50  2109 0001:0001BB5B  2110 0001:0001BB68  2117 0001:0001BB7A
  2119 0001:0001BB8A  2121 0001:0001BB9B  2123 0001:0001BBAB  2124 0001:0001BBB5
  2125 0001:0001BBC2  2127 0001:0001BBCF  2128 0001:0001BBDA  2129 0001:0001BBE5
  2130 0001:0001BBF0  2131 0001:0001BBF9  2132 0001:0001BC04  2133 0001:0001BC0F
  2134 0001:0001BC1A  2135 0001:0001BC25  2136 0001:0001BC30  2137 0001:0001BC3B
  2138 0001:0001BC46  2139 0001:0001BC51  2140 0001:0001BC5C  2141 0001:0001BC67
  2142 0001:0001BC74  2143 0001:0001BC7B  2144 0001:0001BC86  2146 0001:0001BC93
  2148 0001:0001BCAA  2149 0001:0001BCB2  2151 0001:0001BCC2  2154 0001:0001BE44
  2155 0001:0001BE4A  2156 0001:0001BE54  2157 0001:0001BE5B  2160 0001:0001BE60
  2161 0001:0001BE66  2162 0001:0001BE70  2163 0001:0001BE77  2166 0001:0001BE7C
  2167 0001:0001BE82  2168 0001:0001BE8C  2169 0001:0001BE93  2172 0001:0001BE98
  2173 0001:0001BE9E  2174 0001:0001BEA8  2175 0001:0001BEAF  2178 0001:0001BEB4
  2179 0001:0001BEBA  2180 0001:0001BEC4  2181 0001:0001BECB  2184 0001:0001BED0
  2185 0001:0001BED6  2186 0001:0001BEE0  2187 0001:0001BEE7  2190 0001:0001BEEC
  2191 0001:0001BF0F  2192 0001:0001BF1E  2193 0001:0001BF25  2197 0001:0001BF48
  2198 0001:0001BF4E  2199 0001:0001BF53  2203 0001:0001BF54  2204 0001:0001BF57
  2205 0001:0001BF5C  2209 0001:0001BF60  2210 0001:0001BF64  2212 0001:0001BF70
  2213 0001:0001BF76  2214 0001:0001BF7B  2217 0001:0001BF7C  2218 0001:0001BF82
  2219 0001:0001BF8C  2220 0001:0001BF93  2224 0001:0001BF98  2225 0001:0001BF9B
  2226 0001:0001BFA0  2230 0001:0001BFA4  2231 0001:0001BFAA  2232 0001:0001BFAF
  2236 0001:0001BFB0  2237 0001:0001BFB6  2238 0001:0001BFBB  2242 0001:0001BFBC
  2243 0001:0001BFC2  2244 0001:0001BFC7  2247 0001:0001BFC8  2248 0001:0001BFCE
  2249 0001:0001BFDB  2250 0001:0001BFE2  2253 0001:0001BFE8  2254 0001:0001BFEE
  2255 0001:0001BFFB  2256 0001:0001C002  2260 0001:0001C008  2261 0001:0001C00E
  2262 0001:0001C013  2265 0001:0001C014  2266 0001:0001C01A  2267 0001:0001C027
  2268 0001:0001C02E  2272 0001:0001C034  2273 0001:0001C03A  2274 0001:0001C03F
  2284 0001:0001C040  2285 0001:0001C046  2286 0001:0001C04B  2290 0001:0001C04C
  2291 0001:0001C04F  2292 0001:0001C054  2295 0001:0001C058  2296 0001:0001C05C
  2297 0001:0001C066  2298 0001:0001C06B  2301 0001:0001C070  2302 0001:0001C076
  2303 0001:0001C083  2304 0001:0001C08A  2307 0001:0001C090  2308 0001:0001C096
  2309 0001:0001C0A0  2310 0001:0001C0A7  2313 0001:0001C0AC  2314 0001:0001C0B2
  2315 0001:0001C0BC  2316 0001:0001C0C3  2319 0001:0001C0C8  2320 0001:0001C0CE
  2321 0001:0001C0D8  2322 0001:0001C0DF  2325 0001:0001C0E4  2326 0001:0001C0EA
  2327 0001:0001C0F4  2328 0001:0001C0FB  2332 0001:0001C100  2333 0001:0001C104
  2334 0001:0001C109  2337 0001:0001C10C  2338 0001:0001C112  2339 0001:0001C11C
  2340 0001:0001C123  2343 0001:0001C128  2344 0001:0001C12E  2345 0001:0001C138
  2346 0001:0001C13F  2349 0001:0001C144  2350 0001:0001C14A  2351 0001:0001C157
  2352 0001:0001C15E  2356 0001:0001C164  2357 0001:0001C16A  2358 0001:0001C16F
  2362 0001:0001C170  2363 0001:0001C17D  2364 0001:0001C182  2367 0001:0001C184
  2368 0001:0001C18A  2369 0001:0001C194  2370 0001:0001C19B  2373 0001:0001C1A0
  2374 0001:0001C1A6  2375 0001:0001C1B0  2376 0001:0001C1B7  2379 0001:0001C1BC
  2380 0001:0001C1C2  2381 0001:0001C1CC  2382 0001:0001C1D3  2386 0001:0001C1D8
  2387 0001:0001C1DC  2388 0001:0001C1E1  2391 0001:0001C1E4  2392 0001:0001C1EA
  2393 0001:0001C1F4  2394 0001:0001C1FB  2399 0001:0001C200  2400 0001:0001C203
  2401 0001:0001C208  2404 0001:0001C20C  2405 0001:0001C212  2406 0001:0001C21F
  2407 0001:0001C226  2411 0001:0001C22C  2412 0001:0001C232  2413 0001:0001C237
  2416 0001:0001C238  2417 0001:0001C23E  2418 0001:0001C24B  2419 0001:0001C252
  2422 0001:0001C258  2423 0001:0001C25E  2424 0001:0001C26B  2425 0001:0001C272
  2429 0001:0001C278  2430 0001:0001C27E  2431 0001:0001C283  2434 0001:0001C284
  2435 0001:0001C28A  2436 0001:0001C297  2437 0001:0001C29E  2440 0001:0001C2A4
  2441 0001:0001C2AA  2442 0001:0001C2B4  2443 0001:0001C2BB  2446 0001:0001C2C0
  2447 0001:0001C2C5  2448 0001:0001C2D0  2449 0001:0001C2D5  2452 0001:0001C2D8
  2453 0001:0001C2DC  2454 0001:0001C2E3  2455 0001:0001C2E8  2458 0001:0001C2EC
  2459 0001:0001C2F2  2460 0001:0001C2FF  2461 0001:0001C306  2464 0001:0001C30C
  2465 0001:0001C311  2466 0001:0001C31C  2467 0001:0001C321  2471 0001:0001C324
  2472 0001:0001C327  2473 0001:0001C32C  2478 0001:0001C330  2479 0001:0001C336
  2480 0001:0001C33B  2484 0001:0001C33C  2485 0001:0001C342  2486 0001:0001C347
  2490 0001:0001C348  2491 0001:0001C34E  2492 0001:0001C353  2496 0001:0001C354
  2497 0001:0001C35A  2498 0001:0001C35F  2501 0001:0001C360  2502 0001:0001C366
  2503 0001:0001C373  2504 0001:0001C37A  2507 0001:0001C380  2508 0001:0001C386
  2509 0001:0001C393  2510 0001:0001C39A  2513 0001:0001C3A0  2514 0001:0001C3A5
  2515 0001:0001C3B0  2516 0001:0001C3B5  2519 0001:0001C3B8  2520 0001:0001C3BC
  2521 0001:0001C3C6  2522 0001:0001C3CB  2527 0001:0001C3D0  2528 0001:0001C3FE
  2531 0001:0001C435  2532 0001:0001C43E  2534 0001:0001C44D  2536 0001:0001C462
  2539 0001:0001C477  2540 0001:0001C489  2541 0001:0001C494  2551 0001:0001C4CC
  2552 0001:0001C4DD  2553 0001:0001C4E3  2554 0001:0001C4F0  2555 0001:0001C502
  2556 0001:0001C525  2555 0001:0001C54A  2557 0001:0001C54D  2559 0001:0001C554
  2560 0001:0001C580  2561 0001:0001C591  2562 0001:0001C5AD  2564 0001:0001C5B6
  2567 0001:0001C5EE  2572 0001:0001C634  2573 0001:0001C664  2574 0001:0001C672
  2576 0001:0001C693  2578 0001:0001C695  2580 0001:0001C6AB  2582 0001:0001C6B4
  2583 0001:0001C6FB  2587 0001:0001C702  2588 0001:0001C728  2589 0001:0001C735
  2593 0001:0001C76A  2603 0001:0001C810  2615 0001:0001C81A  2619 0001:0001C81C
  2627 0001:0001C820  2629 0001:0001C848

Line numbers for ECore(ECore.pas) segment .itext

  2623 0002:00000294  2624 0002:0000029D  2626 0002:000002AC

Line numbers for EDebug(EDebug.pas) segment .text

   900 0001:0001D494   903 0001:0001D498   904 0001:0001D49A   908 0001:0001D49C
   911 0001:0001D4A0   912 0001:0001D4A2   919 0001:0001D4A4   920 0001:0001D4B3
   921 0001:0001D4BA   923 0001:0001D4C0   924 0001:0001D4C2   925 0001:0001D4C5
   926 0001:0001D4C9   928 0001:0001D4CD   929 0001:0001D4D2   930 0001:0001D4E3
   933 0001:0001D4EE   934 0001:0001D4F1   936 0001:0001D4F7   937 0001:0001D4FB
   926 0001:0001D4FD   941 0001:0001D501   943 0001:0001D50C   945 0001:0001D519
   951 0001:0001D528   952 0001:0001D534   953 0001:0001D538   956 0001:0001D55A
   957 0001:0001D560   958 0001:0001D56E   959 0001:0001D580   960 0001:0001D58E
   961 0001:0001D598   963 0001:0001D5A9   966 0001:0001D5C6   968 0001:0001D5D7
   976 0001:0001D5E4   977 0001:0001D5F1   979 0001:0001D5FC   980 0001:0001D605
   981 0001:0001D60E   977 0001:0001D60F   982 0001:0001D612   983 0001:0001D61E
   988 0001:0001D630   989 0001:0001D64A   991 0001:0001D655   992 0001:0001D666
   994 0001:0001D66F   997 0001:0001D690   998 0001:0001D69B   999 0001:0001D6A3
  1000 0001:0001D6A8  1001 0001:0001D6B4  1045 0001:0001D6C4  1046 0001:0001D6C7
  1048 0001:0001D6CB  1049 0001:0001D6D2  1051 0001:0001D6D4  1053 0001:0001D6D9
  1054 0001:0001D6DA  1056 0001:0001D6DE  1055 0001:0001D6DF  1060 0001:0001D6EE
  1062 0001:0001D6F2  1061 0001:0001D6F3  1064 0001:0001D705  1065 0001:0001D710
  1085 0001:0001D840  1087 0001:0001D84B  1086 0001:0001D84D  1088 0001:0001D85F
  1091 0001:0001D864  1093 0001:0001D86F  1092 0001:0001D871  1094 0001:0001D878
  1095 0001:0001D882  1098 0001:0001D884  1099 0001:0001D887  1100 0001:0001D896
  1103 0001:0001D898  1104 0001:0001D89B  1105 0001:0001D8AB  1110 0001:0001D8B0
  1111 0001:0001D8BA  1113 0001:0001D8BE  1112 0001:0001D8C0  1114 0001:0001D8CE
  1115 0001:0001D8D7  1119 0001:0001D8DC  1120 0001:0001D8E6  1123 0001:0001D8EA
  1124 0001:0001D8F7  1121 0001:0001D8F9  1126 0001:0001D908  1131 0001:0001D90C
  1132 0001:0001D916  1134 0001:0001D918  1135 0001:0001D91D  1138 0001:0001D946
  1139 0001:0001D949  1143 0001:0001D953  1144 0001:0001D956  1148 0001:0001D963
  1149 0001:0001D966  1153 0001:0001D973  1154 0001:0001D975  1159 0001:0001D977
  1160 0001:0001D979  1161 0001:0001D97B  1164 0001:0001D980  1165 0001:0001D986
  1166 0001:0001D993  1168 0001:0001D99E  1169 0001:0001D9A4  1172 0001:0001D9B4
  1173 0001:0001D9B9  1176 0001:0001D9BC  1177 0001:0001D9C6  1178 0001:0001D9D0
  1180 0001:0001D9D4  1179 0001:0001D9D6  1181 0001:0001D9E8  1184 0001:0001D9EC
  1186 0001:0001D9F7  1185 0001:0001D9F9  1187 0001:0001DA07  1188 0001:0001DA0A
  1194 0001:0001DA0C  1195 0001:0001DA31  1198 0001:0001DA37  1199 0001:0001DA4F
  1200 0001:0001DA51  1201 0001:0001DA53  1202 0001:0001DA55  1204 0001:0001DA5A
  1205 0001:0001DA6A  1207 0001:0001DA6E  1208 0001:0001DA70  1210 0001:0001DA72
  1211 0001:0001DA74  1202 0001:0001DA75  1213 0001:0001DA7A  1214 0001:0001DA80
  1216 0001:0001DA86  1196 0001:0001DA90  1218 0001:0001DA9E  1219 0001:0001DAAC
  1220 0001:0001DAB6  1227 0001:0001DAE8  1228 0001:0001DB06  1230 0001:0001DB14
  1231 0001:0001DB18  1233 0001:0001DB1A  1234 0001:0001DB24  1235 0001:0001DB32
  1238 0001:0001DB3A  1239 0001:0001DB3B  1236 0001:0001DB3C  1241 0001:0001DB59
  1242 0001:0001DB74  1243 0001:0001DB83  1244 0001:0001DB89  1245 0001:0001DB8F
  1246 0001:0001DB99  1248 0001:0001DBC0  1249 0001:0001DBCA  1251 0001:0001DBD4
  1256 0001:0001DBD8  1257 0001:0001DBE1  1258 0001:0001DBEE  1261 0001:0001DC05
  1262 0001:0001DC1D  1263 0001:0001DC24  1264 0001:0001DC2D  1265 0001:0001DC37
  1266 0001:0001DC41  1267 0001:0001DC48  1259 0001:0001DC5B  1269 0001:0001DC66
  1272 0001:0001DC7D  1273 0001:0001DC95  1274 0001:0001DC9C  1275 0001:0001DCA5
  1276 0001:0001DCAE  1277 0001:0001DCB8  1278 0001:0001DCC1  1279 0001:0001DCCB
  1280 0001:0001DCD2  1270 0001:0001DCE6  1282 0001:0001DCF1  1285 0001:0001DD08
  1286 0001:0001DD20  1287 0001:0001DD2A  1288 0001:0001DD31  1283 0001:0001DD3E
  1290 0001:0001DD49  1293 0001:0001DD64  1294 0001:0001DD7C  1295 0001:0001DD86
  1296 0001:0001DD8D  1291 0001:0001DD9A  1300 0001:0001DDA7  1301 0001:0001DDAD
  1303 0001:0001DDB5  1302 0001:0001DDB8  1304 0001:0001DDC0  1305 0001:0001DDC7
  1307 0001:0001DDD4  1308 0001:0001DDDB  1309 0001:0001DDE4  1310 0001:0001DDEB
  1311 0001:0001DE03  1312 0001:0001DE0A  1321 0001:0001DE16  1298 0001:0001DE21
  1324 0001:0001DE35  1371 0001:0001DE58  1372 0001:0001DE6A  1373 0001:0001DE73
  1374 0001:0001DE78  1375 0001:0001DE7D  1376 0001:0001DE82  1377 0001:0001DE87
  1378 0001:0001DE8C  1379 0001:0001DE91  1380 0001:0001DE96  1381 0001:0001DE9B
  1382 0001:0001DEA2  1385 0001:0001DEBC  1386 0001:0001DEC7  1387 0001:0001DED3
  1388 0001:0001DEDF  1389 0001:0001DEEB  1390 0001:0001DEF7  1391 0001:0001DF03
  1395 0001:0001DF14  1396 0001:0001DF17  1400 0001:0001DF1C  1401 0001:0001DF20
  1407 0001:0001DF24  1408 0001:0001DF31  1409 0001:0001DF3D  1410 0001:0001DF43
  1411 0001:0001DF47  1413 0001:0001DF63  1415 0001:0001DF70  1416 0001:0001DF7B
  1418 0001:0001DF86  1423 0001:0001DF90  1425 0001:0001DF99  1428 0001:0001DFC9
  1429 0001:0001DFD6  1431 0001:0001DFEF  1432 0001:0001DFFA  1434 0001:0001E008
  1435 0001:0001E014  1436 0001:0001E01E  1437 0001:0001E021  1439 0001:0001E027
  1440 0001:0001E02A  1441 0001:0001E02D  1442 0001:0001E03E  1443 0001:0001E047
  1444 0001:0001E04E  1448 0001:0001E055  1449 0001:0001E058  1453 0001:0001E05C
  1454 0001:0001E05F  1459 0001:0001E060  1460 0001:0001E06C  1461 0001:0001E074
  1462 0001:0001E07D  1464 0001:0001E091  1465 0001:0001E0A2  1466 0001:0001E0A4
  1461 0001:0001E0A5  1467 0001:0001E0AA  1472 0001:0001E0B0  1473 0001:0001E0B3
  1474 0001:0001E0B6  1475 0001:0001E0BF  1477 0001:0001E0D3  1478 0001:0001E0DC
  1479 0001:0001E0DE  1474 0001:0001E0DF  1480 0001:0001E0E4  1484 0001:0001E0EC
  1485 0001:0001E0F0  1491 0001:0001E0F4  1492 0001:0001E105  1493 0001:0001E111
  1494 0001:0001E119  1495 0001:0001E120  1497 0001:0001E13D  1499 0001:0001E14A
  1500 0001:0001E15B  1502 0001:0001E169  1507 0001:0001E174  1510 0001:0001E178
  1511 0001:0001E181  1513 0001:0001E187  1515 0001:0001E1A0  1516 0001:0001E1AB
  1518 0001:0001E1B9  1519 0001:0001E1C5  1520 0001:0001E1CF  1522 0001:0001E1D2
  1525 0001:0001E1D8  1526 0001:0001E1DB  1527 0001:0001E1E1  1528 0001:0001E1E6
  1529 0001:0001E1EB  1530 0001:0001E1F0  1531 0001:0001E1F7  1532 0001:0001E1FD
  1533 0001:0001E20D  1534 0001:0001E213  1535 0001:0001E223  1541 0001:0001E228
  1542 0001:0001E236  1544 0001:0001E23C  1545 0001:0001E23F  1546 0001:0001E242
  1547 0001:0001E254  1548 0001:0001E260  1549 0001:0001E26D  1550 0001:0001E277
  1552 0001:0001E288  1558 0001:0001E290  1559 0001:0001E29C  1560 0001:0001E2A8
  1561 0001:0001E2AF  1563 0001:0001E2CD  1564 0001:0001E2DA  1565 0001:0001E2EA
  1586 0001:0001E2F0  1587 0001:0001E2F7  1588 0001:0001E30C  1589 0001:0001E30E
  1591 0001:0001E324  1592 0001:0001E329  1593 0001:0001E32D  1594 0001:0001E32F
  1595 0001:0001E331  1596 0001:0001E332  1589 0001:0001E333  1597 0001:0001E336
  1605 0001:0001E33C  1606 0001:0001E362  1607 0001:0001E36A  1609 0001:0001E36C
  1612 0001:0001E379  1613 0001:0001E37A  1614 0001:0001E395  1618 0001:0001E39A
  1619 0001:0001E39B  1620 0001:0001E3A3  1623 0001:0001E3A4  1624 0001:0001E3A6
  1626 0001:0001E3A8  1628 0001:0001E3BC  1631 0001:0001E3C3  1632 0001:0001E3CB
  1633 0001:0001E3CC  1637 0001:0001E3DA  1638 0001:0001E3E2  1639 0001:0001E3E3
  1643 0001:0001E3F0  1644 0001:0001E3F8  1647 0001:0001E3F9  1651 0001:0001E41E
  1653 0001:0001E422  1655 0001:0001E426  1657 0001:0001E42A  1659 0001:0001E42C
  1660 0001:0001E433  1661 0001:0001E434  1662 0001:0001E435  1663 0001:0001E441
  1664 0001:0001E449  1665 0001:0001E45C  1670 0001:0001E484  1671 0001:0001E499
  1672 0001:0001E49E  1673 0001:0001E4A3  1674 0001:0001E4A8  1675 0001:0001E4AD
  1676 0001:0001E4B4  1677 0001:0001E4B7  1678 0001:0001E4BE  1685 0001:0001E4DC
  1686 0001:0001E4E5  1688 0001:0001E4EF  1689 0001:0001E4F1  1690 0001:0001E4F7
  1691 0001:0001E4F9  1692 0001:0001E4FB  1695 0001:0001E510  1696 0001:0001E518
  1697 0001:0001E525  1698 0001:0001E529  1700 0001:0001E52D  1701 0001:0001E532
  1703 0001:0001E539  1704 0001:0001E547  1705 0001:0001E54A  1707 0001:0001E55B
  1708 0001:0001E565  1709 0001:0001E56C  1693 0001:0001E56D  1711 0001:0001E57E
  1712 0001:0001E583  1714 0001:0001E593  1721 0001:0001E59C  1722 0001:0001E5A5
  1724 0001:0001E5AF  1725 0001:0001E5B5  1726 0001:0001E5BB  1727 0001:0001E5C1
  1728 0001:0001E5C3  1729 0001:0001E5C5  1732 0001:0001E5DD  1733 0001:0001E5E5
  1734 0001:0001E5F2  1735 0001:0001E5FA  1736 0001:0001E607  1737 0001:0001E60F
  1739 0001:0001E613  1740 0001:0001E618  1742 0001:0001E61F  1743 0001:0001E62D
  1744 0001:0001E630  1746 0001:0001E642  1747 0001:0001E64F  1748 0001:0001E65A
  1749 0001:0001E665  1730 0001:0001E666  1751 0001:0001E67B  1752 0001:0001E680
  1754 0001:0001E691  1761 0001:0001E69C  1762 0001:0001E6A2  1763 0001:0001E6A8
  1764 0001:0001E6AA  1767 0001:0001E6F4  1769 0001:0001E700  1770 0001:0001E705
  1771 0001:0001E70E  1773 0001:0001E712  1774 0001:0001E714  1771 0001:0001E717
  1776 0001:0001E71B  1777 0001:0001E727  1779 0001:0001E730  1784 0001:0001E738
  1785 0001:0001E73C  1786 0001:0001E740  1789 0001:0001E74A  1790 0001:0001E759
  1792 0001:0001E762  1804 0001:0001E768  1805 0001:0001E776  1806 0001:0001E783
  1807 0001:0001E785  1808 0001:0001E78C  1810 0001:0001E792  1811 0001:0001E799
  1812 0001:0001E7AA  1814 0001:0001E7B8  1816 0001:0001E7C2  1817 0001:0001E7CD
  1819 0001:0001E7D4  1820 0001:0001E7D6  1811 0001:0001E7DA  1824 0001:0001E7E3
  1825 0001:0001E7F7  1826 0001:0001E7F9  1829 0001:0001E801  1830 0001:0001E805
  1832 0001:0001E809  1834 0001:0001E813  1835 0001:0001E815  1837 0001:0001E81C
  1841 0001:0001E81E  1842 0001:0001E822  1843 0001:0001E831  1844 0001:0001E835
  1827 0001:0001E83E  1848 0001:0001E851  1849 0001:0001E853  1853 0001:0001E85C
  1854 0001:0001E864  1861 0001:0001E868  1862 0001:0001E876  1863 0001:0001E88A
  1864 0001:0001E88C  1867 0001:0001E890  1868 0001:0001E894  1872 0001:0001E898
  1873 0001:0001E8A7  1865 0001:0001E8AB  1876 0001:0001E8BE  1877 0001:0001E8CA
  1884 0001:0001E8D4  1885 0001:0001E8DF  1886 0001:0001E8F3  1887 0001:0001E8F5
  1890 0001:0001E8FA  1891 0001:0001E8FD  1895 0001:0001E901  1896 0001:0001E90E
  1888 0001:0001E910  1899 0001:0001E921  1900 0001:0001E923  1907 0001:0001E92C
  1908 0001:0001E94F  1909 0001:0001E95B  1910 0001:0001E960  1911 0001:0001E965
  1912 0001:0001E96C  1914 0001:0001E972  1915 0001:0001E979  1916 0001:0001E989
  1918 0001:0001E999  1920 0001:0001E9A2  1921 0001:0001E9AC  1922 0001:0001E9B6
  1924 0001:0001E9C7  1925 0001:0001E9CC  1915 0001:0001E9CF  1929 0001:0001E9DA
  1930 0001:0001E9ED  1931 0001:0001E9EF  1934 0001:0001E9F6  1935 0001:0001E9F9
  1937 0001:0001E9FD  1939 0001:0001EA05  1940 0001:0001EA0A  1941 0001:0001EA0F
  1943 0001:0001EA16  1947 0001:0001EA18  1948 0001:0001EA1B  1949 0001:0001EA28
  1950 0001:0001EA2E  1951 0001:0001EA3B  1952 0001:0001EA41  1932 0001:0001EA4A
  1956 0001:0001EA5B  1958 0001:0001EA61  1959 0001:0001EA6E  1960 0001:0001EA74
  1963 0001:0001EA9D  1964 0001:0001EAA5  1971 0001:0001EAD8  1972 0001:0001EADE
  1973 0001:0001EAE0  1975 0001:0001EAE2  1976 0001:0001EAE7  1977 0001:0001EAE9
  1978 0001:0001EAF7  1979 0001:0001EAFA  1980 0001:0001EAFE  1981 0001:0001EB00
  1982 0001:0001EB09  1989 0001:0001EB10  1990 0001:0001EB20  1991 0001:0001EB2E
  1992 0001:0001EB42  1993 0001:0001EB44  1994 0001:0001EB46  1997 0001:0001EB4A
  1998 0001:0001EB4E  2000 0001:0001EB53  2001 0001:0001EB59  2002 0001:0001EB5B
  2006 0001:0001EB5D  2007 0001:0001EB5F  2008 0001:0001EB6E  1995 0001:0001EB72
  2011 0001:0001EB85  2012 0001:0001EB92  2017 0001:0001EB9C  2018 0001:0001EBAE
  2019 0001:0001EBB1  2020 0001:0001EBB7  2025 0001:0001EBD4  2026 0001:0001EBE0
  2027 0001:0001EC07  2028 0001:0001EC0E  2032 0001:0001EC18  2033 0001:0001EC23
  2038 0001:0001EC24  2039 0001:0001EC2F  2040 0001:0001EC37  2041 0001:0001EC3C
  2042 0001:0001EC48  2049 0001:0001EC58  2050 0001:0001EC82  2051 0001:0001EC8F
  2053 0001:0001EC95  2054 0001:0001ECAC  2055 0001:0001ECB4  2057 0001:0001ECBA
  2058 0001:0001ECBF  2059 0001:0001ECDA  2060 0001:0001ECE9  2061 0001:0001ED00
  2062 0001:0001ED06  2063 0001:0001ED09  2066 0001:0001ED1D  2071 0001:0001ED4C
  2072 0001:0001ED65  2073 0001:0001ED7F  2074 0001:0001ED89  2075 0001:0001ED8D
  2076 0001:0001EDA1  2077 0001:0001EDA6  2081 0001:0001EDE0  2082 0001:0001EDE7
  2087 0001:0001EDE8  2088 0001:0001EDF3  2089 0001:0001EDFB  2090 0001:0001EE00
  2091 0001:0001EE08  2092 0001:0001EE0D  2093 0001:0001EE19  2100 0001:0001EE28
  2101 0001:0001EE52  2102 0001:0001EE5F  2104 0001:0001EE65  2105 0001:0001EE7C
  2106 0001:0001EE84  2108 0001:0001EE8A  2109 0001:0001EE8F  2110 0001:0001EEAA
  2111 0001:0001EEB9  2112 0001:0001EED0  2113 0001:0001EED6  2114 0001:0001EED9
  2117 0001:0001EEED  2125 0001:0001EF1C  2126 0001:0001EF20  2128 0001:0001EF23
  2130 0001:0001EF2E  2138 0001:0001EF30  2139 0001:0001EF3D  2140 0001:0001EF42
  2142 0001:0001EF46  2143 0001:0001EF4F  2144 0001:0001EF58  2145 0001:0001EF5A
  2146 0001:0001EF62  2148 0001:0001EF74  2149 0001:0001EF77  2152 0001:0001EF79
  2145 0001:0001EF7C  2154 0001:0001EF7F  2180 0001:0001EF8C  2181 0001:0001EF90
  2182 0001:0001EF92  2184 0001:0001EF9E  2187 0001:0001EFAD  2188 0001:0001EFB2
  2190 0001:0001EFC9  2191 0001:0001EFCB  2198 0001:0001EFD0  2199 0001:0001EFD6
  2200 0001:0001EFDD  2202 0001:0001EFE6  2203 0001:0001EFF1  2204 0001:0001F003
  2207 0001:0001F008  2208 0001:0001F022  2209 0001:0001F039  2210 0001:0001F03D
  2213 0001:0001F04F  2214 0001:0001F069  2215 0001:0001F073  2217 0001:0001F077
  2218 0001:0001F088  2221 0001:0001F092  2222 0001:0001F096  2224 0001:0001F0AC
  2225 0001:0001F0B1  2229 0001:0001F100  2230 0001:0001F112  2235 0001:0001F114
  2236 0001:0001F11F  2237 0001:0001F127  2238 0001:0001F12C  2239 0001:0001F138
  2246 0001:0001F148  2247 0001:0001F171  2248 0001:0001F17D  2249 0001:0001F198
  2250 0001:0001F1A0  2253 0001:0001F1A6  2254 0001:0001F1AB  2255 0001:0001F1CA
  2256 0001:0001F1DD  2257 0001:0001F1F8  2258 0001:0001F1FB  2259 0001:0001F1FE
  2261 0001:0001F216  2264 0001:0001F244  2265 0001:0001F24C  2267 0001:0001F253
  2268 0001:0001F266  2269 0001:0001F274  2271 0001:0001F287  2276 0001:0001F290
  2277 0001:0001F295  2279 0001:0001F297  2283 0001:0001F2A0  2285 0001:0001F2BB
  2295 0001:0001F2BC  2296 0001:0001F2D4  2297 0001:0001F2DD  2298 0001:0001F2E9
  2303 0001:0001F308  2304 0001:0001F31D  2305 0001:0001F335  2306 0001:0001F33E
  2307 0001:0001F344  2308 0001:0001F34A  2309 0001:0001F351  2312 0001:0001F3C4
  2313 0001:0001F3CD  2314 0001:0001F3EA  2315 0001:0001F403  2320 0001:0001F460
  2321 0001:0001F478  2322 0001:0001F481  2323 0001:0001F484  2324 0001:0001F48A
  2335 0001:0001F4A8  2336 0001:0001F4C6  2337 0001:0001F4E0  2338 0001:0001F4EA
  2339 0001:0001F4F6  2340 0001:0001F508  2342 0001:0001F51E  2343 0001:0001F52B
  2344 0001:0001F537  2346 0001:0001F561  2343 0001:0001F562  2347 0001:0001F565
  2340 0001:0001F568  2349 0001:0001F56D  2350 0001:0001F580  2351 0001:0001F58C
  2354 0001:0001F608  2355 0001:0001F613  2356 0001:0001F61B  2357 0001:0001F620
  2358 0001:0001F62C  2361 0001:0001F63C  2362 0001:0001F642  2363 0001:0001F64C
  2367 0001:0001F650  2368 0001:0001F656  2371 0001:0001F658  2372 0001:0001F661
  2373 0001:0001F67E  2374 0001:0001F68D  2379 0001:0001F6EC  2380 0001:0001F6FC
  2381 0001:0001F70D  2383 0001:0001F718  2385 0001:0001F720  2386 0001:0001F725
  2387 0001:0001F734  2390 0001:0001F736  2392 0001:0001F754  2393 0001:0001F759
  2394 0001:0001F769  2396 0001:0001F76B  2380 0001:0001F76C  2397 0001:0001F76F
  2398 0001:0001F774  2399 0001:0001F77C  2404 0001:0001F78C  2405 0001:0001F7A1
  2406 0001:0001F7B9  2407 0001:0001F7C2  2408 0001:0001F7CA  2413 0001:0001F840
  2414 0001:0001F859  2415 0001:0001F871  2416 0001:0001F87C  2418 0001:0001F87E
  2419 0001:0001F884  2420 0001:0001F88A  2422 0001:0001F890  2427 0001:0001F908
  2428 0001:0001F921  2429 0001:0001F939  2430 0001:0001F944  2432 0001:0001F946
  2433 0001:0001F94C  2435 0001:0001F952  2440 0001:0001F9C8  2441 0001:0001F9E1
  2442 0001:0001F9F9  2443 0001:0001FA04  2445 0001:0001FA06  2446 0001:0001FA0C
  2447 0001:0001FA12  2449 0001:0001FA18  2454 0001:0001FA90  2455 0001:0001FAA9
  2456 0001:0001FAC1  2457 0001:0001FACC  2459 0001:0001FACE  2460 0001:0001FAD4
  2461 0001:0001FADA  2463 0001:0001FAE0  2468 0001:0001FB58  2469 0001:0001FB71
  2470 0001:0001FB89  2471 0001:0001FB94  2473 0001:0001FB96  2474 0001:0001FB9C
  2476 0001:0001FBA2  2481 0001:0001FC18  2482 0001:0001FC31  2483 0001:0001FC49
  2484 0001:0001FC54  2486 0001:0001FC56  2487 0001:0001FC5C  2488 0001:0001FC62
  2490 0001:0001FC68  2495 0001:0001FCE0  2496 0001:0001FCF9  2497 0001:0001FD11
  2498 0001:0001FD1C  2500 0001:0001FD1E  2501 0001:0001FD24  2502 0001:0001FD2A
  2504 0001:0001FD32  2509 0001:0001FDA8  2510 0001:0001FDC1  2511 0001:0001FDD9
  2512 0001:0001FDE4  2514 0001:0001FDE6  2515 0001:0001FDEC  2516 0001:0001FDF2
  2518 0001:0001FDF8  2523 0001:0001FE70  2524 0001:0001FE89  2525 0001:0001FEA1
  2526 0001:0001FEAA  2527 0001:0001FEB9  2528 0001:0001FEC8  2529 0001:0001FED7
  2530 0001:0001FEE6  2531 0001:0001FEF0  2532 0001:0001FEF5  2533 0001:0001FEFB
  2534 0001:0001FF10  2535 0001:0001FF16  2536 0001:0001FF1D  2539 0001:0001FF94
  2540 0001:0001FF9F  2541 0001:0001FFA7  2542 0001:0001FFAC  2543 0001:0001FFB4
  2544 0001:0001FFB9  2545 0001:0001FFC1  2546 0001:0001FFC6  2547 0001:0001FFCE
  2548 0001:0001FFD3  2549 0001:0001FFDF  2556 0001:0001FFF0  2557 0001:0001FFF8
  2560 0001:0002000F  2561 0001:00020030  2562 0001:00020048  2564 0001:00020056
  2565 0001:00020064  2567 0001:00020081  2569 0001:00020091  2571 0001:000200A1
  2573 0001:000200B1  2575 0001:000200BE  2561 0001:000200C1  2576 0001:000200C4
  2577 0001:000200CE  2558 0001:000200E0  2581 0001:000200E5  2587 0001:00020144
  2588 0001:0002014A  2589 0001:0002014C  2590 0001:00020151  2593 0001:00020159
  2594 0001:0002015C  2596 0001:0002015D  2598 0001:00020167  2590 0001:0002016A
  2600 0001:0002016D  2617 0001:00020174  2618 0001:00020184  2619 0001:00020189
  2621 0001:00020193  2622 0001:00020197  2624 0001:00020214  2626 0001:00020229
  2628 0001:0002023E  2630 0001:00020253  2632 0001:00020268  2634 0001:0002027A
  2636 0001:0002028C  2638 0001:0002029E  2640 0001:000202B0  2642 0001:000202C2
  2644 0001:000202D4  2646 0001:000202E6  2648 0001:000202E8  2649 0001:000202EC
  2650 0001:000202F9  2619 0001:00020301  2652 0001:0002030B  2655 0001:00020314
  2656 0001:0002031A  2657 0001:00020332  2663 0001:00020338  2664 0001:00020342
  2666 0001:0002034D  2667 0001:00020353  2668 0001:00020359  2669 0001:00020375
  2664 0001:00020376  2670 0001:00020379  2673 0001:00020380  2674 0001:00020386
  2675 0001:00020390  2679 0001:00020394  2680 0001:0002039A  2683 0001:0002039C
  2684 0001:000203A5  2685 0001:000203B8  2693 0001:000203BC  2694 0001:000203C2
  2695 0001:000203CC  2699 0001:000203D0  2700 0001:000203D6  2703 0001:000203D8
  2704 0001:000203DE  2705 0001:000203E8  2709 0001:000203EC  2710 0001:000203F2
  2716 0001:000203F4  2717 0001:00020404  2718 0001:00020411  2719 0001:0002042B
  2720 0001:00020439  2722 0001:00020444  2724 0001:00020450  2726 0001:00020474
  2727 0001:00020476  2728 0001:00020488  2731 0001:0002048A  2720 0001:0002048B
  2731 0001:0002048E  2718 0001:00020492  2732 0001:00020498  2733 0001:0002049A
  2734 0001:000204A2  2740 0001:000204AC  2741 0001:000204BC  2742 0001:000204C5
  2743 0001:000204DF  2744 0001:000204ED  2745 0001:000204F8  2746 0001:00020505
  2748 0001:00020511  2749 0001:00020513  2750 0001:00020525  2751 0001:00020527
  2744 0001:00020528  2751 0001:0002052B  2742 0001:0002052F  2752 0001:00020535
  2753 0001:00020537  2754 0001:0002053F  2759 0001:0002054C  2760 0001:00020558
  2761 0001:0002055E  2762 0001:0002056F  2763 0001:00020589  2764 0001:0002059D
  2766 0001:000205AC  2767 0001:000205BA  2768 0001:000205BC  2769 0001:000205BE
  2761 0001:000205BF  2770 0001:000205C2  2771 0001:000205C4  2772 0001:000205CB
  2779 0001:000205D4  2780 0001:000205E1  2781 0001:00020600  2782 0001:00020602
  2783 0001:00020604  2785 0001:00020609  2786 0001:0002061A  2788 0001:0002062D
  2789 0001:0002063D  2792 0001:00020648  2796 0001:000206AC  2798 0001:000206C1
  2802 0001:000206C4  2803 0001:000206C9  2811 0001:000206CC  2812 0001:000206D8
  2814 0001:000206F9  2815 0001:00020700  2819 0001:0002070B  2820 0001:0002070D
  2822 0001:00020711  2827 0001:00020718  2828 0001:00020722  2829 0001:00020731
  2831 0001:00020742  2832 0001:00020749  2847 0001:00020750  2848 0001:00020778
  2849 0001:00020782  2850 0001:0002078D  2851 0001:00020797  2854 0001:000207A4
  2855 0001:000207B1  2857 0001:000207B5  2858 0001:000207C3  2860 0001:000207C5
  2861 0001:000207F1  2862 0001:00020811  2852 0001:00020831  2864 0001:0002083B
  2866 0001:00020870  2867 0001:00020896  2868 0001:0002089F  2870 0001:000208B3
  2873 0001:000208C4  2874 0001:000208D0  2876 0001:000208D4  2877 0001:000208E3
  2881 0001:000208FE  2884 0001:0002091D  2889 0001:0002093C  2891 0001:0002097C
  2893 0001:000209E0  2894 0001:00020A00  2896 0001:00020A10  2897 0001:00020A1C
  2898 0001:00020A3A  2902 0001:00020A44  2903 0001:00020A4C  2905 0001:00020A50
  2910 0001:00020A80  2911 0001:00020A8A  2912 0001:00020A99  2913 0001:00020AA8
  2918 0001:00020AB0  2919 0001:00020AC7  2920 0001:00020ACC  2921 0001:00020AE2
  2922 0001:00020AE7  2923 0001:00020AEE  2926 0001:00020B0C  2927 0001:00020B17
  2929 0001:00020B1E  2930 0001:00020B23  2932 0001:00020B28  2934 0001:00020B2F
  2935 0001:00020B34  2937 0001:00020B39  2940 0001:00020B48  2941 0001:00020B4C
  2942 0001:00020B5B  2943 0001:00020B5F  2944 0001:00020B6C  2946 0001:00020B72
  2947 0001:00020B86  2949 0001:00020B93  2957 0001:00020B98  2958 0001:00020B9B
  2959 0001:00020B9F  2960 0001:00020BA7  2961 0001:00020BAC  2962 0001:00020BB4
  2963 0001:00020BB9  2993 0001:00020BBC  2994 0001:00020BBF  2996 0001:00020BC0
  2997 0001:00020BC9  2998 0001:00020BD3  2999 0001:00020BDE  3000 0001:00020BE2
  3001 0001:00020BEE  3003 0001:00020BF7  3005 0001:00020C01  3008 0001:00020C14
  3009 0001:00020C18  3010 0001:00020C23  3011 0001:00020C2A  3012 0001:00020C3F
  3014 0001:00020C45  3015 0001:00020C53  3016 0001:00020C6B  3019 0001:00020C6D
  3003 0001:00020C6E  3022 0001:00020C71  3023 0001:00020C75  3024 0001:00020C83
  3025 0001:00020C88  3035 0001:00020C94  3036 0001:00020CA3  3037 0001:00020CCD
  3038 0001:00020CD4  3040 0001:00020CDC  3041 0001:00020CFA  3042 0001:00020CFC
  3043 0001:00020D08  3044 0001:00020D0C  3045 0001:00020D27  3047 0001:00020D33
  3048 0001:00020D42  3049 0001:00020D50  3050 0001:00020D5B  3051 0001:00020D76
  3052 0001:00020D7A  3054 0001:00020D81  3056 0001:00020D98  3057 0001:00020DA0
  3060 0001:00020DAA  3063 0001:00020DE8  3064 0001:00020DEF  3065 0001:00020DF1
  3067 0001:00020DF6  3068 0001:00020E06  3069 0001:00020E0F  3070 0001:00020E13
  3072 0001:00020E1A  3073 0001:00020E2A  3074 0001:00020E33  3075 0001:00020E37
  3077 0001:00020E3E  3078 0001:00020E4E  3079 0001:00020E57  3080 0001:00020E5B
  3082 0001:00020E62  3083 0001:00020E66  3086 0001:00020E6C  3087 0001:00020E77
  3088 0001:00020E83  3089 0001:00020E8F  3090 0001:00020E9B

Line numbers for EDebug(EDebug.pas) segment .itext

  3092 0002:000002C4

Line numbers for ELeaks(ELeaks.pas) segment .text

   135 0001:00020F48   136 0001:00020F52   137 0001:00020F5F   138 0001:00020F68
   139 0001:00020F6A   140 0001:00020F6C   142 0001:00020F70   143 0001:00020F73
   144 0001:00020F7D   145 0001:00020F7F   146 0001:00020F80   147 0001:00020F81
   140 0001:00020F82   149 0001:00020F86   154 0001:00020F8C   155 0001:00020F97
   156 0001:00020FA9   158 0001:00020FB0   159 0001:00020FC3   160 0001:00020FC5
   155 0001:00020FC6   162 0001:00020FCA   163 0001:00020FD4   171 0001:00020FDC
   172 0001:00020FDF   182 0001:00020FE1   183 0001:00020FE4   184 0001:00020FE7
   185 0001:00020FED   199 0001:00020FEF   200 0001:00020FF4   203 0001:00020FF5
   204 0001:00020FFA   208 0001:00020FFC   209 0001:00020FFF   211 0001:00021001
   212 0001:00021003   213 0001:00021006   216 0001:00021007   217 0001:0002100C
   247 0001:00021010   248 0001:0002101D   249 0001:0002101F   252 0001:0002104C
   253 0001:00021054   256 0001:00021058   257 0001:00021067   258 0001:0002106F
   259 0001:00021071   262 0001:00021079   267 0001:00021098   268 0001:000210A6
   269 0001:000210AF   270 0001:000210B8   273 0001:000210CE   275 0001:000210DE
   276 0001:000210E4   277 0001:000210EA   281 0001:000210F8   282 0001:000210FB
   285 0001:0002110C   290 0001:0002111F   291 0001:0002112F   292 0001:00021143
   296 0001:00021151   297 0001:00021161   304 0001:0002116C   306 0001:00021174
   308 0001:00021179   309 0001:0002117B   311 0001:0002117C   304 0001:0002117D
   312 0001:00021180   313 0001:00021182   316 0001:00021184   317 0001:00021191
   333 0001:0002120F   336 0001:00021218   337 0001:00021244   340 0001:00021248
   345 0001:00021253   347 0001:00021299   338 0001:000212A6   349 0001:000212AE
   361 0001:000212E4   362 0001:000212EB   363 0001:000212ED   366 0001:000212FD
   367 0001:00021315   369 0001:0002131A   381 0001:00021320   382 0001:00021322
   383 0001:00021324   387 0001:00021326   389 0001:0002132A   391 0001:0002132C
   394 0001:00021331   395 0001:00021338   396 0001:00021343   392 0001:0002134A
   398 0001:00021355   402 0001:00021358   403 0001:0002135B   422 0001:0002135C
   424 0001:0002136A   425 0001:0002136D   426 0001:00021370   427 0001:00021377
   431 0001:0002137A   432 0001:00021380   433 0001:00021386   436 0001:0002138C
   438 0001:00021391   440 0001:0002139D   441 0001:000213AF   444 0001:000213B1
   445 0001:000213B6   446 0001:000213BD   447 0001:000213C3   436 0001:000213C7
   448 0001:000213CC   455 0001:000213D4   457 0001:000213DB   458 0001:000213E2
   461 0001:000213E5   463 0001:000213E9   464 0001:000213F7   467 0001:000213F9
   469 0001:000213FE   471 0001:0002140B   472 0001:00021414   473 0001:00021425
   498 0001:0002142C   499 0001:0002143A   501 0001:0002143D   503 0001:0002144A
   504 0001:0002144E   505 0001:00021453   507 0001:00021467   512 0001:00021469
   514 0001:0002146F   515 0001:0002147F   516 0001:0002149F   518 0001:000214B3
   519 0001:000214B6   523 0001:000214BF   526 0001:000214D1   527 0001:000214D4
   530 0001:000214DD   533 0001:000214F7   534 0001:000214FA   537 0001:00021503
   540 0001:0002151B   541 0001:0002151E   544 0001:00021527   547 0001:0002153F
   548 0001:00021542   551 0001:0002154B   554 0001:0002155D   555 0001:00021560
   558 0001:00021566   561 0001:00021578   562 0001:0002157B   565 0001:00021581
   568 0001:00021592   569 0001:00021595   572 0001:0002159B   574 0001:000215A7
   575 0001:000215B7   577 0001:000215C8   578 0001:000215CB   583 0001:000215CF
   585 0001:000215D9   501 0001:000215DC   589 0001:000215E3   590 0001:000215E6
   591 0001:000215E8   594 0001:000215EE   596 0001:000215F3   597 0001:00021609
   598 0001:00021616   602 0001:00021619   603 0001:0002161A   592 0001:0002161D
   606 0001:00021624   618 0001:0002162C   619 0001:00021636   622 0001:0002163F
   625 0001:00021641   626 0001:00021645   627 0001:00021648   628 0001:00021659
   629 0001:00021664   630 0001:0002166F   633 0001:00021679   634 0001:00021683
   637 0001:00021689   640 0001:00021690   642 0001:0002169A   644 0001:000216A3
   645 0001:000216AA   646 0001:000216AF   647 0001:000216B7   651 0001:000216BF
   652 0001:000216C5   653 0001:000216CB   654 0001:000216CF   657 0001:000216D4
   658 0001:000216DE   666 0001:000216E8   667 0001:000216F1   668 0001:000216F5
   669 0001:000216F7   672 0001:00021700   673 0001:00021708   676 0001:00021715
   678 0001:0002171D   681 0001:00021721   683 0001:0002172A   686 0001:00021731
   689 0001:00021735   690 0001:00021740   693 0001:0002174A   695 0001:00021754
   696 0001:00021758   697 0001:00021764   699 0001:0002176F   700 0001:0002177F
   702 0001:0002178E   710 0001:00021798   713 0001:0002179F   715 0001:000217A8
   716 0001:000217B2   719 0001:000217BD   724 0001:000217C8   725 0001:000217CB
   727 0001:000217E0   728 0001:000217F3   750 0001:000217F8   751 0001:000217FF
   759 0001:00021800   760 0001:00021803   762 0001:00021805   765 0001:00021807
   785 0001:0002180A   788 0001:0002180B   789 0001:00021810   793 0001:00021814
   794 0001:00021819   795 0001:0002181C   797 0001:00021820   798 0001:00021827
   801 0001:00021830   804 0001:0002183D   806 0001:00021848   807 0001:00021851
   809 0001:00021865   812 0001:00021879   813 0001:00021884   818 0001:0002188C
   819 0001:00021895   821 0001:000218A2   824 0001:000218AB   825 0001:000218B4
   830 0001:000218B8   831 0001:000218C4   833 0001:000218D1   835 0001:000218DA
   836 0001:000218E9   839 0001:000218F6   841 0001:00021904   842 0001:0002190D
   843 0001:0002191F   851 0001:00021928   853 0001:0002192A   852 0001:0002192D
   854 0001:00021937   859 0001:00021938   860 0001:0002193B   862 0001:00021940
   864 0001:00021958   865 0001:0002195C   860 0001:0002195D   866 0001:00021962
   867 0001:00021971   869 0001:00021976   871 0001:0002199A   872 0001:0002199E
   867 0001:0002199F   873 0001:000219A4   877 0001:000219A8   878 0001:000219AA
   880 0001:000219B2   881 0001:000219C8   886 0001:000219CC   887 0001:000219D4
   889 0001:000219DA   890 0001:000219E4   892 0001:000219E8   894 0001:000219F5
   895 0001:000219FF   896 0001:00021A06   897 0001:00021A0C   898 0001:00021A10
   900 0001:00021A14   890 0001:00021A1E   902 0001:00021A22   908 0001:00021A28
   909 0001:00021A31   910 0001:00021A38   911 0001:00021A3B   913 0001:00021A3D
   914 0001:00021A47   916 0001:00021A54   917 0001:00021A58   918 0001:00021A5B
   920 0001:00021A5E   921 0001:00021A62   922 0001:00021A65   923 0001:00021A6E
   948 0001:00021A74   949 0001:00021A7F   951 0001:00021A84   954 0001:00021A95
   955 0001:00021A9C   957 0001:00021AA4   959 0001:00021AA6   960 0001:00021AB0
   963 0001:00021AD1   967 0001:00021AF2   969 0001:00021AF6   970 0001:00021B0F
   972 0001:00021B20   973 0001:00021B26   976 0001:00021B2B   957 0001:00021B2C
   979 0001:00021B35   981 0001:00021B37   982 0001:00021B41   984 0001:00021B51
   988 0001:00021B72   990 0001:00021B76   991 0001:00021B8F   993 0001:00021BA0
   994 0001:00021BA6   997 0001:00021BA8   979 0001:00021BA9   999 0001:00021BAE
  1009 0001:00021BB8  1010 0001:00021BE4  1012 0001:00021BE8  1013 0001:00021BF2
  1014 0001:00021BF4  1015 0001:00021BF8  1016 0001:00021BFE  1018 0001:00021C02
  1021 0001:00021C16  1024 0001:00021C20  1026 0001:00021C42  1028 0001:00021C53
  1030 0001:00021C59  1031 0001:00021C5D  1032 0001:00021C61  1035 0001:00021C63
  1016 0001:00021C66  1037 0001:00021C6A  1043 0001:00021C98  1044 0001:00021CB8
  1045 0001:00021CBA  1047 0001:00021CC0  1048 0001:00021CC6  1050 0001:00021CCA
  1052 0001:00021CD6  1053 0001:00021CDE  1055 0001:00021CF1  1056 0001:00021CF3
  1059 0001:00021CF5  1048 0001:00021CF8  1061 0001:00021CFC  1063 0001:00021D24
  1064 0001:00021D27  1077 0001:00021D30  1078 0001:00021D40  1079 0001:00021D4C
  1081 0001:00021D58  1083 0001:00021D68  1085 0001:00021D76  1086 0001:00021D82
  1087 0001:00021D8E  1095 0001:00021D9A  1098 0001:00021DA6  1105 0001:00021E24
  1106 0001:00021E26  1107 0001:00021E2B  1109 0001:00021E2F  1111 0001:00021E3D
  1112 0001:00021E44  1107 0001:00021E47  1114 0001:00021E4B  1121 0001:00021E4C
  1122 0001:00021E4F  1123 0001:00021E5E  1129 0001:00021E60  1130 0001:00021E80
  1132 0001:00021E89  1134 0001:00021E95  1135 0001:00021E9D  1138 0001:00021EBA
  1140 0001:00021EC7  1141 0001:00021EDD  1144 0001:00021F10  1145 0001:00021F13
  1146 0001:00021F22  1159 0001:00021F24  1167 0001:00021F29  1168 0001:00021F2F
  1174 0001:00021F33  1175 0001:00021F40  1184 0001:00021F50  1194 0001:00021F59
  1196 0001:00021F5D  1197 0001:00021F6C  1198 0001:00021F7F  1199 0001:00021F88
  1200 0001:00021F8C  1208 0001:00021F9E  1168 0001:00021FA1  1210 0001:00021FA5
  1215 0001:00021FAC  1216 0001:00021FB0  1218 0001:00021FB9  1219 0001:00021FBF
  1221 0001:00021FC3  1222 0001:00021FCA  1219 0001:00021FCD  1224 0001:00021FD1
  1229 0001:00021FD4  1230 0001:00021FD9  1232 0001:00021FE2  1233 0001:00021FE8
  1235 0001:00021FEC  1236 0001:00021FEE  1237 0001:00021FF1  1233 0001:00021FF9
  1239 0001:00021FFD  1244 0001:00022004  1245 0001:00022008  1246 0001:0002200E
  1248 0001:00022012  1249 0001:0002201F  1246 0001:00022022  1251 0001:00022026
  1270 0001:0002202C  1271 0001:00022035  1272 0001:00022039  1273 0001:00022041
  1275 0001:00022047  1277 0001:00022050  1279 0001:00022056  1280 0001:0002205A
  1281 0001:00022068  1283 0001:0002206E  1284 0001:00022073  1286 0001:00022077
  1288 0001:0002208E  1290 0001:00022093  1273 0001:0002209C  1292 0001:000220A2
  1293 0001:000220AD  1302 0001:000220B4  1303 0001:000220CC  1305 0001:000220D9
  1306 0001:000220E7  1309 0001:000220F4  1310 0001:00022103  1312 0001:00022114
  1313 0001:00022121  1314 0001:0002212B  1316 0001:00022139  1318 0001:0002214C
  1319 0001:00022156  1325 0001:0002216C  1332 0001:0002217E  1333 0001:0002218B
  1342 0001:00022190  1343 0001:0002219D  1352 0001:000221A2  1353 0001:000221AF
  1362 0001:000221B4  1363 0001:000221C1  1372 0001:000221C6  1373 0001:000221D3
  1382 0001:000221D8  1383 0001:000221E5  1389 0001:000221EA  1390 0001:000221F7
  1395 0001:00022209  1396 0001:00022216  1397 0001:00022220  1398 0001:0002222D
  1401 0001:0002224E  1435 0001:00022287  1459 0001:00022520  1460 0001:00022549
  1461 0001:00022566  1463 0001:0002257B  1464 0001:00022583  1465 0001:000225B5
  1483 0001:000225FC  1484 0001:00022604  1485 0001:00022609  1486 0001:00022613
  1488 0001:00022617  1489 0001:00022623  1490 0001:0002262A  1492 0001:00022637
  1494 0001:00022644  1495 0001:0002264E  1496 0001:00022652  1497 0001:00022667
  1499 0001:0002266B  1500 0001:0002266D  1502 0001:0002267B  1503 0001:0002267E
  1506 0001:00022681  1507 0001:0002268F  1509 0001:000226A2  1511 0001:000226A9
  1512 0001:000226AC  1513 0001:000226B7  1514 0001:000226B9  1515 0001:000226BA
  1516 0001:000226C2  1520 0001:000226D1  1522 0001:000226E4  1523 0001:000226ED
  1524 0001:000226FC  1526 0001:0002271D  1527 0001:0002272E  1542 0001:00022734
  1543 0001:0002273A  1544 0001:00022753  1545 0001:0002275D  1550 0001:00022778
  1551 0001:0002277E  1553 0001:00022780  1555 0001:00022798  1557 0001:000227A2
  1558 0001:000227B1  1559 0001:000227B9  1560 0001:000227C0  1561 0001:000227C8
  1563 0001:000227CF  1564 0001:000227DD  1566 0001:000227E7  1569 0001:000227F0
  1570 0001:000227F8  1572 0001:000227FF  1575 0001:0002286C  1576 0001:0002286F
  1578 0001:00022878  1579 0001:00022888  1581 0001:0002288F  1588 0001:000228B4
  1589 0001:000228D6  1590 0001:000228FC  1591 0001:00022916  1594 0001:0002293C
  1595 0001:0002293F  1596 0001:00022952  1598 0001:00022954  1599 0001:00022969
  1601 0001:00022972  1602 0001:00022979  1603 0001:00022987  1605 0001:000229C3
  1609 0001:000229C5  1612 0001:000229CC  1613 0001:000229DB  1616 0001:000229EA
  1617 0001:000229F1  1618 0001:000229F8  1621 0001:000229FF  1622 0001:00022A06
  1625 0001:00022A0D  1628 0001:00022A14  1629 0001:00022A1B  1630 0001:00022A22
  1633 0001:00022A29  1639 0001:00022A33  1640 0001:00022A3D  1643 0001:00022AE0
  1645 0001:00022AE3  1648 0001:00022AEA  1651 0001:00022AEF  1653 0001:00022AF9
  1654 0001:00022AFE  1657 0001:00022B00  1658 0001:00022B06  1659 0001:00022B25
  1660 0001:00022B44  1661 0001:00022B5F  1663 0001:00022B69  1664 0001:00022B77
  1666 0001:00022B7C  1667 0001:00022B9E  1669 0001:00022BA7  1670 0001:00022BAC
  1674 0001:00022BB6  1676 0001:00022BBD  1678 0001:00022BD1  1680 0001:00022BEC
  1683 0001:00022CCC  1684 0001:00022CD2  1685 0001:00022CE0  1686 0001:00022CEE
  1688 0001:00022D0C  1690 0001:00022D27  1698 0001:00022D54  1700 0001:00022D72

Line numbers for ELeaks(ELeaks.pas) segment .itext

  1694 0002:000002CC  1695 0002:000002D8  1697 0002:000002DD

Line numbers for EDisAsm(EDisAsm.pas) segment .text

   428 0001:000283E0   429 0001:000283FE   430 0001:00028402   432 0001:00028421
   433 0001:0002843C   447 0001:00028480   448 0001:00028483   449 0001:00028493
   450 0001:0002849C   453 0001:000284A0   454 0001:000284A3   455 0001:000284B4
   456 0001:000284BD   459 0001:000284C0   460 0001:000284C3   461 0001:000284D4
   462 0001:000284DC   467 0001:000284E0   468 0001:00028501   469 0001:0002850D
   470 0001:00028515   471 0001:00028537   472 0001:00028543   473 0001:00028569
   474 0001:000285B6   483 0001:000285F4   484 0001:000285F7   486 0001:00028600
   487 0001:00028610   489 0001:00028617   490 0001:0002861E   499 0001:00028620
   500 0001:00028623   502 0001:0002862C   503 0001:0002863C   505 0001:00028643
   506 0001:0002864A   527 0001:0002864C   528 0001:0002866F   529 0001:0002867B
   532 0001:000286CA   533 0001:000286D6   535 0001:000286E4   536 0001:000286EB
   538 0001:00028725   551 0001:0002875C   552 0001:00028779   553 0001:0002878E
   554 0001:000287A7   557 0001:000287C2   558 0001:000287F6   559 0001:00028807
   560 0001:00028815   561 0001:00028823   562 0001:00028831   563 0001:0002883F
   564 0001:00028848   566 0001:00028856   567 0001:0002887A   568 0001:00028888
   570 0001:00028894   572 0001:000288A3   573 0001:000288B3   577 0001:000288C3
   578 0001:000288F6   579 0001:00028904   580 0001:00028912   581 0001:00028920
   582 0001:0002892E   583 0001:0002893C   584 0001:0002894A   586 0001:00028956
   587 0001:0002895B   590 0001:00028967   592 0001:00028970   595 0001:00028984
   596 0001:0002898D   600 0001:0002899F   601 0001:000289AB   605 0001:000289BD
   606 0001:000289C9   610 0001:000289DB   611 0001:000289E7   614 0001:000289F7
   618 0001:00028B3C   619 0001:00028B5A   620 0001:00028B6C   623 0001:00028B84
   625 0001:00028B8A   626 0001:00028B98   629 0001:00028B9D   632 0001:00028BBD
   633 0001:00028BC9   636 0001:00028BE5   637 0001:00028BFD   639 0001:00028C07
   642 0001:00028C17   644 0001:00028C2A   645 0001:00028C55   646 0001:00028C68
   647 0001:00028C93   653 0001:00028C98   655 0001:00028CA3   656 0001:00028CCE
   657 0001:00028CE1   658 0001:00028D0C   663 0001:00028D11   664 0001:00028D21
   665 0001:00028D54   666 0001:00028D65   667 0001:00028D76   668 0001:00028D87
   669 0001:00028D98   670 0001:00028DA9   671 0001:00028DBA   672 0001:00028DCB
   676 0001:00028DDC   677 0001:00028E0F   678 0001:00028E1D   679 0001:00028E2B
   680 0001:00028E39   681 0001:00028E47   682 0001:00028E5D   683 0001:00028E6B
   684 0001:00028E79   686 0001:00028E85   688 0001:00028E8A   689 0001:00028E93
   694 0001:00028EA0   696 0001:00028EB0   700 0001:00028EBE   701 0001:00028ECE
   702 0001:00028EF3   705 0001:00028EFE   709 0001:00028F29   710 0001:00028F38
   711 0001:00028F63   715 0001:000290A8   716 0001:000290D8   718 0001:000290DF
   720 0001:00029147   721 0001:00029150   723 0001:0002915F   725 0001:0002916E
   727 0001:0002917D   728 0001:00029186   730 0001:00029192   732 0001:0002919E
   734 0001:000291AA   736 0001:000291BB   738 0001:000291C7   740 0001:000291D3
   742 0001:000291E1   744 0001:000291ED   746 0001:000291F9   749 0001:00029200
   751 0001:00029267   754 0001:0002926C   755 0001:00029275   757 0001:00029289
   758 0001:00029290   759 0001:00029299   761 0001:000292B5   765 0001:000292EA
   768 0001:000292FB   771 0001:00029300   772 0001:00029329   776 0001:00029335
   779 0001:00029346   782 0001:0002934B   783 0001:00029374   787 0001:00029380
   791 0001:00029391   799 0001:000293AC   800 0001:000293D2   806 0001:000293DE
   807 0001:000293F1   808 0001:00029400   809 0001:0002940F   810 0001:0002941D
   812 0001:00029422   813 0001:00029433   814 0001:0002943F   815 0001:0002946E
   820 0001:000294C0   821 0001:000294C7   822 0001:000294D2   821 0001:000294F8
   823 0001:000294FD   824 0001:0002950B   825 0001:00029517   827 0001:00029546
   833 0001:00029598   834 0001:000295AB   835 0001:000295BA   836 0001:000295C9
   837 0001:000295D7   840 0001:000295DC   842 0001:000295ED   844 0001:00029607
   845 0001:0002963D   847 0001:0002968A   849 0001:000296A4   850 0001:000296DA
   855 0001:0002972C   856 0001:00029735   859 0001:00029783   860 0001:000297BF
   861 0001:000297CF   867 0001:000297F3   868 0001:0002981C   872 0001:00029828
   875 0001:00029838   876 0001:00029861   880 0001:0002986D   883 0001:00029888
   884 0001:000298C2   885 0001:000298D0   886 0001:000298DE   887 0001:000298EC
   888 0001:000298FA   889 0001:00029908   895 0001:00029916   896 0001:0002993F
   900 0001:00029946   905 0001:00029A68   906 0001:00029A74   908 0001:00029ACE
   909 0001:00029AD3   911 0001:00029AF3   912 0001:00029B01   914 0001:00029B37
   917 0001:00029B68   918 0001:00029B71   920 0001:00029BA5   925 0001:00029BB3
   926 0001:00029BBA   927 0001:00029BED   933 0001:00029C0D   934 0001:00029C17
   935 0001:00029C23   937 0001:00029C2D   941 0001:00029C4D   942 0001:00029C56
   943 0001:00029C6A   944 0001:00029C7B   945 0001:00029C8C   948 0001:00029C9D
   949 0001:00029CB1   950 0001:00029CC2   951 0001:00029CD0   957 0001:00029CDE
   958 0001:00029CE5   963 0001:00029CEE   967 0001:00029D1E   969 0001:00029D4C
   973 0001:00029D8C   974 0001:00029DC6   975 0001:00029DCD   976 0001:00029DD2
   977 0001:00029DD9   978 0001:00029DDD   979 0001:00029DE4   980 0001:00029DE8
   981 0001:00029DEC   982 0001:00029DF0   983 0001:00029DF5   984 0001:00029DFA
   985 0001:00029DFF   986 0001:00029E17   988 0001:00029E21   991 0001:00029E39
   992 0001:00029E65   996 0001:00029E75   997 0001:00029E99  1002 0001:00029EA9
  1003 0001:00029EAB  1004 0001:00029EB3  1006 0001:00029EC3   987 0001:00029EC4
  1009 0001:00029ED4  1011 0001:00029EDE  1014 0001:00029EED  1015 0001:00029F03
  1016 0001:00029F0D  1017 0001:00029F50  1018 0001:00029F64  1019 0001:00029F78
  1021 0001:00029F8C  1022 0001:00029FA0  1024 0001:00029FB4  1029 0001:00029FC8
  1030 0001:00029FD7  1031 0001:00029FE2  1030 0001:0002A015  1032 0001:0002A019
  1035 0001:0002A049  1037 0001:0002A059  1010 0001:0002A05A  1039 0001:0002A06A

Line numbers for EDisAsm(EDisAsm.pas) segment .itext

  1041 0002:000002E0

Line numbers for EHash(EHash.pas) segment .text

    74 0001:0002A1D0    76 0001:0002A1D2    77 0001:0002A1D4    78 0001:0002A1DE
    77 0001:0002A1F2    80 0001:0002A1F5    82 0001:0002A1FC    83 0001:0002A1FE
    85 0001:0002A203    86 0001:0002A20D    83 0001:0002A20F    88 0001:0002A212
    89 0001:0002A214    80 0001:0002A218    90 0001:0002A220    91 0001:0002A227
    96 0001:0002A22C    97 0001:0002A232   100 0001:0002A23B   101 0001:0002A249
   103 0001:0002A24C   104 0001:0002A265   105 0001:0002A266   106 0001:0002A267
   107 0001:0002A26B   109 0001:0002A26E   114 0001:0002A274   115 0001:0002A277
   116 0001:0002A279   117 0001:0002A28D   116 0001:0002A2B6   118 0001:0002A2B9
   133 0001:0002A2C0   134 0001:0002A2C1   135 0001:0002A2D4   137 0001:0002A2D8
   138 0001:0002A2E1   139 0001:0002A2F4   140 0001:0002A2FA   141 0001:0002A300
   142 0001:0002A306   144 0001:0002A30F   145 0001:0002A331   146 0001:0002A353
   147 0001:0002A375   148 0001:0002A396   149 0001:0002A3B8   150 0001:0002A3DA
   151 0001:0002A3FC   152 0001:0002A41D   153 0001:0002A43F   154 0001:0002A461
   155 0001:0002A483   156 0001:0002A4A4   157 0001:0002A4C6   158 0001:0002A4E8
   159 0001:0002A50A   161 0001:0002A52B   162 0001:0002A54C   163 0001:0002A56E
   164 0001:0002A590   165 0001:0002A5B2   166 0001:0002A5D3   167 0001:0002A5F5
   168 0001:0002A617   169 0001:0002A639   170 0001:0002A65A   171 0001:0002A67C
   172 0001:0002A69E   173 0001:0002A6C0   174 0001:0002A6E1   175 0001:0002A703
   176 0001:0002A725   178 0001:0002A747   179 0001:0002A766   180 0001:0002A786
   181 0001:0002A7A6   182 0001:0002A7C5   183 0001:0002A7E4   184 0001:0002A804
   185 0001:0002A824   186 0001:0002A843   187 0001:0002A862   188 0001:0002A882
   189 0001:0002A8A2   190 0001:0002A8C1   191 0001:0002A8E0   192 0001:0002A900
   193 0001:0002A920   195 0001:0002A93F   196 0001:0002A960   197 0001:0002A982
   198 0001:0002A9A4   199 0001:0002A9C5   200 0001:0002A9E6   201 0001:0002AA08
   202 0001:0002AA2A   203 0001:0002AA4B   204 0001:0002AA6C   205 0001:0002AA8E
   206 0001:0002AAB0   207 0001:0002AAD1   208 0001:0002AAF2   209 0001:0002AB14
   210 0001:0002AB36   212 0001:0002AB57   213 0001:0002AB5D   214 0001:0002AB63
   215 0001:0002AB69   216 0001:0002AB72   217 0001:0002AB7A   218 0001:0002AB8C
   220 0001:0002AB94   221 0001:0002ABA4   222 0001:0002ABA9   223 0001:0002ABAE
   224 0001:0002ABB3   225 0001:0002ABC2   227 0001:0002ABD1   228 0001:0002ABD8
   229 0001:0002ABDF   230 0001:0002ABE6   232 0001:0002ABED   233 0001:0002ABF5
   234 0001:0002AC00   237 0001:0002AC08   239 0001:0002AC0C   241 0001:0002AC18
   242 0001:0002AC28   243 0001:0002AC32   244 0001:0002AC3C   248 0001:0002AC45
   249 0001:0002AC55   250 0001:0002AC58   237 0001:0002AC5A   253 0001:0002AC5E
   254 0001:0002AC66   255 0001:0002AC73   256 0001:0002AC7B   257 0001:0002AC83
   258 0001:0002AC8A   259 0001:0002AC9A   261 0001:0002ACCF

Line numbers for EListView(EListView.pas) segment .text

   159 0001:0002AD4C   160 0001:0002AD55   161 0001:0002AD63   162 0001:0002AD70
   171 0001:0002AD74   172 0001:0002AD85   173 0001:0002AD90   174 0001:0002AD97
   176 0001:0002ADA4   177 0001:0002ADAA   180 0001:0002ADB0   181 0001:0002ADBC
   182 0001:0002ADC8   183 0001:0002ADD4   188 0001:0002ADE0   191 0001:0002ADF3
   193 0001:0002AE03   194 0001:0002AE11   197 0001:0002AE1F   198 0001:0002AE2F
   199 0001:0002AE3F   200 0001:0002AE4F   203 0001:0002AE5F   206 0001:0002AE6F
   210 0001:0002AE88   214 0001:0002AE95   217 0001:0002AEAE   220 0001:0002AEB8
   223 0001:0002AED4   226 0001:0002AEF4   229 0001:0002AF10   232 0001:0002AF29
   235 0001:0002AF42   238 0001:0002AF62   241 0001:0002AF7B   242 0001:0002AF8E
   243 0001:0002AFA1   244 0001:0002AFB4   247 0001:0002AFC7   248 0001:0002AFD0
   249 0001:0002AFD9   250 0001:0002AFE2   251 0001:0002AFEB   252 0001:0002AFF1
   255 0001:0002AFFC   258 0001:0002B004   261 0001:0002B00C   266 0001:0002B014
   267 0001:0002B033   268 0001:0002B03C   269 0001:0002B040   270 0001:0002B045
   271 0001:0002B048   272 0001:0002B04D   273 0001:0002B055   274 0001:0002B061
   275 0001:0002B066   276 0001:0002B06B   277 0001:0002B07B   278 0001:0002B08B
   279 0001:0002B09B   280 0001:0002B0AB   281 0001:0002B0BB   282 0001:0002B0CB
   283 0001:0002B0E2   284 0001:0002B0EE   285 0001:0002B0FD   286 0001:0002B10C
   287 0001:0002B11B   289 0001:0002B12F   290 0001:0002B13C   291 0001:0002B149
   292 0001:0002B156   293 0001:0002B163   294 0001:0002B170   295 0001:0002B17D
   300 0001:0002B1D0   301 0001:0002B1DC   302 0001:0002B1E5   303 0001:0002B1EE
   304 0001:0002B1F7   305 0001:0002B200   306 0001:0002B209   307 0001:0002B212
   308 0001:0002B21B   309 0001:0002B224   310 0001:0002B22D   311 0001:0002B23F
   312 0001:0002B24C   313 0001:0002B258   320 0001:0002B268   321 0001:0002B2BF
   323 0001:0002B2D0   324 0001:0002B2E3   326 0001:0002B2E8   327 0001:0002B2F0
   328 0001:0002B2FF   329 0001:0002B31A   330 0001:0002B320   331 0001:0002B327
   332 0001:0002B352   333 0001:0002B358   334 0001:0002B35C   335 0001:0002B360
   336 0001:0002B36E   337 0001:0002B37C   339 0001:0002B38B   340 0001:0002B3B7
   342 0001:0002B3C0   343 0001:0002B3C5   344 0001:0002B3D0   345 0001:0002B3D9
   346 0001:0002B3E9   348 0001:0002B3F2   349 0001:0002B3FD   350 0001:0002B40B
   356 0001:0002B458   359 0001:0002B47F   360 0001:0002B486   361 0001:0002B48B
   362 0001:0002B494   363 0001:0002B499   364 0001:0002B49E   367 0001:0002B4A4
   371 0001:0002B4B3   372 0001:0002B4B8   374 0001:0002B4D2   375 0001:0002B4D5
   376 0001:0002B4DA   378 0001:0002B4F5   381 0001:0002B50C   385 0001:0002B523
   386 0001:0002B526   388 0001:0002B541   389 0001:0002B55A   381 0001:0002B55B
   390 0001:0002B55E   394 0001:0002B588   395 0001:0002B599   399 0001:0002B59C
   400 0001:0002B5AC   412 0001:0002B5B0   413 0001:0002B5B3   414 0001:0002B5BB
   415 0001:0002B5C4   417 0001:0002B5F3   419 0001:0002B5F8   420 0001:0002B60E
   421 0001:0002B61F   422 0001:0002B625   423 0001:0002B62B   424 0001:0002B638
   426 0001:0002B63A   428 0001:0002B644   430 0001:0002B660   432 0001:0002B669
   433 0001:0002B66D   435 0001:0002B67A   436 0001:0002B684   439 0001:0002B694
   440 0001:0002B6A5   441 0001:0002B6B6   443 0001:0002B6C6   447 0001:0002B6D8
   448 0001:0002B6EE   449 0001:0002B6EF   451 0001:0002B70F   437 0001:0002B710
   454 0001:0002B73C   456 0001:0002B74E   458 0001:0002B75C   464 0001:0002B768
   465 0001:0002B76F   466 0001:0002B778   467 0001:0002B77A   468 0001:0002B782
   469 0001:0002B78F   470 0001:0002B79C   471 0001:0002B7A5   476 0001:0002B7AC
   477 0001:0002B7B0   478 0001:0002B7C5   479 0001:0002B7CC   482 0001:0002B7D0
   483 0001:0002B7D6   484 0001:0002B7DF   489 0001:0002B7E4   490 0001:0002B7E7
   491 0001:0002B7EE   492 0001:0002B7F2   493 0001:0002B7F8   494 0001:0002B80B
   495 0001:0002B80F   515 0001:0002B814   516 0001:0002B81C   517 0001:0002B82F
   518 0001:0002B835   519 0001:0002B839   521 0001:0002B85E   522 0001:0002B881
   527 0001:0002B888   528 0001:0002B890   529 0001:0002B8A3   530 0001:0002B8A9
   531 0001:0002B8AD   533 0001:0002B8D2   534 0001:0002B8F5   539 0001:0002B8FC
   540 0001:0002B904   541 0001:0002B917   542 0001:0002B91B   543 0001:0002B924
   544 0001:0002B947   549 0001:0002B950   550 0001:0002B958   551 0001:0002B96B
   552 0001:0002B971   553 0001:0002B978   554 0001:0002B99B   556 0001:0002B9A4
   557 0001:0002B9C3   558 0001:0002B9CD   559 0001:0002B9CF   561 0001:0002B9DF
   562 0001:0002BA00   563 0001:0002BA21   564 0001:0002BA42   565 0001:0002BA63
   566 0001:0002BA84   567 0001:0002BA95   569 0001:0002BA9F   570 0001:0002BAB5
   571 0001:0002BACD   572 0001:0002BAE0   574 0001:0002BAEA   575 0001:0002BAF2
   577 0001:0002BB33   578 0001:0002BB3F   580 0001:0002BB5A   581 0001:0002BB63
   582 0001:0002BB6D   583 0001:0002BB71   584 0001:0002BB88   585 0001:0002BB8B
   586 0001:0002BB9A   587 0001:0002BBA3   588 0001:0002BBB0   589 0001:0002BBBC
   590 0001:0002BBC8   591 0001:0002BBE1   593 0001:0002BC1A   578 0001:0002BC1B
   594 0001:0002BC24   595 0001:0002BC37   596 0001:0002BC4A   600 0001:0002BC7F
   601 0001:0002BC82   602 0001:0002BC87   605 0001:0002BC95   606 0001:0002BC9A
   608 0001:0002BCAE   609 0001:0002BCB5   611 0001:0002BCBA   612 0001:0002BCC1
   613 0001:0002BCD3   614 0001:0002BCD7   615 0001:0002BCDA   616 0001:0002BCED
   617 0001:0002BD08   619 0001:0002BD36   620 0001:0002BD46   621 0001:0002BD59
   622 0001:0002BD5D   623 0001:0002BD6E   624 0001:0002BD77   626 0001:0002BD9F
   628 0001:0002BDC4   629 0001:0002BDCD   630 0001:0002BDD0   631 0001:0002BDE4
   632 0001:0002BDE6   656 0001:0002BDEC   657 0001:0002BDEF   658 0001:0002BE16
   663 0001:0002BE18   664 0001:0002BE22   665 0001:0002BE24   666 0001:0002BE2B
   668 0001:0002BE48   669 0001:0002BE5A   670 0001:0002BE5E   671 0001:0002BE65
   674 0001:0002BE6A   676 0001:0002BE74   677 0001:0002BE7F   678 0001:0002BE91
   679 0001:0002BEAF   680 0001:0002BEC4   681 0001:0002BECE   682 0001:0002BEDC
   684 0001:0002BEE9   685 0001:0002BEF9   686 0001:0002BF22   687 0001:0002BF2A
   689 0001:0002BF3D   691 0001:0002BF50   692 0001:0002BF5F   693 0001:0002BF66
   694 0001:0002BF75   698 0001:0002BF88   699 0001:0002BF99   701 0001:0002BFC8

Line numbers for EEncrypt(EEncrypt.pas) segment .text

    40 0001:0002BF9C    41 0001:0002BF9F    42 0001:0002BFAA    43 0001:0002BFB9
    41 0001:0002BFBA    44 0001:0002BFBD    48 0001:0002BFC4    50 0001:0002BFF5
    57 0001:0002BFF8    58 0001:0002C004    59 0001:0002C00D    60 0001:0002C019
    61 0001:0002C01B    62 0001:0002C021    63 0001:0002C02B    64 0001:0002C035
    65 0001:0002C03F    67 0001:0002C044    68 0001:0002C049    69 0001:0002C063
    65 0001:0002C07F    71 0001:0002C082    72 0001:0002C08E    73 0001:0002C09D
    78 0001:0002C0A8    79 0001:0002C0B4    80 0001:0002C0BD    81 0001:0002C0C9
    82 0001:0002C0CE    83 0001:0002C0D4    84 0001:0002C0DE    85 0001:0002C0E8
    86 0001:0002C0F2    88 0001:0002C0F7    89 0001:0002C113    90 0001:0002C12D
    86 0001:0002C132    92 0001:0002C135    93 0001:0002C141    94 0001:0002C150
    99 0001:0002C158   100 0001:0002C161   101 0001:0002C16E   102 0001:0002C17C
   103 0001:0002C19C   104 0001:0002C1AD   105 0001:0002C1BC   106 0001:0002C1CB
   107 0001:0002C1DA   109 0001:0002C1F6   111 0001:0002C206   143 0001:0002C20C
   144 0001:0002C21A   145 0001:0002C22E   146 0001:0002C230   147 0001:0002C232
   149 0001:0002C23C   150 0001:0002C24C   151 0001:0002C25C   152 0001:0002C265
   153 0001:0002C276   154 0001:0002C289   155 0001:0002C28C   147 0001:0002C28F
   157 0001:0002C292   159 0001:0002C29C   160 0001:0002C2AB   161 0001:0002C2B8
   163 0001:0002C2C6   165 0001:0002C2FC

Line numbers for EBase64(EBase64.pas) segment .text

   100 0001:0002C2D0   102 0001:0002C2D3   103 0001:0002C2E4   104 0001:0002C2F3
   105 0001:0002C2F6   108 0001:0002C2FC   109 0001:0002C2FE   110 0001:0002C300
   111 0001:0002C304   112 0001:0002C30D   113 0001:0002C315   115 0001:0002C328
   116 0001:0002C32F   122 0001:0002C334   125 0001:0002C33A   127 0001:0002C33C
   131 0001:0002C33E   133 0001:0002C340   135 0001:0002C345   137 0001:0002C347
   139 0001:0002C349   141 0001:0002C34C   143 0001:0002C34F   146 0001:0002C355
   147 0001:0002C357   148 0001:0002C359   149 0001:0002C35B   150 0001:0002C35F
   153 0001:0002C361   155 0001:0002C363   156 0001:0002C365   157 0001:0002C368
   159 0001:0002C36B   160 0001:0002C36D   162 0001:0002C370   163 0001:0002C374
   164 0001:0002C378   165 0001:0002C37B   167 0001:0002C37E   169 0001:0002C380
   171 0001:0002C381   172 0001:0002C383   173 0001:0002C387   175 0001:0002C38A
   176 0001:0002C38C   177 0001:0002C38E   178 0001:0002C391   180 0001:0002C394
   181 0001:0002C396   182 0001:0002C399   185 0001:0002C39B   186 0001:0002C39F
   188 0001:0002C3A1   189 0001:0002C3A3   190 0001:0002C3A5   192 0001:0002C3A7
   194 0001:0002C3A8   195 0001:0002C3AC   197 0001:0002C3AE   199 0001:0002C3B1
   200 0001:0002C3B4   202 0001:0002C3B6   203 0001:0002C3BA   205 0001:0002C3BD
   207 0001:0002C3BE   208 0001:0002C3C2   210 0001:0002C3C4   211 0001:0002C3C7
   213 0001:0002C3CA   214 0001:0002C3CD   216 0001:0002C3CF   218 0001:0002C3D2
   219 0001:0002C3D4   222 0001:0002C3D6   223 0001:0002C3D9   225 0001:0002C3DB
   226 0001:0002C3DE   228 0001:0002C3E1   229 0001:0002C3E3   234 0001:0002C3E5
   235 0001:0002C3E7   237 0001:0002C3EA   239 0001:0002C3EB   260 0001:0002C3F0
   261 0001:0002C3F1   262 0001:0002C3F3   263 0001:0002C3F5   264 0001:0002C3F7
   265 0001:0002C3FA   266 0001:0002C400   267 0001:0002C406   268 0001:0002C408
   269 0001:0002C409   270 0001:0002C40B   271 0001:0002C40C   274 0001:0002C40E
   276 0001:0002C40F   278 0001:0002C411   280 0001:0002C413   282 0001:0002C416
   284 0001:0002C418   286 0001:0002C41B   288 0001:0002C41E   290 0001:0002C422
   292 0001:0002C423   294 0001:0002C427   296 0001:0002C42A   298 0001:0002C42C
   300 0001:0002C42F   302 0001:0002C432   304 0001:0002C436   306 0001:0002C438
   308 0001:0002C43B   310 0001:0002C43D   312 0001:0002C43F   313 0001:0002C440
   314 0001:0002C442   320 0001:0002C443   322 0001:0002C444   324 0001:0002C446
   326 0001:0002C448   328 0001:0002C44B   330 0001:0002C44D   332 0001:0002C450
   334 0001:0002C453   336 0001:0002C457   338 0001:0002C458   340 0001:0002C45B
   341 0001:0002C45E   343 0001:0002C460   345 0001:0002C464   347 0001:0002C466
   349 0001:0002C469   351 0001:0002C46C   353 0001:0002C470   355 0001:0002C471
   356 0001:0002C474   358 0001:0002C476   360 0001:0002C478   362 0001:0002C47B
   364 0001:0002C47D   366 0001:0002C47F   369 0001:0002C480   370 0001:0002C481
   376 0001:0002C484   378 0001:0002C48E   380 0001:0002C49B   382 0001:0002C4A2
   383 0001:0002C4AA   384 0001:0002C4B4   386 0001:0002C4BF   387 0001:0002C4CC
   393 0001:0002C4D4   395 0001:0002C4DE   397 0001:0002C4EB   398 0001:0002C4F5
   400 0001:0002C500   401 0001:0002C509   402 0001:0002C519   404 0001:0002C524
   405 0001:0002C531   409 0001:0002C538   410 0001:0002C53D   414 0001:0002C540
   415 0001:0002C545   420 0001:0002C548   421 0001:0002C552   422 0001:0002C562
   423 0001:0002C56C   424 0001:0002C577   426 0001:0002C5AA

Line numbers for EXMLBuilder(EXMLBuilder.pas) segment .text

    60 0001:0002C66C    61 0001:0002C672    62 0001:0002C692    67 0001:0002C698
    68 0001:0002C6A4    70 0001:0002C6AD    71 0001:0002C6BB    72 0001:0002C6C4
    68 0001:0002C6C5    73 0001:0002C6CA    74 0001:0002C6D6    77 0001:0002C6E8
    78 0001:0002C6EE    79 0001:0002C6F7    84 0001:0002C6FC    85 0001:0002C718
    86 0001:0002C747    89 0001:0002C790    90 0001:0002C793    91 0001:0002C79B
    92 0001:0002C79E    95 0001:0002C7A0    96 0001:0002C7CF    97 0001:0002C7DA
    98 0001:0002C7E2    99 0001:0002C7EA   100 0001:0002C7F2   101 0001:0002C7FA
   102 0001:0002C7FF   103 0001:0002C80E   106 0001:0002C848   107 0001:0002C853
   108 0001:0002C85B   109 0001:0002C867   118 0001:0002C878   119 0001:0002C884
   120 0001:0002C8A0   121 0001:0002C8A5   123 0001:0002C8C2   124 0001:0002C8CE
   126 0001:0002C8DC   127 0001:0002C8E7   132 0001:0002C8ED   133 0001:0002C8F9
   134 0001:0002C904   135 0001:0002C922   136 0001:0002C94B   137 0001:0002C974
   138 0001:0002C980   140 0001:0002C983   121 0001:0002C987   141 0001:0002C98E
   142 0001:0002C998   147 0001:0002C9A0   148 0001:0002C9A8   149 0001:0002C9C4
   152 0001:0002C9E4   153 0001:0002C9F0   154 0001:0002CA00   156 0001:0002CA0A
   157 0001:0002CA16   159 0001:0002CA20   160 0001:0002CA3A   161 0001:0002CA4B
   157 0001:0002CA4C   162 0001:0002CA4F   164 0001:0002CA59   166 0001:0002CA74
   169 0001:0002CAD4   170 0001:0002CADA   171 0001:0002CAE1   172 0001:0002CAEA
   197 0001:0002CAED

Line numbers for ELogManager(ELogManager.pas) segment .text

   117 0001:0002CBD8   118 0001:0002CBDC   119 0001:0002CBDE   120 0001:0002CBE5
   123 0001:0002CBE9   126 0001:0002CC07   127 0001:0002CC09   129 0001:0002CC0B
   121 0001:0002CC0C   131 0001:0002CC11   133 0001:0002CC18   134 0001:0002CC21
   136 0001:0002CC2C   137 0001:0002CC35   140 0001:0002CC3A   141 0001:0002CC3F
   142 0001:0002CC48   143 0001:0002CC4B   146 0001:0002CC66   148 0001:0002CC73
   149 0001:0002CC7F   150 0001:0002CC80   153 0001:0002CC8E   155 0001:0002CCA0
   156 0001:0002CCAC   157 0001:0002CCAD   159 0001:0002CCBB   160 0001:0002CCC9
   161 0001:0002CCCA   144 0001:0002CCCB   163 0001:0002CCD0   164 0001:0002CCDA
   171 0001:0002CCE0   172 0001:0002CCFD   173 0001:0002CD05   174 0001:0002CD0F
   176 0001:0002CD1B   177 0001:0002CD2A   179 0001:0002CD36   180 0001:0002CD40
   181 0001:0002CD42   182 0001:0002CD46   183 0001:0002CD5B   185 0001:0002CD66
   186 0001:0002CD6B   189 0001:0002CD8C   190 0001:0002CD97   191 0001:0002CDA3
   192 0001:0002CDAB   201 0001:0002CDBC   202 0001:0002CDBE   205 0001:0002CDC4
   207 0001:0002CDC9   212 0001:0002CE01   213 0001:0002CE03   216 0001:0002CE05
   203 0001:0002CE06   218 0001:0002CE0D   220 0001:0002CE10   221 0001:0002CE2F
   223 0001:0002CE4E   225 0001:0002CE50   226 0001:0002CE59   227 0001:0002CE5B
   228 0001:0002CE5F   230 0001:0002CE75   231 0001:0002CE7E   233 0001:0002CE85
   235 0001:0002CE89   238 0001:0002CE9A   241 0001:0002CEBB   242 0001:0002CEBE
   243 0001:0002CEC6   250 0001:0002CF08   251 0001:0002CF29   252 0001:0002CF3A
   253 0001:0002CF58   254 0001:0002CF66   255 0001:0002CF72   257 0001:0002CF91
   260 0001:0002CFC7   262 0001:0002CFD7   263 0001:0002CFFE   266 0001:0002D017
   269 0001:0002D02F   271 0001:0002D03F   276 0001:0002D064   277 0001:0002D07F
   278 0001:0002D08A   280 0001:0002D090   281 0001:0002D0C1   283 0001:0002D0E5
   284 0001:0002D104   289 0001:0002D138   290 0001:0002D154   291 0001:0002D159
   292 0001:0002D179   293 0001:0002D194   319 0001:0002D1B8   320 0001:0002D1E3
   321 0001:0002D1EB   322 0001:0002D1FF   323 0001:0002D20E   324 0001:0002D21C
   325 0001:0002D23C   327 0001:0002D250   328 0001:0002D27D   329 0001:0002D2A5
   325 0001:0002D2A6   330 0001:0002D2A9   332 0001:0002D2C1   334 0001:0002D2D1
   336 0001:0002D334   337 0001:0002D359   338 0001:0002D35D   339 0001:0002D381
   341 0001:0002D385   342 0001:0002D3A0   343 0001:0002D3B2   344 0001:0002D3C0
   345 0001:0002D3DC   347 0001:0002D3EB   349 0001:0002D448   350 0001:0002D46D
   351 0001:0002D474   353 0001:0002D48A   354 0001:0002D48C   356 0001:0002D491
   358 0001:0002D4B9   359 0001:0002D4BC   361 0001:0002D4BE   354 0001:0002D4BF
   363 0001:0002D4C4   351 0001:0002D4C5   364 0001:0002D4CA   367 0001:0002D4F4
   368 0001:0002D4F8   369 0001:0002D4FE   370 0001:0002D515   371 0001:0002D521
   372 0001:0002D52B   373 0001:0002D53E   383 0001:0002D544   384 0001:0002D54D
   385 0001:0002D556   386 0001:0002D567   385 0001:0002D573   387 0001:0002D576
   389 0001:0002D588   390 0001:0002D5B5   392 0001:0002D5D3   393 0001:0002D5E4
   394 0001:0002D60B   396 0001:0002D613   397 0001:0002D624   399 0001:0002D62D
   400 0001:0002D630   401 0001:0002D633   404 0001:0002D63A   406 0001:0002D65C
   410 0001:0002D6C6   411 0001:0002D6C9   402 0001:0002D6CA   413 0001:0002D6DA
   414 0001:0002D6EA   415 0001:0002D6F7   416 0001:0002D728   418 0001:0002D74E
   423 0001:0002D764   424 0001:0002D766   425 0001:0002D776   427 0001:0002D780
   428 0001:0002D787   430 0001:0002D78C   431 0001:0002D7BA   432 0001:0002D7E1
   434 0001:0002D7E5   435 0001:0002D7F6   436 0001:0002D7FB   438 0001:0002D7FE
   428 0001:0002D7FF   439 0001:0002D804   441 0001:0002D80E   442 0001:0002D820
   444 0001:0002D824   445 0001:0002D827   446 0001:0002D866   447 0001:0002D88B
   452 0001:0002D89C   459 0001:0002D940   460 0001:0002D96B   461 0001:0002D973
   463 0001:0002D98B   464 0001:0002D998   465 0001:0002D9BF   467 0001:0002D9C7
   469 0001:0002D9DC   471 0001:0002D9DE   472 0001:0002D9F2   474 0001:0002DA59
   477 0001:0002DA5D   479 0001:0002DA84   481 0001:0002DA96   482 0001:0002DAA6
   483 0001:0002DAAB   484 0001:0002DAB6   486 0001:0002DAB8   475 0001:0002DAB9
   488 0001:0002DAC2   490 0001:0002DAE3   491 0001:0002DAED   492 0001:0002DAF7
   493 0001:0002DB09   495 0001:0002DB18   496 0001:0002DB2E   488 0001:0002DB2F
   497 0001:0002DB32   499 0001:0002DB4A   503 0001:0002DBC8   504 0001:0002DBD0
   507 0001:0002DBD4   508 0001:0002DBDA   509 0001:0002DBE4   519 0001:0002DBE8
   520 0001:0002DBF2   521 0001:0002DC05   522 0001:0002DC0B   523 0001:0002DC0F
   522 0001:0002DC23   525 0001:0002DC28   526 0001:0002DC2C   525 0001:0002DC3F
   527 0001:0002DC42   532 0001:0002DC7C   533 0001:0002DC85   534 0001:0002DC91
   535 0001:0002DCA4   538 0001:0002DCAA   540 0001:0002DCB9   541 0001:0002DCBC
   543 0001:0002DCCD   544 0001:0002DCE6   545 0001:0002DCEA   547 0001:0002DCFB
   549 0001:0002DD04   550 0001:0002DD0B   555 0001:0002DD20   556 0001:0002DD29
   557 0001:0002DD35   558 0001:0002DD48   562 0001:0002DD4E   561 0001:0002DD4F
   563 0001:0002DD5D   564 0001:0002DD6D   565 0001:0002DD71   567 0001:0002DD82
   570 0001:0002DD8B   571 0001:0002DD92   576 0001:0002DDB8   577 0001:0002DDDB
   578 0001:0002DDE8   579 0001:0002DDFA   582 0001:0002DE2E   583 0001:0002DE3D
   584 0001:0002DE4D   585 0001:0002DE51   587 0001:0002DE62   589 0001:0002DE6B
   590 0001:0002DE72   595 0001:0002DEC0   596 0001:0002DEE1   597 0001:0002DEE8
   599 0001:0002DF08   600 0001:0002DF15   601 0001:0002DF27   604 0001:0002DF5B
   605 0001:0002DF6A   606 0001:0002DF7A   607 0001:0002DF7E   609 0001:0002DF8F
   611 0001:0002DF98   612 0001:0002DF9F   617 0001:0002DFFC   618 0001:0002E01F
   619 0001:0002E026   621 0001:0002E042   622 0001:0002E04F   623 0001:0002E061
   624 0001:0002E074   625 0001:0002E084   626 0001:0002E092   631 0001:0002E0E0
   632 0001:0002E103   633 0001:0002E110   634 0001:0002E115   635 0001:0002E134
   637 0001:0002E145   638 0001:0002E154   639 0001:0002E156   640 0001:0002E15D
   639 0001:0002E16E   641 0001:0002E173   642 0001:0002E177   644 0001:0002E188
   645 0001:0002E18F   646 0001:0002E1AB   651 0001:0002E1F8   652 0001:0002E21A
   653 0001:0002E227   655 0001:0002E23D   656 0001:0002E242   655 0001:0002E256
   657 0001:0002E259   659 0001:0002E261   660 0001:0002E266   659 0001:0002E27A
   661 0001:0002E27D   666 0001:0002E283   664 0001:0002E284   667 0001:0002E2B9
   668 0001:0002E2CD   669 0001:0002E2D1   671 0001:0002E2E8   674 0001:0002E2F2
   676 0001:0002E2FA   687 0001:0002E35C   688 0001:0002E37C   689 0001:0002E3B1
   690 0001:0002E3E6   691 0001:0002E404   692 0001:0002E423   693 0001:0002E442
   694 0001:0002E454   696 0001:0002E4DC   697 0001:0002E519   698 0001:0002E51E
   699 0001:0002E523   700 0001:0002E537   701 0001:0002E545   702 0001:0002E549
   703 0001:0002E54D   704 0001:0002E55C   705 0001:0002E56A   706 0001:0002E581
   709 0001:0002E58B   711 0001:0002E591   712 0001:0002E5A1   713 0001:0002E5AE
   714 0001:0002E5D5   715 0001:0002E5DD   716 0001:0002E5E5   717 0001:0002E5ED
   718 0001:0002E5F5   719 0001:0002E5F9   723 0001:0002E5FF   724 0001:0002E617
   725 0001:0002E626   726 0001:0002E67E   728 0001:0002E686   729 0001:0002E693
   730 0001:0002E6A3   731 0001:0002E6B8   732 0001:0002E6C8   734 0001:0002E6CE
   735 0001:0002E6E3   736 0001:0002E6F3   738 0001:0002E703   739 0001:0002E724
   740 0001:0002E74D   741 0001:0002E75D   742 0001:0002E76D   743 0001:0002E77D
   746 0001:0002E783   748 0001:0002E789   749 0001:0002E78D   750 0001:0002E794
   752 0001:0002E79A   754 0001:0002E7B2   755 0001:0002E7B3   757 0001:0002E7BF
   758 0001:0002E7C6   707 0001:0002E7CA   762 0001:0002E7E8   764 0001:0002E7F8
   766 0001:0002E810   768 0001:0002E820   779 0001:0002E8E8   780 0001:0002E8EF
   781 0001:0002E913   788 0001:0002E924   789 0001:0002E928   790 0001:0002E92A
   791 0001:0002E93E   793 0001:0002E94F   794 0001:0002E951   795 0001:0002E954
   790 0001:0002E955   796 0001:0002E958   798 0001:0002E95C   799 0001:0002E988
   800 0001:0002E997   801 0001:0002E9A6   802 0001:0002E9BA   803 0001:0002E9E8
   804 0001:0002E9ED   805 0001:0002E9FA   806 0001:0002EA08   807 0001:0002EA0C
   808 0001:0002EA10   809 0001:0002EA1B   811 0001:0002EA3A   812 0001:0002EA42
   813 0001:0002EA60   814 0001:0002EA97   816 0001:0002EAA8   817 0001:0002EAB8
   818 0001:0002EAC8   820 0001:0002EAD8   822 0001:0002EB0E   823 0001:0002EB24
   824 0001:0002EB43   825 0001:0002EB4E   826 0001:0002EB73   827 0001:0002EB8F
   828 0001:0002EBAD   829 0001:0002EBBA   830 0001:0002EBD9   831 0001:0002EBE4
   832 0001:0002EC09   833 0001:0002EC18   835 0001:0002EC1C   836 0001:0002EC30
   839 0001:0002EC4F   841 0001:0002EC55   842 0001:0002EC74   843 0001:0002EC7F
   846 0001:0002ECA4   849 0001:0002ECC8   850 0001:0002ECD8   851 0001:0002ECE8
   854 0001:0002ECF8   856 0001:0002ED11   857 0001:0002ED20   858 0001:0002ED3C
   859 0001:0002ED5B   860 0001:0002ED6A   861 0001:0002ED79   863 0001:0002ED88
   864 0001:0002EDA7   866 0001:0002EDAB   867 0001:0002EDCF   871 0001:0002EE29
   872 0001:0002EE39   874 0001:0002EE41   875 0001:0002EE50   879 0001:0002EE64
   881 0001:0002EE81   882 0001:0002EEA3   883 0001:0002EEEC   884 0001:0002EEFC
   886 0001:0002EF02   888 0001:0002EF08   889 0001:0002EF18   891 0001:0002EF1E
   892 0001:0002EF2E   894 0001:0002EF34   895 0001:0002EF44   896 0001:0002EF86
   897 0001:0002EFCA   898 0001:0002F00E   899 0001:0002F02F   901 0001:0002F043
   903 0001:0002F047   809 0001:0002F04A   904 0001:0002F053   906 0001:0002F06B
   907 0001:0002F073   908 0001:0002F07B   910 0001:0002F08B   918 0001:0002F2BC
   919 0001:0002F2E7   920 0001:0002F2F6   921 0001:0002F305   922 0001:0002F319
   923 0001:0002F325   924 0001:0002F333   925 0001:0002F33E   927 0001:0002F35B
   928 0001:0002F363   929 0001:0002F380   930 0001:0002F3B6   931 0001:0002F3C5
   932 0001:0002F3E1   933 0001:0002F400   934 0001:0002F41F   935 0001:0002F43E
   936 0001:0002F45D   938 0001:0002F46A   939 0001:0002F489   941 0001:0002F4AA
   942 0001:0002F4C9   925 0001:0002F4CA   943 0001:0002F4D3   945 0001:0002F4EB
   946 0001:0002F4F3   947 0001:0002F4FB   949 0001:0002F50B   957 0001:0002F600
   958 0001:0002F62B   959 0001:0002F63A   960 0001:0002F649   961 0001:0002F65D
   962 0001:0002F669   963 0001:0002F677   964 0001:0002F682   966 0001:0002F69F
   967 0001:0002F6A7   968 0001:0002F6C4   969 0001:0002F6FA   970 0001:0002F709
   971 0001:0002F725   972 0001:0002F744   973 0001:0002F763   974 0001:0002F782
   975 0001:0002F7A1   976 0001:0002F7C0   977 0001:0002F7DF   978 0001:0002F7FE
   964 0001:0002F7FF   979 0001:0002F808   981 0001:0002F820   982 0001:0002F828
   983 0001:0002F830   985 0001:0002F840   993 0001:0002F948   994 0001:0002F974
   995 0001:0002F983   996 0001:0002F992   997 0001:0002F9A6   998 0001:0002F9B2
   999 0001:0002F9C0  1000 0001:0002F9CB  1002 0001:0002F9E6  1003 0001:0002F9F5
  1004 0001:0002FA0E  1006 0001:0002FA33  1007 0001:0002FA3B  1008 0001:0002FA43
  1012 0001:0002FA5B  1013 0001:0002FA71  1014 0001:0002FA80  1016 0001:0002FA84
  1017 0001:0002FA9A  1021 0001:0002FAA4  1022 0001:0002FABA  1025 0001:0002FACE
  1026 0001:0002FADD  1027 0001:0002FAEC  1028 0001:0002FAFB  1000 0001:0002FAFE
  1029 0001:0002FB05  1031 0001:0002FB1D  1032 0001:0002FB25  1033 0001:0002FB2D
  1035 0001:0002FB3D  1046 0001:0002FBD4  1047 0001:0002FBFF  1048 0001:0002FC0E
  1049 0001:0002FC22  1050 0001:0002FC2E  1051 0001:0002FC3C  1053 0001:0002FC51
  1054 0001:0002FC5C  1055 0001:0002FC82  1056 0001:0002FCA8  1057 0001:0002FCCE
  1058 0001:0002FCF4  1059 0001:0002FD1A  1060 0001:0002FD40  1061 0001:0002FD66
  1062 0001:0002FD8C  1063 0001:0002FD9B  1064 0001:0002FDB9  1065 0001:0002FDD7
  1066 0001:0002FDF5  1067 0001:0002FE13  1068 0001:0002FE31  1069 0001:0002FE4F
  1070 0001:0002FE6D  1071 0001:0002FE8B  1072 0001:0002FE9B  1074 0001:0002FEB6
  1075 0001:0002FEC5  1076 0001:0002FEE8  1077 0001:0002FF0B  1078 0001:0002FF1A
  1079 0001:0002FF29  1072 0001:0002FF2A  1080 0001:0002FF2F  1081 0001:0002FF3F
  1083 0001:0002FF5A  1084 0001:0002FF69  1085 0001:0002FF8C  1086 0001:0002FFAF
  1087 0001:0002FFD8  1088 0001:0002FFE7  1089 0001:0002FFF6  1090 0001:00030005
  1081 0001:00030006  1092 0001:0003000F  1094 0001:00030027  1095 0001:0003002F
  1097 0001:0003003F  1102 0001:00030180  1103 0001:000301A0  1105 0001:000301BB
  1106 0001:000301CF  1107 0001:000301DD  1108 0001:000301F9  1110 0001:00030210
  1113 0001:00030220  1114 0001:00030227  1120 0001:00030284  1121 0001:000302AF
  1122 0001:000302BE  1123 0001:000302CC  1128 0001:0003036B  1129 0001:00030381
  1128 0001:000303AC  1130 0001:000303AF  1132 0001:000303C7  1134 0001:000303D7
  1141 0001:00030444  1142 0001:00030466  1143 0001:0003046E  1144 0001:0003047D
  1145 0001:0003048B  1146 0001:0003049D  1145 0001:000304B5  1147 0001:000304B8
  1148 0001:000304DD  1149 0001:000304F3  1148 0001:0003051E  1150 0001:00030521
  1152 0001:00030539  1154 0001:00030549  1159 0001:000305A8  1160 0001:000305D0
  1161 0001:000305DF  1162 0001:000305ED  1163 0001:00030605  1165 0001:00030651
  1167 0001:00030661  1185 0001:00030694  1186 0001:000306B3  1187 0001:000306C2
  1188 0001:000306D0  1189 0001:000306E5  1191 0001:000306FC  1193 0001:0003070C
  1198 0001:00030730  1199 0001:00030742  1200 0001:00030745  1201 0001:0003074C
  1204 0001:00030768  1205 0001:0003076B  1206 0001:00030773  1207 0001:00030779
  1208 0001:0003077E  1211 0001:00030780  1212 0001:00030786  1213 0001:00030789
  1214 0001:0003078E  1215 0001:000307AE  1216 0001:000307CE  1223 0001:000307F8
  1224 0001:00030836  1225 0001:0003083C  1227 0001:00030846  1229 0001:0003088C
  1231 0001:000308A2  1234 0001:000308D9  1235 0001:000308EF  1236 0001:000308FE
  1237 0001:0003090C  1238 0001:00030917  1240 0001:00030929  1241 0001:00030956
  1242 0001:00030984  1238 0001:00030985  1243 0001:00030988  1244 0001:00030993
  1246 0001:000309DE  1248 0001:000309EE  1251 0001:00030A0F  1261 0001:00030A98
  1262 0001:00030ABF  1263 0001:00030AC1  1264 0001:00030ACC  1266 0001:00030AD5
  1267 0001:00030B3D  1269 0001:00030B43  1270 0001:00030B49  1271 0001:00030B6D
  1273 0001:00030B73  1275 0001:00030B7E  1276 0001:00030B8C  1273 0001:00030B97
  1279 0001:00030B9E  1281 0001:00030BA3  1264 0001:00030BA4  1283 0001:00030BAD
  1294 0001:00030BE4  1295 0001:00030BEA  1296 0001:00030BF1  1297 0001:00030C06
  1299 0001:00030C18  1300 0001:00030C4E  1301 0001:00030C53  1302 0001:00030C5E
  1304 0001:00030C6A  1305 0001:00030CD5  1307 0001:00030CDF  1308 0001:00030CE8
  1309 0001:00030CEB  1311 0001:00030CF0  1312 0001:00030D0C  1313 0001:00030D1A
  1314 0001:00030D1B  1315 0001:00030D32  1317 0001:00030D35  1318 0001:00030D51
  1319 0001:00030D5D  1320 0001:00030D79  1321 0001:00030D85  1322 0001:00030D86
  1323 0001:00030D9D  1325 0001:00030DA2  1302 0001:00030DA5  1327 0001:00030DB1
  1338 0001:00030DFC  1339 0001:00030E02  1340 0001:00030E09  1341 0001:00030E1E
  1343 0001:00030E30  1344 0001:00030E63  1345 0001:00030E68  1346 0001:00030E73
  1348 0001:00030E7F  1349 0001:00030EEA  1351 0001:00030EF4  1352 0001:00030EFD
  1353 0001:00030F00  1355 0001:00030F05  1356 0001:00030F65  1357 0001:00030F66
  1358 0001:00030F7D  1359 0001:00030F81  1360 0001:00030F8D  1361 0001:00030FA9
  1362 0001:00030FB5  1364 0001:00030FBE  1346 0001:00030FC1  1366 0001:00030FCD
  1368 0001:0003100C  1369 0001:00031016  1370 0001:00031025  1371 0001:00031033
  1372 0001:0003103E  1373 0001:00031046  1374 0001:0003104E  1375 0001:00031056
  1377 0001:0003106D  1379 0001:0003107D

Line numbers for ELogManager(ELogManager.pas) segment .itext

  1381 0002:000002E8

Line numbers for EWebTools(EWebTools.pas) segment .text

   388 0001:000313C8   389 0001:000313CE   390 0001:000313EA   389 0001:00031400
   391 0001:00031403   401 0001:00031408   402 0001:0003142A   403 0001:00031434
   402 0001:00031469   405 0001:0003146C   407 0001:00031471   408 0001:00031481
   410 0001:00031489   411 0001:0003148C   412 0001:0003149E   414 0001:000314A8
   415 0001:000314BE   416 0001:000314CC   417 0001:000314D2   420 0001:00031533
   421 0001:0003153B   433 0001:00031594   434 0001:000315B0   435 0001:000315B4
   437 0001:000315C5   438 0001:000315D2   440 0001:000315EB   441 0001:000315EF
   443 0001:000315F1   435 0001:000315F7   444 0001:000315FA   446 0001:0003162C
   447 0001:0003165B   448 0001:00031662   449 0001:00031666   450 0001:0003166A
   451 0001:0003166E   452 0001:00031683   453 0001:000316A3   454 0001:000316B8
   456 0001:000316C0   457 0001:000316CD   461 0001:000316D1   463 0001:000316D7
   465 0001:000316E7   467 0001:000316F7   470 0001:0003170B   471 0001:00031714
   458 0001:00031715   473 0001:00031736   474 0001:0003173E   475 0001:0003175F
   478 0001:00031766   482 0001:00031771   483 0001:0003177F   480 0001:00031780
   485 0001:000317A6   487 0001:000317D7   476 0001:000317D8   490 0001:000317E3
   491 0001:000317EA   496 0001:00031824   497 0001:0003182E   499 0001:00031832
   500 0001:0003183A   503 0001:0003183C   504 0001:00031841   505 0001:00031850
   506 0001:0003185C   507 0001:00031875   508 0001:00031887   514 0001:00031890
   515 0001:000318CF   516 0001:000318D1   517 0001:000318D9   519 0001:000318DE
   520 0001:00031913   522 0001:0003191D   523 0001:0003196B   524 0001:00031970
   525 0001:0003199D   526 0001:000319CA   528 0001:000319DF   529 0001:000319EA
   530 0001:000319EC   533 0001:000319EE   534 0001:000319F8   540 0001:00031A74
   541 0001:00031AB6   542 0001:00031ABE   543 0001:00031AC0   545 0001:00031AC5
   546 0001:00031B01   548 0001:00031B0B   549 0001:00031B59   550 0001:00031B5E
   551 0001:00031B8B   553 0001:00031B9A   554 0001:00031BAA   556 0001:00031BB0
   557 0001:00031BF0   559 0001:00031BF2   562 0001:00031BF4   563 0001:00031BFE
   569 0001:00031C88   570 0001:00031CC0   571 0001:00031CC8   573 0001:00031CCD
   574 0001:00031CFC   576 0001:00031D06   577 0001:00031D11   578 0001:00031D16
   579 0001:00031D43   580 0001:00031D61   583 0001:00031D68   584 0001:00031D74
   585 0001:00031D99   581 0001:00031D9A   587 0001:00031DA6   588 0001:00031DB6
   589 0001:00031DDA   590 0001:00031DF6   592 0001:00031E04   593 0001:00031E0F
   596 0001:00031E11   597 0001:00031E1B   603 0001:00031E90   604 0001:00031EC8
   605 0001:00031ECF   606 0001:00031ED3   608 0001:00031ED8   609 0001:00031F07
   611 0001:00031F11   612 0001:00031F16   613 0001:00031F43   615 0001:00031F51
   616 0001:00031F6F   617 0001:00031F8D   618 0001:00031F91   621 0001:00031F93
   622 0001:00031F9D   633 0001:0003200C   634 0001:00032035   635 0001:00032039
   636 0001:0003204F   637 0001:00032051   638 0001:00032055   641 0001:0003205C
   643 0001:0003206B   644 0001:0003207E   646 0001:000320A0   647 0001:000320A4
   649 0001:000320A6   639 0001:000320A7   651 0001:000320B3   653 0001:000320FC
   654 0001:00032128   655 0001:0003212F   657 0001:00032134   658 0001:00032161
   660 0001:00032167   662 0001:00032173   663 0001:00032178   664 0001:000321A5
   665 0001:000321AF   668 0001:000321B1   669 0001:000321BB   675 0001:00032220
   676 0001:00032254   677 0001:0003225B   678 0001:0003225F   680 0001:00032264
   681 0001:00032293   683 0001:00032299   684 0001:0003229E   685 0001:000322CB
   687 0001:000322D9   688 0001:000322F7   689 0001:00032312   690 0001:00032316
   693 0001:00032318   694 0001:00032322   699 0001:00032390   700 0001:000323C5
   701 0001:000323CD   702 0001:000323E3   703 0001:000323F9   704 0001:000323FE
   706 0001:00032402   707 0001:00032411   704 0001:00032423   709 0001:00032426
   713 0001:0003242C   714 0001:0003244A   711 0001:0003244B   717 0001:00032471
   723 0001:000324A4   724 0001:000324B8   727 0001:000324BC   728 0001:000324C3
   729 0001:000324C5   730 0001:000324D1   732 0001:000324DA   733 0001:000324EC
   734 0001:000324FE   735 0001:00032510   736 0001:00032522   737 0001:00032534
   738 0001:00032546   739 0001:00032558   740 0001:0003256A   741 0001:0003257C
   742 0001:0003258E   743 0001:000325A0   744 0001:000325B2   745 0001:000325C4
   746 0001:000325D6   747 0001:000325E8   748 0001:000325FA   750 0001:0003260C
   760 0001:000326B3   761 0001:000326BC   766 0001:00032830   767 0001:00032833
   768 0001:00032848   773 0001:0003284C   774 0001:00032856   775 0001:00032865
   776 0001:00032873   777 0001:0003287D   779 0001:000328A0   781 0001:000328B0
   788 0001:000328B8   789 0001:000328DE   790 0001:000328E6   791 0001:000328ED
   792 0001:000328F7   794 0001:00032911   795 0001:0003291B   798 0001:00032920
   799 0001:00032927   800 0001:00032931   802 0001:0003293B   803 0001:0003296E
   804 0001:00032991   800 0001:00032997   805 0001:0003299A   808 0001:000329C8
   809 0001:000329E1   811 0001:000329E5   812 0001:000329F1   813 0001:00032A08
   814 0001:00032A10   815 0001:00032A2A   817 0001:00032A2E   818 0001:00032A30
   826 0001:00032A5C   827 0001:00032A7A   828 0001:00032A81   829 0001:00032AA3
   831 0001:00032AAB   832 0001:00032AC4   833 0001:00032AD0   834 0001:00032AE2
   836 0001:00032AEF   849 0001:00032B40   850 0001:00032B51   851 0001:00032B59
   852 0001:00032B65   854 0001:00032B69   856 0001:00032B6F   857 0001:00032B7B
   856 0001:00032B8F   859 0001:00032B92   860 0001:00032BA1   861 0001:00032BB4
   863 0001:00032BD4   868 0001:00032BE0   869 0001:00032C01   870 0001:00032C09
   872 0001:00032C0E   873 0001:00032C27   872 0001:00032C35   874 0001:00032C39
   876 0001:00032C42   877 0001:00032C66   879 0001:00032C88   881 0001:00032CB8
   882 0001:00032CE9   883 0001:00032CED   884 0001:00032D03   885 0001:00032D2C
   886 0001:00032D31   887 0001:00032D3C   889 0001:00032D42   890 0001:00032D50
   892 0001:00032D56   893 0001:00032D5A   897 0001:00032D5C   898 0001:00032D6D
   899 0001:00032D7E   900 0001:00032D90   901 0001:00032DA2   902 0001:00032DC2
   907 0001:00032E2C   908 0001:00032E3D   909 0001:00032E45   910 0001:00032E4F
   912 0001:00032E57   913 0001:00032E65   915 0001:00032E69   916 0001:00032E83
   919 0001:00032E96   920 0001:00032EA5   921 0001:00032EB2   923 0001:00032EB6
   924 0001:00032EDD   926 0001:00032EEF   933 0001:00032F04   934 0001:00032F29
   935 0001:00032F2D   936 0001:00032F34   937 0001:00032F39   938 0001:00032F45
   941 0001:00032F55   943 0001:00032F5F   944 0001:00032F67   948 0001:00032F75
   949 0001:00032F79   939 0001:00032F83   952 0001:00032F9E   954 0001:00032FB9
   957 0001:00032FC9   959 0001:00032FD5   960 0001:00032FE6   962 0001:00033016
   969 0001:00033054   970 0001:00033073   971 0001:0003307A   972 0001:00033091
   973 0001:000330C1   971 0001:000330ED   974 0001:000330F0   977 0001:00033128
   978 0001:0003314E   979 0001:00033152   981 0001:00033194   982 0001:0003319C
   990 0001:000331C8   991 0001:00033200   993 0001:0003320D   995 0001:0003321C
   996 0001:00033224   997 0001:00033241   998 0001:00033250  1000 0001:00033254
  1001 0001:0003327D  1003 0001:00033296  1004 0001:000332D1  1005 0001:000332E8
  1006 0001:000332EC  1007 0001:000332F3  1008 0001:000332FF  1009 0001:00033307
  1013 0001:0003330D  1016 0001:00033335  1017 0001:00033352  1018 0001:0003335F
  1020 0001:00033365  1022 0001:00033369  1023 0001:00033378  1024 0001:00033387
  1025 0001:0003338D  1028 0001:00033414  1029 0001:0003341F  1030 0001:00033426
  1031 0001:0003342E  1032 0001:00033433  1033 0001:00033438  1034 0001:00033440
  1035 0001:00033445  1036 0001:0003344D  1037 0001:00033452  1038 0001:0003345E
  1055 0001:0003346C  1056 0001:00033474  1058 0001:0003347F  1059 0001:00033481
  1061 0001:0003348E  1062 0001:00033494  1064 0001:000334AC  1066 0001:000334CC
  1068 0001:000334D3  1071 0001:00033508  1072 0001:0003350F  1075 0001:0003351E
  1076 0001:00033522  1077 0001:00033546  1080 0001:000335A0  1081 0001:000335A8
  1082 0001:000335B3  1084 0001:000335DE  1086 0001:000335ED  1087 0001:000335F1
  1088 0001:00033615  1105 0001:0003365C  1106 0001:00033676  1108 0001:000336D5
  1113 0001:00033720  1114 0001:00033759  1116 0001:00033760  1118 0001:00033766
  1120 0001:00033778  1123 0001:000337C2  1118 0001:000337C3  1126 0001:000337C6
  1128 0001:000337D0  1130 0001:000337E6  1131 0001:000337FF  1136 0001:0003387B
  1139 0001:000338B5  1128 0001:000338B6  1142 0001:000338BD  1143 0001:000338D8
  1145 0001:00033A24  1146 0001:00033A51  1147 0001:00033A55  1149 0001:00033A62
  1150 0001:00033A6C  1152 0001:00033A86  1156 0001:00033A8D  1157 0001:00033A96
  1161 0001:00033AAB  1164 0001:00033AC9  1165 0001:00033AD6  1166 0001:00033ADE
  1167 0001:00033AE6  1168 0001:00033AF4  1170 0001:00033B09  1171 0001:00033B1E
  1172 0001:00033B2B  1174 0001:00033B94  1168 0001:00033B95  1178 0001:00033BA1
  1179 0001:00033BAE  1180 0001:00033BB6  1181 0001:00033BC3  1182 0001:00033BD1
  1184 0001:00033BE6  1185 0001:00033BF7  1187 0001:00033C4F  1182 0001:00033C50
  1191 0001:00033C55  1192 0001:00033C62  1193 0001:00033C6A  1194 0001:00033C7A
  1198 0001:00033C92  1201 0001:00033CE3  1203 0001:00033CFA  1205 0001:00033D03
  1206 0001:00033D0A  1207 0001:00033D1E  1208 0001:00033D25  1211 0001:00033D37
  1213 0001:00033D3D  1215 0001:00033D5D  1218 0001:00033D71  1220 0001:00033D83
  1222 0001:00033DC8  1224 0001:00033DE8  1227 0001:00033DFC  1229 0001:00033E09
  1231 0001:00033E3A  1233 0001:00033E4E  1235 0001:00033E7F  1241 0001:00033E93
  1242 0001:00033EA2  1243 0001:00033EB4  1244 0001:00033EBE  1245 0001:00033EC7
  1246 0001:00033EE4  1247 0001:00033EF8  1248 0001:00033F06  1249 0001:00033F15
  1250 0001:00033F2D  1252 0001:00033F3B  1253 0001:00033F43  1254 0001:00033F58
  1256 0001:00033F8F  1258 0001:00033F99  1260 0001:00033F9F  1261 0001:00033FC3
  1262 0001:00033FCD  1264 0001:00033FD9  1250 0001:00033FDA  1266 0001:00033FEE
  1267 0001:00033FFE  1268 0001:0003400F  1272 0001:00034026  1273 0001:0003403A
  1276 0001:0003404A  1279 0001:0003405F  1281 0001:00034074  1282 0001:00034076
  1283 0001:0003408A  1284 0001:00034094  1288 0001:0003409D  1289 0001:000340B7
  1290 0001:000340BD  1291 0001:00034103  1292 0001:00034109  1293 0001:0003415D
  1295 0001:00034167  1299 0001:0003418A  1300 0001:0003419D  1301 0001:000341B7
  1302 0001:000341C8  1303 0001:000341CF  1304 0001:000341DA  1307 0001:000341E7
  1309 0001:000341F1  1311 0001:00034208  1312 0001:00034222  1313 0001:00034233
  1314 0001:0003423A  1315 0001:00034245  1316 0001:00034250  1320 0001:0003425C
  1322 0001:0003426E  1324 0001:00034280  1325 0001:0003428D  1335 0001:0003429C
  1336 0001:000342A0  1339 0001:000343D4  1340 0001:000343DD  1341 0001:000343EA
  1342 0001:000343ED  1343 0001:000343F5  1344 0001:000343FD  1351 0001:00034404
  1352 0001:00034423  1355 0001:00034438  1356 0001:00034452  1358 0001:00034463
  1359 0001:0003448B  1352 0001:0003448C  1360 0001:00034491  1363 0001:000344BC
  1364 0001:000344D8  1365 0001:000344F7  1370 0001:00034528  1371 0001:00034543
  1372 0001:00034557  1373 0001:00034578  1376 0001:000345AC  1377 0001:000345B9
  1378 0001:000345DC  1379 0001:000345E5  1384 0001:00034608  1385 0001:00034623
  1386 0001:00034637  1387 0001:00034658  1392 0001:0003468C  1393 0001:000346A7
  1394 0001:000346BB  1396 0001:000346DE  1397 0001:000346E7  1402 0001:0003471C
  1403 0001:00034737  1405 0001:0003474B  1406 0001:00034751  1409 0001:00034774
  1410 0001:0003477D  1415 0001:000347B4  1416 0001:000347D6  1418 0001:000347ED
  1419 0001:00034801  1421 0001:00034824  1422 0001:00034845  1436 0001:0003487C
  1437 0001:0003489A  1438 0001:000348B8  1439 0001:000348C2  1440 0001:000348CC
  1441 0001:000348EF  1443 0001:00034924  1444 0001:00034951  1445 0001:00034953
  1446 0001:00034964  1447 0001:00034973  1449 0001:0003497B  1450 0001:00034982
  1451 0001:00034994  1452 0001:000349AA  1453 0001:000349D1  1455 0001:000349D7
  1457 0001:000349EB  1458 0001:000349EE  1461 0001:00034A51  1464 0001:00034A53
  1465 0001:00034A64  1469 0001:00034AB0  1470 0001:00034AD2  1473 0001:00034B4C
  1476 0001:00034B7C  1477 0001:00034B9E  1478 0001:00034BDB  1481 0001:00034C20
  1482 0001:00034C3F  1483 0001:00034C75  1497 0001:00034CAC  1498 0001:00034CDB
  1499 0001:00034CE6  1500 0001:00034CF1  1501 0001:00034CFC  1502 0001:00034D10
  1505 0001:00034D1E  1506 0001:00034D2A  1507 0001:00034D39  1508 0001:00034D4B
  1509 0001:00034D5B  1510 0001:00034D6B  1511 0001:00034D79  1514 0001:00034D9D
  1515 0001:00034DA9  1516 0001:00034DB8  1517 0001:00034DC8  1518 0001:00034DD6
  1522 0001:00034E42  1523 0001:00034E4E  1524 0001:00034E5D  1525 0001:00034E6F
  1526 0001:00034E81  1527 0001:00034E93  1528 0001:00034EAB  1530 0001:00034EB9
  1536 0001:00034EF5  1539 0001:00034F27  1540 0001:00034F36  1541 0001:00034F44
  1544 0001:00034F68  1546 0001:00034F77  1547 0001:00034F84  1548 0001:00034F91
  1549 0001:00034FA1  1550 0001:00034FB1  1551 0001:00034FC3  1552 0001:00034FD0
  1553 0001:00034FDD  1554 0001:00034FEA  1555 0001:0003500A  1556 0001:0003502A
  1557 0001:0003503A  1558 0001:00035052  1559 0001:00035062  1560 0001:00035082
  1561 0001:00035091  1562 0001:000350A3  1565 0001:000350B0  1568 0001:000350BD
  1571 0001:000350C8  1572 0001:000350EC  1573 0001:000350FA  1574 0001:00035116
  1575 0001:0003511F  1577 0001:00035128  1581 0001:00035131  1582 0001:0003513D
  1583 0001:00035155  1584 0001:0003516D  1585 0001:00035173  1586 0001:0003518B
  1587 0001:0003519A  1588 0001:000351AA  1589 0001:000351B8  1592 0001:000351DC
  1593 0001:000351EB  1595 0001:00035200  1596 0001:00035212  1597 0001:00035236
  1601 0001:00035243  1602 0001:00035253  1603 0001:00035260  1604 0001:0003526D
  1605 0001:0003527A  1606 0001:00035287  1607 0001:00035294  1608 0001:000352A1
  1609 0001:000352AE  1610 0001:000352BB  1611 0001:000352C8  1612 0001:000352D5
  1613 0001:000352E2  1614 0001:000352EF  1617 0001:000352FF  1620 0001:0003530C
  1622 0001:00035317  1623 0001:00035325  1625 0001:00035359  1626 0001:0003535F
  1629 0001:00035365  1631 0001:0003536B  1634 0001:00035371  1636 0001:00035377
  1638 0001:0003537D  1644 0001:0003538E  1646 0001:0003539E  1660 0001:000359A4
  1661 0001:000359D3  1662 0001:000359EA  1665 0001:000359F8  1666 0001:00035A04
  1667 0001:00035A13  1668 0001:00035A23  1669 0001:00035A33  1670 0001:00035A43
  1671 0001:00035A51  1674 0001:00035A75  1675 0001:00035A81  1676 0001:00035A90
  1677 0001:00035AA2  1678 0001:00035AB4  1679 0001:00035AC6  1680 0001:00035AD6
  1681 0001:00035AEB  1683 0001:00035AF9  1686 0001:00035B1D  1688 0001:00035B36
  1689 0001:00035B42  1690 0001:00035B51  1691 0001:00035B61  1692 0001:00035B6F
  1695 0001:00035B93  1697 0001:00035BA2  1698 0001:00035BAF  1699 0001:00035BDE
  1701 0001:00035BF0  1702 0001:00035BFD  1703 0001:00035C0A  1705 0001:00035C23
  1706 0001:00035C28  1709 0001:00035C67  1710 0001:00035C74  1711 0001:00035C81
  1712 0001:00035C8E  1713 0001:00035C9B  1714 0001:00035CA8  1715 0001:00035CB5
  1716 0001:00035CBB  1718 0001:00035CCD  1719 0001:00035CDD  1720 0001:00035CEA
  1721 0001:00035CF7  1722 0001:00035D04  1723 0001:00035D11  1724 0001:00035D1E
  1725 0001:00035D36  1727 0001:00035D74  1728 0001:00035D81  1729 0001:00035D8E
  1730 0001:00035D9B  1733 0001:00035DAD  1736 0001:00035DBA  1738 0001:00035DC5
  1739 0001:00035DD3  1742 0001:00035DF7  1744 0001:00035E06  1745 0001:00035E18
  1746 0001:00035E28  1747 0001:00035E3A  1748 0001:00035E4C  1749 0001:00035E5E
  1750 0001:00035E70  1751 0001:00035E7F  1752 0001:00035E91  1753 0001:00035EA3
  1754 0001:00035EB5  1755 0001:00035EC7  1757 0001:00035ED6  1758 0001:00035F00
  1759 0001:00035F0E  1760 0001:00035F2A  1761 0001:00035F33  1763 0001:00035F3C
  1765 0001:00035F45  1769 0001:00035F4E  1770 0001:00035F5A  1771 0001:00035F72
  1772 0001:00035F8A  1773 0001:00035F99  1774 0001:00035FA9  1775 0001:00035FB7
  1782 0001:00036023  1783 0001:00036032  1785 0001:00036047  1789 0001:000360BB
  1793 0001:000360C8  1794 0001:000360D5  1795 0001:000360E2  1796 0001:000360EF
  1797 0001:000360FC  1798 0001:00036109  1799 0001:00036116  1800 0001:00036135
  1801 0001:00036144  1802 0001:00036151  1803 0001:0003615E  1804 0001:0003616B
  1805 0001:00036178  1806 0001:000361AD  1808 0001:000361BF  1809 0001:000361CC
  1810 0001:000361D9  1811 0001:000361E6  1812 0001:000361F3  1813 0001:00036200
  1814 0001:0003620D  1815 0001:0003621A  1816 0001:00036227  1817 0001:00036234
  1818 0001:00036241  1819 0001:00036253  1820 0001:00036260  1821 0001:0003626D
  1822 0001:0003627A  1823 0001:00036287  1824 0001:00036299  1825 0001:000362A6
  1826 0001:000362B3  1827 0001:000362C0  1830 0001:000362CD  1832 0001:000362D8
  1833 0001:000362E6  1834 0001:00036302  1836 0001:00036308  1839 0001:0003630E
  1841 0001:00036314  1844 0001:0003631A  1846 0001:00036320  1852 0001:00036331
  1854 0001:00036341  1868 0001:00036A90  1869 0001:00036ABF  1870 0001:00036AD6
  1873 0001:00036AE4  1874 0001:00036AF0  1875 0001:00036AFF  1876 0001:00036B11
  1877 0001:00036B21  1878 0001:00036B31  1879 0001:00036B43  1880 0001:00036B59
  1881 0001:00036B79  1882 0001:00036B87  1884 0001:00036BAB  1885 0001:00036BB7
  1886 0001:00036BC6  1887 0001:00036BD8  1888 0001:00036BEA  1889 0001:00036BFC
  1890 0001:00036C0E  1891 0001:00036C20  1892 0001:00036C38  1894 0001:00036C46
  1898 0001:00036C6A  1902 0001:00036C9C  1903 0001:00036CA8  1904 0001:00036CB7
  1905 0001:00036CC9  1906 0001:00036CDB  1907 0001:00036CE9  1910 0001:00036D08
  1911 0001:00036D0D  1913 0001:00036D35  1914 0001:00036D3B  1917 0001:00036D60
  1919 0001:00036D6F  1920 0001:00036D7C  1921 0001:00036D89  1922 0001:00036D96
  1923 0001:00036DA3  1924 0001:00036DB0  1925 0001:00036DBD  1926 0001:00036DCA
  1927 0001:00036DD7  1928 0001:00036DEF  1930 0001:00036E2D  1931 0001:00036E3D
  1932 0001:00036E6B  1933 0001:00036E80  1934 0001:00036E90  1935 0001:00036E9D
  1936 0001:00036EAA  1937 0001:00036EBC  1938 0001:00036EC9  1939 0001:00036ED6
  1940 0001:00036EE5  1941 0001:00036EF2  1942 0001:00036EFF  1943 0001:00036F0C
  1944 0001:00036F1C  1945 0001:00036F29  1948 0001:00036F36  1951 0001:00036F41
  1953 0001:00036F47  1954 0001:00036F57  1956 0001:00036F7D  1957 0001:00036F8D
  1958 0001:00036F9B  1959 0001:00036FB7  1960 0001:00036FC0  1962 0001:00036FC9
  1966 0001:00036FD2  1967 0001:00036FDE  1968 0001:00036FF6  1969 0001:0003700E
  1970 0001:0003701D  1971 0001:0003702F  1972 0001:00037041  1973 0001:00037051
  1974 0001:0003705F  1977 0001:00037083  1978 0001:00037088  1980 0001:000370B0
  1981 0001:000370B6  1983 0001:000370DB  1984 0001:000370EA  1986 0001:000370FF
  1988 0001:00037137  1992 0001:00037144  1993 0001:00037151  1994 0001:0003715E
  1995 0001:0003716E  1996 0001:0003717B  1997 0001:00037188  1998 0001:00037195
  1999 0001:000371A2  2000 0001:000371AF  2001 0001:000371BC  2002 0001:000371C9
  2003 0001:000371D6  2004 0001:000371E3  2005 0001:000371F0  2006 0001:000371FD
  2007 0001:0003720A  2008 0001:00037217  2009 0001:00037224  2010 0001:00037231
  2013 0001:0003723E  2014 0001:0003724B  2015 0001:00037258  2016 0001:00037265
  2017 0001:00037272  2018 0001:0003727F  2019 0001:0003728C  2020 0001:00037299
  2021 0001:000372A6  2022 0001:000372B3  2023 0001:000372C0  2024 0001:000372CD
  2025 0001:000372DA  2028 0001:000372EA  2030 0001:000372F5  2031 0001:00037303
  2032 0001:0003731F  2033 0001:00037325  2036 0001:0003732B  2038 0001:00037331
  2041 0001:00037337  2043 0001:0003733D  2049 0001:0003734E  2051 0001:0003735E
  2062 0001:00037958  2063 0001:00037964  2064 0001:00037970  2065 0001:0003797E
  2066 0001:00037988  2092 0001:000379D4  2094 0001:000379E4  2099 0001:000379F0
  2100 0001:000379F3  2102 0001:000379F7  2103 0001:000379FE  2105 0001:00037A02
  2106 0001:00037A04  2117 0001:00037A08  2118 0001:00037A21  2119 0001:00037A44
  2122 0001:00037A74  2123 0001:00037A7A  2124 0001:00037A86  2125 0001:00037A92
  2156 0001:00037A98  2157 0001:00037AB2  2159 0001:00037B11  2164 0001:00037B5C
  2165 0001:00037B66  2166 0001:00037B75  2167 0001:00037B83  2168 0001:00037B8D
  2170 0001:00037BB0  2172 0001:00037BC0  2178 0001:00037BC8  2179 0001:00037BFD
  2181 0001:00037C05  2183 0001:00037C09  2185 0001:00037C1A  2188 0001:00037C73
  2183 0001:00037C74  2191 0001:00037C77  2193 0001:00037C8B  2195 0001:00037CA1
  2196 0001:00037CBA  2200 0001:00037D2A  2193 0001:00037D2B  2203 0001:00037D32
  2204 0001:00037D51  2210 0001:00037E88  2211 0001:00037E94  2212 0001:00037E9B
  2213 0001:00037EA0  2214 0001:00037EAC  2217 0001:00037EBC  2219 0001:00037EC6
  2220 0001:00037ECE  2224 0001:00037EDC  2225 0001:00037EE9  2215 0001:00037EF0
  2228 0001:00037F0E  2230 0001:00037F28  2232 0001:00037F38  2237 0001:00037F40
  2238 0001:00037F5D  2243 0001:00037F62  2246 0001:00037F7D  2248 0001:00037FAA
  2250 0001:00037FC7  2252 0001:00037FD0  2253 0001:00037FD7  2254 0001:00037FEE
  2255 0001:00037FF5  2258 0001:0003800A  2260 0001:00038036  2262 0001:00038052
  2264 0001:00038064  2266 0001:000380A0  2270 0001:000380CC  2271 0001:000380E2
  2273 0001:00038140  2274 0001:00038174  2275 0001:00038179  2276 0001:00038181
  2278 0001:0003818A  2279 0001:00038191  2281 0001:00038196  2282 0001:000381A4
  2284 0001:000381AC  2285 0001:000381BC  2286 0001:000381D2  2288 0001:000381E0
  2290 0001:000381F0  2291 0001:000381F9  2293 0001:00038211  2295 0001:00038233
  2296 0001:00038250  2297 0001:0003825E  2299 0001:00038283  2300 0001:000382A5
  2301 0001:000382B3  2303 0001:000382C0  2304 0001:000382C7  2306 0001:000382E1
  2308 0001:000382F7  2310 0001:0003832D  2312 0001:00038353  2314 0001:00038389
  2317 0001:000383AF  2318 0001:000383BE  2319 0001:000383C5  2320 0001:000383C8
  2321 0001:000383E5  2322 0001:0003840B  2323 0001:00038419  2324 0001:0003841E
  2325 0001:0003842B  2327 0001:0003843B  2328 0001:00038441  2329 0001:00038455
  2330 0001:00038479  2332 0001:0003847F  2333 0001:00038485  2334 0001:0003848B
  2336 0001:00038494  2325 0001:00038497  2338 0001:000384A9  2341 0001:000384C1
  2342 0001:000384D0  2343 0001:000384DB  2344 0001:000384E1  2345 0001:000384EF
  2347 0001:000384F4  2348 0001:000384FB  2351 0001:0003851D  2354 0001:0003853C
  2357 0001:0003855B  2358 0001:00038569  2359 0001:0003857F  2361 0001:0003858C
  2375 0001:00038618  2376 0001:00038624  2377 0001:00038642  2378 0001:0003864A
  2379 0001:0003864C  2381 0001:00038654  2382 0001:0003868F  2383 0001:00038694
  2384 0001:0003869C  2385 0001:000386AC  2387 0001:000386B5  2388 0001:000386BC
  2390 0001:000386C1  2391 0001:000386CF  2392 0001:000386D4  2393 0001:000386EC
  2392 0001:00038722  2395 0001:00038727  2397 0001:00038738  2398 0001:00038741
  2400 0001:00038759  2402 0001:0003877B  2403 0001:00038798  2404 0001:000387A6
  2407 0001:000387DC  2408 0001:000387FE  2409 0001:0003880C  2411 0001:0003881A
  2412 0001:00038829  2413 0001:00038837  2414 0001:00038853  2416 0001:00038871
  2417 0001:000388A8  2418 0001:000388B3  2421 0001:000388F9  2423 0001:00038925
  2424 0001:00038933  2425 0001:0003894C  2426 0001:00038956  2427 0001:0003895C
  2428 0001:0003896A  2429 0001:0003896C  2431 0001:00038975  2432 0001:0003897A
  2433 0001:00038986  2434 0001:0003899E  2435 0001:000389A4  2429 0001:000389B4
  2438 0001:000389C6  2440 0001:000389D8  2413 0001:000389DB  2442 0001:000389F1
  2445 0001:00038A0E  2448 0001:00038A2D  2451 0001:00038A4C  2452 0001:00038A5A
  2453 0001:00038A70  2455 0001:00038A7D  2497 0001:00038AD4  2498 0001:00038AE6
  2499 0001:00038AF3  2503 0001:00038B10  2504 0001:00038B13  2509 0001:00038B14
  2510 0001:00038B1A  2511 0001:00038B32  2512 0001:00038B38  2513 0001:00038B43
  2514 0001:00038B4E  2515 0001:00038B59  2516 0001:00038B64  2517 0001:00038B6A
  2518 0001:00038B75  2521 0001:00038BF0  2522 0001:00038BF3  2523 0001:00038BF8
  2524 0001:00038C00  2525 0001:00038C08  2526 0001:00038C10  2527 0001:00038C18
  2528 0001:00038C1D  2529 0001:00038C25

Line numbers for EWebTools(EWebTools.pas) segment .itext

  2531 0002:000002F0

Line numbers for EZlib2(EZLib2.pas) segment .text

   215 0001:00038D54   216 0001:00038D5D   220 0001:00038D60   221 0001:00038D67
   232 0001:00038D68   233 0001:00038D77   238 0001:00038D80   239 0001:00038D97
   241 0001:00038D99   242 0001:00038D9D   243 0001:00038DC7   292 0001:00038DEC
   293 0001:00038DFC   295 0001:00038E0B   296 0001:00038E17   298 0001:00038E1C
   300 0001:00038E2B   301 0001:00038E39   302 0001:00038E3C   303 0001:00038E3F
   304 0001:00038E47   306 0001:00038E4F   308 0001:00038E5C   310 0001:00038E6A
   311 0001:00038E76   313 0001:00038E7A   314 0001:00038E7F   316 0001:00038E8C
   317 0001:00038E97   319 0001:00038E9A   321 0001:00038EAB   324 0001:00038EC0
   325 0001:00038ECB   327 0001:00038EE2   328 0001:00038EEC   330 0001:00038EF6
   335 0001:00038F00   336 0001:00038F03   337 0001:00038F12   340 0001:00038F14
   341 0001:00038F17   342 0001:00038F25   345 0001:00038F28   346 0001:00038F2B
   347 0001:00038F33   350 0001:00038F38   351 0001:00038F3B   352 0001:00038F43
   355 0001:00038F48   356 0001:00038F4B   357 0001:00038F50   361 0001:00038F54
   362 0001:00038F5E   365 0001:00038F60   366 0001:00038F63   367 0001:00038F6D
   378 0001:00038F70   379 0001:00038F76   380 0001:00038F78   382 0001:00038F81
   383 0001:00038F95   385 0001:00038F99   386 0001:00038FA8   391 0001:00038FB8
   392 0001:00038FBE   393 0001:00038FC0   395 0001:00038FC9   396 0001:00038FDD
   398 0001:00038FE1   399 0001:00038FEA   404 0001:00038FFC   405 0001:00039002
   406 0001:00039004   408 0001:0003900D   409 0001:00039021   411 0001:00039025
   412 0001:0003903C   417 0001:0003904C   418 0001:00039052   420 0001:00039054
   421 0001:00039063   423 0001:0003906C   424 0001:00039080   426 0001:00039084
   427 0001:0003909B   432 0001:000390BC   433 0001:000390C2   435 0001:000390C4
   436 0001:000390D3   438 0001:000390DC   439 0001:000390F0   441 0001:000390F4
   442 0001:000390FD   447 0001:0003911C   448 0001:00039122   450 0001:00039124
   451 0001:00039133   453 0001:0003913C   454 0001:00039150   456 0001:00039154
   457 0001:00039167   462 0001:00039188   463 0001:0003918E   465 0001:00039190
   466 0001:0003919F   468 0001:000391A8   469 0001:000391BC   471 0001:000391C0
   472 0001:000391C9   483 0001:000391E8   484 0001:0003920D   486 0001:0003921B
   487 0001:00039230   490 0001:00039239   492 0001:0003923F   495 0001:00039253
   497 0001:00039268   498 0001:00039274   499 0001:00039288   502 0001:000392A0
   503 0001:000392A6   504 0001:000392AD   505 0001:000392B4   506 0001:000392BB
   507 0001:000392C2   512 0001:000392C9   515 0001:000392EC   516 0001:00039302
   517 0001:0003931A   518 0001:00039325   531 0001:00039348   532 0001:00039354
   533 0001:00039372   535 0001:0003937A   536 0001:0003937C   538 0001:00039384
   539 0001:000393B1   541 0001:000393B5   542 0001:000393BA   544 0001:000393CE
   545 0001:000393D8   546 0001:000393E6   547 0001:000393F5   549 0001:0003940A
   550 0001:00039424   552 0001:00039434   553 0001:00039442   554 0001:00039451
   556 0001:00039464   558 0001:0003946F   559 0001:00039473   561 0001:00039482
   566 0001:000394AB   568 0001:000394BB   569 0001:000394C8   571 0001:000394E5
   574 0001:00039503   576 0001:00039513   577 0001:00039517   582 0001:00039548
   583 0001:0003954C   585 0001:0003954E   586 0001:00039555   588 0001:00039559
   589 0001:00039562   591 0001:00039566   592 0001:00039568

Line numbers for EZlib2(EZLib2.pas) segment .text

   683 0001:0004129E

Line numbers for EZip(EZip.pas) segment .text

    56 0001:00040870    57 0001:00040888    58 0001:00040897    59 0001:000408A2
    62 0001:000408C0    63 0001:000408C9    64 0001:000408EC    67 0001:000408F0
    68 0001:000408FB    69 0001:00040903    70 0001:0004090F    72 0001:0004094B

Line numbers for ESockets(ESockets.pas) segment .text

    80 0001:00040AE4    81 0001:00040AEA    82 0001:00040AEC    84 0001:00040AF5
    85 0001:00040B05    86 0001:00040B0C    90 0001:00040B14    91 0001:00040B1E
    92 0001:00040B25   100 0001:00040B28   101 0001:00040B2E   102 0001:00040B3D
   103 0001:00040B4D   105 0001:00040B51   107 0001:00040B53   108 0001:00040B5F
   109 0001:00040B67   110 0001:00040B6F   113 0001:00040B77   114 0001:00040B7E
   119 0001:00040B88   120 0001:00040BA6   121 0001:00040BB6   122 0001:00040BCA
   123 0001:00040BEC   125 0001:00040C0B   127 0001:00040C23   128 0001:00040C2A
   129 0001:00040C39   130 0001:00040C4C   131 0001:00040C72   132 0001:00040C78
   134 0001:00040C8E   135 0001:00040C93   139 0001:00040D1C   140 0001:00040D34
   141 0001:00040D3D   142 0001:00040D45   143 0001:00040D4D   144 0001:00040D53
   145 0001:00040D58   146 0001:00040D5E   147 0001:00040D68   148 0001:00040D70
   149 0001:00040D86   150 0001:00040D8C   151 0001:00040D90   152 0001:00040D94
   155 0001:00040DB4   156 0001:00040DBF   157 0001:00040DCC   158 0001:00040DD8
   161 0001:00040DE8   162 0001:00040E04   163 0001:00040E11   164 0001:00040E39
   165 0001:00040E40   166 0001:00040E46   167 0001:00040E4B   168 0001:00040E51
   169 0001:00040E55   170 0001:00040E5D   171 0001:00040E65   176 0001:00040EB0
   177 0001:00040ED3   179 0001:00040EDD   181 0001:00040EE2   182 0001:00040EF4
   183 0001:00040EF7   184 0001:00040F1F   185 0001:00040F25   186 0001:00040F32
   188 0001:00040F40   189 0001:00040F4F   190 0001:00040F54   191 0001:00040F66
   192 0001:00040F79   193 0001:00040FA1   194 0001:00040FAB   199 0001:00041003
   200 0001:0004100B   205 0001:000410A0   206 0001:000410C1   207 0001:000410C3
   209 0001:000410C9   210 0001:000410DB   212 0001:000410E0   213 0001:000410E7
   215 0001:000410EF   216 0001:000410F6   217 0001:000410FA   220 0001:0004111F
   221 0001:00041127   227 0001:00041170   228 0001:00041191   229 0001:00041196
   231 0001:0004119D   232 0001:000411B1   233 0001:000411BE   235 0001:000411C2
   236 0001:000411D3   237 0001:000411E3   238 0001:000411E6   240 0001:0004120B
   241 0001:0004120F   246 0001:00041238   247 0001:0004125A   248 0001:0004125F
   249 0001:0004126A   252 0001:0004127E   253 0001:00041284   254 0001:00041294
   256 0001:0004129A   257 0001:000412A1   259 0001:000412A9   260 0001:000412B0
   261 0001:000412B4   265 0001:000412D9   271 0001:00041320   272 0001:00041341
   274 0001:00041349   275 0001:00041357   277 0001:0004135B   278 0001:00041365
   279 0001:00041387   280 0001:00041395   281 0001:000413A0   282 0001:000413AB
   284 0001:000413B2   285 0001:000413C0   286 0001:000413C7   288 0001:000413D9
   289 0001:000413E1   294 0001:00041408   295 0001:0004140F   297 0001:00041416
   298 0001:0004141F   299 0001:0004142B   300 0001:0004143C   303 0001:00041440
   304 0001:00041449   305 0001:00041452   306 0001:00041474   311 0001:00041494
   312 0001:0004149A   313 0001:000414A1   314 0001:000414D1   321 0001:000414D8
   322 0001:00041513   323 0001:00041517   324 0001:00041521   325 0001:00041528
   326 0001:00041543   328 0001:00041548   329 0001:00041566   330 0001:00041570
   332 0001:00041577   333 0001:0004157B   334 0001:0004157D   329 0001:00041580
   336 0001:00041583   340 0001:000415BC   341 0001:000415FE   342 0001:00041600
   344 0001:0004160A   345 0001:00041639   346 0001:00041646   348 0001:00041660
   349 0001:0004166B   350 0001:00041673   352 0001:00041682   353 0001:0004169E
   382 0001:000416E0   383 0001:000416F6   384 0001:00041712   387 0001:00041748
   388 0001:0004174E   389 0001:00041766   391 0001:0004176C   392 0001:00041789
   393 0001:00041798   394 0001:0004179D   395 0001:000417AA   396 0001:000417B4
   397 0001:000417C2   398 0001:000417D2   400 0001:000417DA   401 0001:000417E2
   403 0001:000417EB   404 0001:000417F6   405 0001:00041804   406 0001:0004180E
   407 0001:00041812   409 0001:00041815   410 0001:00041832   411 0001:00041838
   413 0001:0004183C   414 0001:00041856   411 0001:00041858   418 0001:00041869
   423 0001:00041886   425 0001:00041897   426 0001:000418A3   430 0001:0004190C
   431 0001:00041921   437 0001:00041924   438 0001:00041950   439 0001:00041958
   440 0001:00041967   442 0001:0004196C   445 0001:00041978   446 0001:00041984
   447 0001:00041989   448 0001:0004199F   443 0001:000419A9   450 0001:000419B7
   452 0001:000419C7   453 0001:000419CF   455 0001:000419D4   456 0001:000419FF
   457 0001:00041A02   458 0001:00041A1E   459 0001:00041A62   460 0001:00041A6D
   461 0001:00041A6F   469 0001:00041AA8   470 0001:00041AD4   473 0001:00041ADD
   474 0001:00041AEC   475 0001:00041B0B   476 0001:00041B1F   477 0001:00041B2E
   471 0001:00041B58   479 0001:00041B68   481 0001:00041BA8   482 0001:00041BC1
   483 0001:00041BE4   493 0001:00041C30   494 0001:00041C5E   495 0001:00041C61
   496 0001:00041C65   497 0001:00041C7D   499 0001:00041C82   500 0001:00041C85
   502 0001:00041C9D   504 0001:00041CA2   505 0001:00041CA5   507 0001:00041CC4
   508 0001:00041CC6   510 0001:00041CF8   511 0001:00041D28   512 0001:00041D30
   513 0001:00041D37   514 0001:00041D45   515 0001:00041D49   517 0001:00041D4C
   518 0001:00041D6A   519 0001:00041D96   521 0001:00041D9C   524 0001:00041DA0
   525 0001:00041DAB   527 0001:00041DAD   529 0001:00041DB3   530 0001:00041DB9
   541 0001:00041DF0   542 0001:00041E1C   543 0001:00041E24   544 0001:00041E38
   545 0001:00041E5F   546 0001:00041E67   547 0001:00041E75   550 0001:00041E7F
   552 0001:00041E84   553 0001:00041EB0   554 0001:00041EBE   555 0001:00041EC5
   556 0001:00041ED0   558 0001:00041EEB   559 0001:00041EF6   562 0001:00041F14
   564 0001:00041F24   565 0001:00041F27   566 0001:00041F39   548 0001:00041F3C
   568 0001:00041F56   569 0001:00041F5E   572 0001:00041F91   574 0001:00041FA1
   580 0001:0004200C   581 0001:00042011   585 0001:00042014   586 0001:00042019
   594 0001:0004201C   596 0001:00042044

Line numbers for ESockets(ESockets.pas) segment .itext

   590 0002:000002F8   591 0002:00000301   593 0002:00000310

Line numbers for ELang(ELang.pas) segment .text

    25 0001:00042074    32 0001:0004207C    33 0001:00042096    34 0001:000420B3
    35 0001:000420C8    36 0001:000420E9    37 0001:000420F5    38 0001:000420F8
    67 0001:00042152

Line numbers for EHook(EHook.pas) segment .text

   175 0001:0004231C   176 0001:0004232E   177 0001:00042337   178 0001:00042340
   181 0001:0004235C   182 0001:00042362   183 0001:0004236B   187 0001:00042370
   188 0001:00042379   192 0001:0004237C   193 0001:00042385   199 0001:00042388
   200 0001:0004238E   202 0001:00042397   203 0001:000423A1   204 0001:000423AA
   209 0001:000423B0   210 0001:000423C8   211 0001:000423D0   212 0001:000423DE
   213 0001:000423E9   212 0001:00042407   215 0001:00042417   217 0001:00042427
   218 0001:00042433   219 0001:00042442   225 0001:00042458   226 0001:00042460
   232 0001:00042464   233 0001:00042469   234 0001:00042471   235 0001:0004247C
   236 0001:00042487   237 0001:00042489   238 0001:00042497   239 0001:000424A5
   245 0001:000424AC   246 0001:000424BC   247 0001:000424C1   249 0001:000424CE
   250 0001:000424D8   251 0001:000424E6   252 0001:000424F3   254 0001:000424F8
   256 0001:00042508   259 0001:0004252C   260 0001:0004253E   262 0001:00042540
   254 0001:00042541   266 0001:00042546   267 0001:00042552   268 0001:0004255C
   269 0001:0004255E   270 0001:00042564   271 0001:0004256A   274 0001:00042583
   277 0001:00042595   282 0001:000425A0   283 0001:000425AE   284 0001:000425B2
   286 0001:000425BF   287 0001:000425C9   288 0001:000425D7   290 0001:000425E7
   293 0001:0004260B   294 0001:00042624   295 0001:00042630   296 0001:00042634
   298 0001:00042636   288 0001:00042637   300 0001:00042647   303 0001:00042659
   310 0001:00042664   311 0001:0004266E   312 0001:00042678   313 0001:00042683
   314 0001:00042690   315 0001:0004269D   320 0001:000426A4   321 0001:000426A7
   322 0001:000426AB   323 0001:000426B4   324 0001:000426C0   329 0001:000426C4
   330 0001:000426CD   331 0001:000426DD   332 0001:000426EB   339 0001:000426F4
   340 0001:000426F7   341 0001:000426F9   342 0001:00042704   345 0001:00042708
   346 0001:0004270B   347 0001:0004270D   348 0001:0004271E   350 0001:00042720
   351 0001:0004273D   352 0001:0004273F   353 0001:0004274B   354 0001:00042755
   355 0001:0004275B   357 0001:0004276B   358 0001:0004276D   360 0001:0004277E
   363 0001:00042789   364 0001:0004278B   367 0001:00042794   368 0001:00042796
   370 0001:0004279F   373 0001:000427A3   375 0001:000427B3   376 0001:000427B5
   378 0001:000427C0   379 0001:000427C4   380 0001:000427C8   383 0001:000427CA
   385 0001:000427D0   387 0001:000427EF   389 0001:0004280A   391 0001:00042819
   394 0001:00042830   395 0001:00042847   402 0001:00042860   403 0001:0004286B
   404 0001:0004286E   405 0001:00042880   407 0001:00042882   408 0001:00042885
   409 0001:000428BD   410 0001:000428BE   411 0001:000428CC   412 0001:000428D7
   414 0001:000428DC   415 0001:000428E1   416 0001:000428E4   417 0001:000428E5
   418 0001:000428E7   422 0001:000428EB   423 0001:000428F0   424 0001:000428F2
   426 0001:000428F4   427 0001:00042904   428 0001:0004290A   430 0001:00042910
   432 0001:00042914   433 0001:0004291A   435 0001:00042929   436 0001:0004292C
   441 0001:00042938   442 0001:0004293F   443 0001:00042940   445 0001:00042961
   447 0001:00042968   454 0001:00042994   455 0001:0004299D   457 0001:000429A4
   459 0001:000429A8   460 0001:000429AD   463 0001:000429B2   464 0001:000429C0
   465 0001:000429C2   466 0001:000429C6   467 0001:000429C8   469 0001:000429CC
   472 0001:000429DC   474 0001:000429F0   475 0001:000429F6   477 0001:00042A06
   478 0001:00042A0F   481 0001:00042A19   482 0001:00042A1D   483 0001:00042A23
   467 0001:00042A29   487 0001:00042A3C   488 0001:00042A41   496 0001:00042A4C
   497 0001:00042A55   498 0001:00042A57   499 0001:00042A5B   500 0001:00042A61
   501 0001:00042A67   504 0001:00042A6B   507 0001:00042A7C   509 0001:00042A90
   510 0001:00042A97   512 0001:00042AA8   513 0001:00042AB2   514 0001:00042ABD
   517 0001:00042AD6   518 0001:00042ADB   519 0001:00042AE2   502 0001:00042AE9
   521 0001:00042AF4   529 0001:00042B00   530 0001:00042B0A   531 0001:00042B0E
   532 0001:00042B10   533 0001:00042B14   534 0001:00042B1C   535 0001:00042B23
   536 0001:00042B25   538 0001:00042B2E   541 0001:00042B43   544 0001:00042B58
   545 0001:00042B5C   547 0001:00042B61   548 0001:00042B62   549 0001:00042B66
   550 0001:00042B6A   552 0001:00042B71   555 0001:00042B76   557 0001:00042B8F
   558 0001:00042B99   561 0001:00042BA4   563 0001:00042BBB   564 0001:00042BD0
   565 0001:00042BDD   566 0001:00042BEA   567 0001:00042BFB   571 0001:00042C05
   574 0001:00042C2D   575 0001:00042C36   578 0001:00042C41   580 0001:00042C54
   581 0001:00042C68   582 0001:00042C74   586 0001:00042C87   587 0001:00042C8C
   588 0001:00042C93   536 0001:00042C9A   590 0001:00042CA3   599 0001:00042CAC
   600 0001:00042CBE   602 0001:00042CCE   603 0001:00042CDC   605 0001:00042CE3
   606 0001:00042CE6   608 0001:00042CEB   600 0001:00042CEC   610 0001:00042CEF
   611 0001:00042CF2   612 0001:00042CF4   614 0001:00042CF6   615 0001:00042D07
   616 0001:00042D0D   617 0001:00042D13   618 0001:00042D18   619 0001:00042D28
   622 0001:00042D33   623 0001:00042D3F   624 0001:00042D44   625 0001:00042D47
   626 0001:00042D4E   627 0001:00042D51   628 0001:00042D5B   629 0001:00042D67
   632 0001:00042D73   635 0001:00042D85   637 0001:00042D90   639 0001:00042D9B
   640 0001:00042DA6   642 0001:00042DB1   643 0001:00042DB3   646 0001:00042DBC
   647 0001:00042DE7   648 0001:00042DF0   650 0001:00042DF9   651 0001:00042DFD
   653 0001:00042E25   655 0001:00042E37   658 0001:00042E6C   659 0001:00042E7A
   661 0001:00042E94   663 0001:00042EBF   669 0001:00042F8C   670 0001:00042F93
   671 0001:00042F97   674 0001:00042F9B   675 0001:00042FA9   678 0001:00042FB4
   679 0001:00042FC1   680 0001:00042FCC   681 0001:00042FD7   682 0001:00042FDE
   683 0001:00042FEA   685 0001:00042FEE   672 0001:00042FEF   687 0001:00042FFC
   705 0001:00043008   706 0001:00043018   710 0001:0004301C   711 0001:00043020
   712 0001:00043022   714 0001:00043032   717 0001:00043041   718 0001:00043046
   719 0001:0004305E   720 0001:00043060   723 0001:00043068   724 0001:0004306E
   725 0001:00043077   726 0001:000430A0   728 0001:000430CC   729 0001:00043101
   731 0001:00043106   732 0001:0004310C   734 0001:00043132   736 0001:00043145
   738 0001:00043176   739 0001:0004317C   740 0001:00043182   741 0001:000431A1
   742 0001:000431A9   744 0001:000431AD   745 0001:000431B4   748 0001:000431B9
   749 0001:000431CB   751 0001:000431D2   752 0001:000431D9   755 0001:000431DE
   758 0001:000431E8   759 0001:000431F1   761 0001:0004320B   764 0001:00043216
   766 0001:0004321C   767 0001:00043221   771 0001:00043243   772 0001:0004324B
   774 0001:0004324F   775 0001:0004325E   777 0001:00043264   778 0001:00043277
   779 0001:00043280   780 0001:00043289   781 0001:00043291   782 0001:0004329F
   784 0001:000432AC   786 0001:000432B2   762 0001:000432B5   789 0001:000432BE
   756 0001:000432C1   792 0001:000432CB   793 0001:000432D7   794 0001:000432FD
   803 0001:000433D4   804 0001:0004342A   805 0001:0004342E   807 0001:0004344E
   809 0001:00043459   810 0001:00043468   812 0001:0004346C   814 0001:000434A0
   816 0001:000434B3   807 0001:000434B6   818 0001:000434B9   819 0001:000434C1
   836 0001:00043520   837 0001:00043531   838 0001:00043542   839 0001:00043553
   846 0001:00043554   847 0001:0004355D   849 0001:0004356B   850 0001:00043577
   851 0001:0004358E   852 0001:0004359B   847 0001:0004359C   853 0001:0004359F
   854 0001:000435A7   855 0001:000435AC   856 0001:000435B6   857 0001:000435BD
   859 0001:000435CB   860 0001:000435D7   861 0001:000435DE   857 0001:000435DF
   862 0001:000435E4   863 0001:000435EE   864 0001:000435F5   872 0001:000435FC
   874 0001:00043624

Line numbers for EHook(EHook.pas) segment .itext

   868 0002:0000032C   869 0002:00000335   871 0002:00000344

Line numbers for ExceptionLog(ExceptionLog.pas) segment .text

  1359 0001:00044194  1377 0001:00044198  1378 0001:000441A3  1379 0001:000441AB
  1380 0001:000441B7  1386 0001:000441C8  1387 0001:000441DB  1398 0001:000441DC
  1399 0001:000441EA  1401 0001:000441EE  1402 0001:000441FC  1404 0001:0004421A
  1407 0001:00044229  1408 0001:00044233  1409 0001:00044241  1410 0001:0004424F
  1412 0001:00044260  1416 0001:00044271  1417 0001:0004427A  1418 0001:00044282
  1419 0001:0004428B  1420 0001:00044294  1421 0001:00044298  1423 0001:0004429A
  1410 0001:0004429D  1425 0001:000442AF  1428 0001:000442C5  1430 0001:000442D7
  1439 0001:000442E4  1440 0001:000442ED  1441 0001:000442F9  1442 0001:00044303
  1443 0001:0004430D  1444 0001:00044318  1445 0001:00044322  1446 0001:0004432D
  1447 0001:00044338  1449 0001:0004433C  1450 0001:0004434D  1451 0001:0004435B
  1453 0001:0004437F  1456 0001:0004438E  1457 0001:00044398  1458 0001:000443A6
  1459 0001:000443B4  1461 0001:000443BD  1462 0001:000443D1  1466 0001:000443E0
  1467 0001:000443EC  1471 0001:00044401  1474 0001:0004441A  1476 0001:0004442C
  1484 0001:00044438  1485 0001:0004445E  1487 0001:00044465  1489 0001:0004448D
  1491 0001:00044496  1492 0001:000444A4  1494 0001:000444A8  1496 0001:000444AB
  1495 0001:000444AC  1497 0001:000444C0  1498 0001:000444DD  1500 0001:00044501
  1501 0001:0004451B  1504 0001:00044550  1505 0001:00044566  1506 0001:00044579
  1511 0001:0004459C  1515 0001:0004459F  1517 0001:000445AD  1524 0001:000445B0
  1526 0001:000445B5  1533 0001:000445B8  1535 0001:000445BD  1538 0001:000445C0
  1542 0001:000445C3  1544 0001:000445CF  1586 0001:000445D4  1587 0001:000445DA
  1588 0001:000445E3  1628 0001:000445E8  1629 0001:00044619  1630 0001:0004461D
  1632 0001:00044629  1633 0001:00044633  1636 0001:00044660  1637 0001:00044683
  1638 0001:00044690  1643 0001:000446B4  1644 0001:000446BD  1645 0001:000446C8
  1646 0001:000446D6  1652 0001:000446E0  1653 0001:00044701  1654 0001:00044709
  1656 0001:0004470D  1657 0001:0004470F  1658 0001:00044725  1660 0001:0004472C
  1661 0001:00044747  1664 0001:0004474B  1666 0001:0004474F  1667 0001:0004475F
  1668 0001:00044761  1657 0001:00044762  1670 0001:00044765  1675 0001:00044798
  1676 0001:000447A1  1677 0001:000447AA  1678 0001:000447BB  1677 0001:000447C7
  1679 0001:000447CA  1686 0001:000447DC  1687 0001:000447E5  1688 0001:000447EE
  1689 0001:00044810  1691 0001:00044824  1692 0001:00044855  1693 0001:0004485C
  1694 0001:0004487A  1695 0001:00044898  1696 0001:000448B6  1697 0001:00044921
  1698 0001:0004498C  1699 0001:000449F7  1700 0001:00044A4C  1707 0001:00044AE4
  1708 0001:00044AEA  1709 0001:00044AEC  1710 0001:00044AFA  1712 0001:00044B1C
  1714 0001:00044B26  1716 0001:00044B30  1719 0001:00044B33  1720 0001:00044B36
  1721 0001:00044B3F  1723 0001:00044B45  1724 0001:00044B55  1729 0001:00044B5C
  1730 0001:00044B7F  1731 0001:00044B8E  1732 0001:00044B9C  1733 0001:00044BBC
  1734 0001:00044BC8  1736 0001:00044BDF  1738 0001:00044BEF  1741 0001:00044C14
  1742 0001:00044C17  1743 0001:00044C29  1744 0001:00044C37  1747 0001:00044C3C
  1748 0001:00044C59  1749 0001:00044C6B  1750 0001:00044C8A  1751 0001:00044CA9
  1752 0001:00044CC8  1759 0001:00044D54  1760 0001:00044D7A  1761 0001:00044D89
  1762 0001:00044D97  1763 0001:00044DAC  1764 0001:00044DE0  1766 0001:00044DF9
  1767 0001:00044E06  1768 0001:00044E15  1769 0001:00044E56  1771 0001:00044E75
  1774 0001:00044E92  1775 0001:00044EA1  1777 0001:00044EA9  1778 0001:00044ECF
  1780 0001:00044F1C  1783 0001:00044F2F  1784 0001:00044F3C  1764 0001:00044F3D
  1785 0001:00044F46  1786 0001:00044F51  1788 0001:00044F8A  1790 0001:00044F9A
  1791 0001:00044FE0  1798 0001:000451D4  1799 0001:00045203  1800 0001:00045212
  1801 0001:00045220  1802 0001:00045235  1804 0001:0004524C  1805 0001:00045259
  1807 0001:0004527E  1808 0001:0004528E  1809 0001:000452A0  1810 0001:000452B2
  1811 0001:000452C7  1813 0001:000452D4  1814 0001:000452E1  1815 0001:000452F4
  1816 0001:00045301  1802 0001:00045302  1817 0001:0004530B  1818 0001:00045316
  1820 0001:0004534F  1822 0001:0004535F  1823 0001:000453A5  1835 0001:00045570
  1836 0001:00045596  1837 0001:000455A0  1838 0001:000455AE  1839 0001:000455BD
  1841 0001:000455DE  1843 0001:000455F1  1844 0001:00045600  1845 0001:0004560E
  1846 0001:00045624  1847 0001:00045658  1848 0001:00045692  1850 0001:00045697
  1851 0001:000456A4  1852 0001:000456B6  1853 0001:000456C8  1854 0001:000456DA
  1855 0001:000456EC  1856 0001:000456F9  1848 0001:000456FA  1857 0001:000456FF
  1858 0001:0004570F  1859 0001:00045772  1860 0001:000457B6  1861 0001:000457C6
  1862 0001:000457D8  1863 0001:000457EA  1864 0001:00045814  1866 0001:0004582E
  1867 0001:0004583B  1868 0001:0004584D  1869 0001:0004585F  1870 0001:00045871
  1871 0001:00045883  1872 0001:00045895  1873 0001:000458A7  1874 0001:000458B4
  1875 0001:000458C1  1864 0001:000458C2  1876 0001:000458C9  1877 0001:000458D4
  1879 0001:0004590D  1881 0001:0004591D  1882 0001:00045963  1893 0001:00045B74
  1895 0001:00045B8F  1899 0001:00045B90  1900 0001:00045BA9  1904 0001:00045BAC
  1905 0001:00045BC5  1913 0001:00045BC8  1914 0001:00045BCB  1916 0001:00045BCD
  1917 0001:00045BE4  1918 0001:00045BF5  1919 0001:00045BFC  1941 0001:00045C20
  1942 0001:00045C26  1943 0001:00045C34  1944 0001:00045C3B  1945 0001:00045C57
  1948 0001:00045C60  1949 0001:00045C80  1950 0001:00045C8C  1952 0001:00045CA2
  1954 0001:00045CBE  1955 0001:00045CDC  1957 0001:00045CED  1959 0001:00045CFE
  1960 0001:00045D1C  1962 0001:00045D2D  1963 0001:00045D3E  1965 0001:00045D4F
  1969 0001:00045D8B  1970 0001:00045DA6  1971 0001:00045DB7  1972 0001:00045DCA
  1973 0001:00045DDB  1974 0001:00045DEC  1975 0001:00045DF5  1977 0001:00045E06
  1979 0001:00045E17  1981 0001:00045E53  1982 0001:00045E63  1983 0001:00045E6C
  1985 0001:00045E7D  1986 0001:00045E8E  1987 0001:00045E97  1989 0001:00045EA5
  1991 0001:00045EB3  1994 0001:00045EEC  1996 0001:00045F23  1997 0001:00045F2C
  2000 0001:00045F38  2003 0001:00046080  2004 0001:00046083  2005 0001:0004608D
  2007 0001:0004609D  2008 0001:000460B0  2014 0001:000460B4  2015 0001:000460BD
  2016 0001:000460C4  2017 0001:000460CF  2018 0001:000460DF  2024 0001:000460E8
  2025 0001:000460F1  2026 0001:000460F8  2027 0001:00046103  2028 0001:00046113
  2031 0001:0004611C  2032 0001:0004611F  2035 0001:00046134  2036 0001:00046139
  2038 0001:0004614E  2039 0001:00046153  2041 0001:00046168  2042 0001:00046186
  2047 0001:00046268  2048 0001:00046288  2049 0001:00046291  2050 0001:000462B0
  2051 0001:000462CF  2052 0001:000462EE  2053 0001:0004630D  2054 0001:0004632C
  2055 0001:0004634B  2056 0001:0004636A  2063 0001:00046460  2064 0001:0004646F
  2065 0001:0004647F  2067 0001:00046483  2068 0001:0004648F  2070 0001:00046496
  2071 0001:0004649B  2072 0001:0004649E  2073 0001:000464AA  2080 0001:000464B4
  2081 0001:000464B7  2082 0001:000464C3  2083 0001:000464D2  2084 0001:000464D6
  2087 0001:000464DA  2088 0001:000464E5  2090 0001:000464EA  2096 0001:00046524
  2097 0001:0004652A  2098 0001:00046534  2100 0001:00046543  2101 0001:00046545
  2104 0001:00046549  2106 0001:0004656C  2108 0001:00046580  2113 0001:00046584
  2114 0001:00046589  2115 0001:00046592  2117 0001:00046596  2118 0001:000465A1
  2120 0001:000465AB  2125 0001:000465B4  2126 0001:000465B7  2127 0001:000465CC
  2128 0001:000465CF  2129 0001:000465DF  2132 0001:000465E4  2133 0001:000465E7
  2134 0001:000465F3  2139 0001:000465F8  2140 0001:000465FE  2141 0001:00046600
  2144 0001:00046604  2146 0001:0004660D  2148 0001:00046618  2149 0001:00046623
  2152 0001:0004662C  2153 0001:0004662F  2155 0001:00046634  2156 0001:00046644
  2157 0001:00046648  2163 0001:0004664C  2164 0001:00046653  2170 0001:00046654
  2172 0001:0004665C  2174 0001:00046661  2175 0001:00046663  2177 0001:00046664
  2170 0001:00046665  2178 0001:00046668  2179 0001:0004666A  2182 0001:0004666C
  2183 0001:00046676  2199 0001:000466EC  2206 0001:000466F8  2207 0001:00046704
  2208 0001:00046706  2210 0001:0004670E  2211 0001:00046715  2213 0001:00046718
  2214 0001:0004671F  2216 0001:00046724  2217 0001:0004672D  2218 0001:0004673A
  2219 0001:0004673F  2221 0001:00046749  2224 0001:00046779  2226 0001:00046784
  2227 0001:0004678B  2229 0001:0004678C  2230 0001:00046791  2232 0001:0004679D
  2233 0001:000467A2  2234 0001:000467A9  2235 0001:000467AE  2237 0001:000467B6
  2240 0001:000467CC  2241 0001:000467D0  2243 0001:000467DB  2245 0001:000467F3
  2246 0001:000467FC  2249 0001:0004680C  2250 0001:00046810  2255 0001:00046835
  2256 0001:00046847  2257 0001:00046859  2263 0001:00046860  2264 0001:0004686C
  2266 0001:00046873  2267 0001:00046890  2270 0001:0004689C  2271 0001:000468C1
  2272 0001:000468FE  2273 0001:00046909  2278 0001:00046930  2279 0001:00046962
  2282 0001:00046966  2284 0001:00046971  2285 0001:000469C8  2280 0001:000469D5
  2287 0001:000469DD  2292 0001:00046A18  2293 0001:00046A1E  2294 0001:00046A32
  2295 0001:00046A34  2296 0001:00046A3B  2299 0001:00046A40  2300 0001:00046A62
  2301 0001:00046A89  2306 0001:00046AB0  2307 0001:00046AC9  2308 0001:00046ACB
  2309 0001:00046AD4  2308 0001:00046AF1  2310 0001:00046AF4  2322 0001:00046B04
  2323 0001:00046B36  2326 0001:00046B3A  2327 0001:00046B91  2324 0001:00046B9E
  2329 0001:00046BA6  2334 0001:00046BE4  2335 0001:00046BE7  2336 0001:00046BF2
  2337 0001:00046BF4  2338 0001:00046BFB  2341 0001:00046C00  2342 0001:00046C03
  2343 0001:00046C24  2348 0001:00046C38  2349 0001:00046C5D  2350 0001:00046C61
  2351 0001:00046C64  2353 0001:00046CB4  2355 0001:00046CBC  2357 0001:00046CCD
  2358 0001:00046CD3  2363 0001:00046CDA  2365 0001:00046CE6  2366 0001:00046CF9
  2367 0001:00046CFD  2368 0001:00046D05  2369 0001:00046D0B  2372 0001:00046D5B
  2373 0001:00046D6E  2374 0001:00046D72  2377 0001:00046D79  2380 0001:00046DA4
  2381 0001:00046DAA  2383 0001:00046DAF  2384 0001:00046DB6  2385 0001:00046DBE
  2386 0001:00046DC2  2387 0001:00046DCA  2389 0001:00046DCE  2395 0001:00046DD4
  2396 0001:00046DDE  2398 0001:00046DED  2400 0001:00046DF7  2401 0001:00046E06
  2402 0001:00046E14  2403 0001:00046E18  2404 0001:00046E28  2405 0001:00046E32
  2406 0001:00046E41  2409 0001:00046E5C  2410 0001:00046E65  2412 0001:00046E8C
  2414 0001:00046E9C  2421 0001:00046EA4  2422 0001:00046EAE  2424 0001:00046EBD
  2426 0001:00046EC8  2427 0001:00046ED7  2428 0001:00046EE1  2429 0001:00046EEF
  2431 0001:00046EF7  2432 0001:00046F0A  2433 0001:00046F18  2434 0001:00046F29
  2436 0001:00046F40  2440 0001:00046F5D  2442 0001:00046F70  2452 0001:00046F78
  2458 0001:00046FBD  2459 0001:00046FCA  2460 0001:00046FD7  2461 0001:00046FE4
  2462 0001:00046FF1  2463 0001:00046FFE  2464 0001:0004700B  2465 0001:00047018
  2466 0001:00047025  2467 0001:00047032  2468 0001:0004703F  2469 0001:0004704C
  2470 0001:00047059  2471 0001:00047066  2472 0001:00047073  2473 0001:00047080
  2474 0001:0004708D  2475 0001:0004709A  2476 0001:000470A7  2478 0001:000470B4
  2479 0001:000470C1  2480 0001:000470D9  2481 0001:000470FC  2482 0001:00047109
  2483 0001:0004711D  2484 0001:00047135  2486 0001:000471CC  2493 0001:0004734C
  2494 0001:0004734D  2496 0001:00047352  2497 0001:00047366  2501 0001:00047368
  2502 0001:0004737A  2503 0001:00047381  2508 0001:00047384  2510 0001:00047387
  2514 0001:00047396  2543 0001:00047398  2544 0001:0004739A  2545 0001:0004739D
  2549 0001:000473A0  2550 0001:000473A7  2552 0001:000473A8  2553 0001:000473D6
  2554 0001:000473DE  2555 0001:000473ED  2556 0001:000473FB  2557 0001:0004740E
  2558 0001:0004741C  2560 0001:0004742A  2564 0001:00047460  2567 0001:0004748C
  2569 0001:0004749E  2570 0001:000474B2  2572 0001:000474C9  2577 0001:0004756D
  2578 0001:00047575  2581 0001:00047608  2567 0001:00047609  2583 0001:0004761D
  2585 0001:0004762D  2590 0001:000476C0  2591 0001:000476E7  2592 0001:000476F4
  2593 0001:00047702  2594 0001:00047719  2600 0001:000477D0  2602 0001:000477E5
  2604 0001:00047844  2605 0001:00047868  2606 0001:0004786F  2607 0001:0004787D
  2609 0001:000478AF  2612 0001:000478CB  2613 0001:000478D2  2615 0001:000478E6
  2616 0001:000478F8  2618 0001:000478FB  2619 0001:0004790B  2623 0001:0004792D
  2624 0001:0004793A  2626 0001:00047942  2627 0001:00047950  2629 0001:00047972
  2630 0001:0004797A  2632 0001:000479DE  2634 0001:000479EC  2635 0001:000479F4
  2636 0001:00047A04  2638 0001:00047A0F  2639 0001:00047A42  2636 0001:00047A43
  2641 0001:00047A46  2648 0001:00047B59  2649 0001:00047B79  2651 0001:00047B93
  2653 0001:00047BA1  2654 0001:00047BAB  2655 0001:00047BB5  2658 0001:00047BBC
  2661 0001:00047BFE  2663 0001:00047C1E  2666 0001:00047C3A  2672 0001:00047C84
  2674 0001:00047C93  2679 0001:00047FC0  2680 0001:00047FE5  2681 0001:00047FEB
  2682 0001:00047FF7  2685 0001:0004804E  2687 0001:0004805C  2691 0001:0004806D
  2692 0001:0004807E  2695 0001:00048097  2699 0001:0004810C  2700 0001:00048113
  2701 0001:0004811D  2704 0001:00048120  2705 0001:0004814A  2706 0001:0004815E
  2709 0001:00048199  2713 0001:000481C0  2724 0001:0004821C  2725 0001:00048226
  2726 0001:00048228  2728 0001:00048236  2729 0001:0004823C  2730 0001:00048242
  2732 0001:00048250  2738 0001:00048258  2739 0001:00048268  2740 0001:0004826D
  2741 0001:0004827F  2743 0001:00048293  2744 0001:0004829A  2747 0001:000482A4
  2748 0001:000482BA  2749 0001:000482D6  2751 0001:00048314  2752 0001:00048319
  2753 0001:00048334  2755 0001:00048338  2756 0001:00048342  2759 0001:0004835A
  2760 0001:00048364  2761 0001:0004836C  2763 0001:00048376  2764 0001:00048380
  2768 0001:000483AE  2783 0001:000483B4  2784 0001:000483C0  2785 0001:000483CA
  2787 0001:000483DC  2788 0001:000483DF  2791 0001:000483E3  2792 0001:000483E5
  2794 0001:000483EC  2795 0001:000483EF  2796 0001:000483F2  2797 0001:000483F8
  2798 0001:00048405  2799 0001:00048409  2815 0001:0004840C  2816 0001:0004841C
  2817 0001:00048421  2818 0001:00048433  2820 0001:00048447  2821 0001:0004844E
  2826 0001:00048458  2827 0001:00048479  2828 0001:00048483  2830 0001:000484A3
  2831 0001:000484A7  2834 0001:000484AB  2835 0001:000484AD  2837 0001:000484E8
  2838 0001:000484EB  2839 0001:000484ED  2841 0001:000484F1  2842 0001:000484F4
  2843 0001:000484F9  2844 0001:00048506  2845 0001:0004850B  2892 0001:00048510
  2893 0001:0004851E  2894 0001:00048528  2896 0001:00048539  2898 0001:00048551
  2899 0001:0004855C  2900 0001:00048567  2901 0001:00048572  2904 0001:0004857D
  2905 0001:0004857F  2907 0001:00048588  2908 0001:00048590  2909 0001:00048593
  2910 0001:000485BD  2911 0001:000485CA  2912 0001:000485D4  2913 0001:000485ED
  2918 0001:000485F4  2919 0001:000485F5  2920 0001:000485FC  2921 0001:00048607
  2924 0001:0004860C  2925 0001:0004860F  2926 0001:0004861F  2933 0001:00048624
  2934 0001:0004862C  2935 0001:00048636  2936 0001:0004864A  2937 0001:0004864C
  2940 0001:00048654  2941 0001:0004865E  2942 0001:0004866E  2950 0001:00048670
  2951 0001:0004867A  2953 0001:00048682  2954 0001:00048690  2955 0001:00048697
  2956 0001:000486A5  2957 0001:000486B3  2958 0001:000486C1  2959 0001:000486CD
  2960 0001:000486DB  2961 0001:000486EC  2962 0001:000486F1  2964 0001:00048709
  2967 0001:00048727  2970 0001:00048745  2972 0001:00048752  2979 0001:00048758
  2981 0001:00048774  2983 0001:00048778  2984 0001:0004879D  2985 0001:000487AC
  2986 0001:000487B5  2987 0001:000487C4  2992 0001:000487F4  3009 0001:00048801
  3016 0001:0004882C  3017 0001:00048841  3018 0001:0004884A  3019 0001:00048858
  3022 0001:00048874  3023 0001:0004887F  3024 0001:0004888A  3025 0001:00048896
  3028 0001:000488A4  3029 0001:000488AF  3030 0001:000488B1  3031 0001:000488C6
  3032 0001:000488D7  3055 0001:000488E0  3057 0001:000488E5  3079 0001:000488E8
  3087 0001:000488F3  3088 0001:000488F5  3090 0001:00048907  3092 0001:0004890B
  3091 0001:0004890C  3093 0001:00048925  3095 0001:00048930  3096 0001:00048949
  3099 0001:00048957  3100 0001:00048961  3101 0001:0004896C  3105 0001:0004897F
  3106 0001:0004898A  3108 0001:0004899B  3113 0001:000489A4  3114 0001:000489A7
  3115 0001:000489B3  3123 0001:000489B8  3124 0001:000489BE  3125 0001:000489CA
  3126 0001:000489DB  3127 0001:000489E9  3129 0001:00048A05  3130 0001:00048A11
  3132 0001:00048A2B  3133 0001:00048A3A  3135 0001:00048A6B  3139 0001:00048A80
  3141 0001:00048A90  3150 0001:00048A98  3151 0001:00048AB4  3152 0001:00048AB8
  3153 0001:00048AC9  3154 0001:00048AD7  3156 0001:00048AFB  3157 0001:00048B07
  3159 0001:00048B29  3160 0001:00048B38  3162 0001:00048B5D  3165 0001:00048B7B
  3167 0001:00048B9A  3168 0001:00048BA8  3170 0001:00048BD0  3173 0001:00048BD6
  3176 0001:00048BE7  3180 0001:00048BF8  3185 0001:00048C09  3187 0001:00048C19
  3190 0001:00048C5C  3191 0001:00048C79  3192 0001:00048C82  3193 0001:00048CB5
  3194 0001:00048CD3  3195 0001:00048D08  3198 0001:00048D4C  3199 0001:00048D6B
  3200 0001:00048D78  3201 0001:00048DA7  3206 0001:00048DDC  3207 0001:00048DF6
  3208 0001:00048DFF  3209 0001:00048E04  3212 0001:00048E08  3213 0001:00048E12
  3210 0001:00048E13  3215 0001:00048E23  3216 0001:00048E4A  3231 0001:00048E7C
  3232 0001:00048EA6  3233 0001:00048EAD  3234 0001:00048EB4  3235 0001:00048EB9
  3236 0001:00048ECD  3238 0001:00048ED7  3239 0001:00048EE2  3240 0001:00048EF0
  3242 0001:00048F0F  3244 0001:00048F2D  3248 0001:00048F71  3249 0001:00048F76
  3250 0001:00048F9A  3252 0001:00048FAF  3254 0001:00048FCD  3255 0001:00048FD6
  3256 0001:00048FDD  3257 0001:00048FEA  3258 0001:00048FF5  3260 0001:0004904A
  3264 0001:0004906C  3267 0001:0004907F  3270 0001:00049124  3271 0001:0004912A
  3273 0001:00049131  3274 0001:0004915E  3275 0001:0004916D  3276 0001:0004917C
  3277 0001:0004918B  3278 0001:0004919A  3279 0001:000491A9  3281 0001:000491B5
  3284 0001:00049228  3285 0001:0004922E  3286 0001:00049241  3287 0001:0004924E
  3292 0001:00049260  3293 0001:00049278  3294 0001:0004928D  3300 0001:000492B4
  3301 0001:000492BE  3303 0001:000492C0  3304 0001:000492CE  3306 0001:000492D3
  3307 0001:000492D7  3309 0001:000492DD  3314 0001:000492E8  3315 0001:00049300
  3316 0001:00049311  3318 0001:00049316  3319 0001:00049319  3322 0001:00049320
  3323 0001:0004933E  3327 0001:00049364  3328 0001:00049368  3346 0001:0004936C
  3347 0001:00049374  3348 0001:00049381  3349 0001:0004938B  3350 0001:00049399
  3351 0001:000493A9  3353 0001:000493B1  3355 0001:000493C6  3356 0001:000493D0
  3357 0001:000493DE  3359 0001:000493F0  3360 0001:000493FB  3361 0001:00049409
  3362 0001:0004941F  3363 0001:0004942D  3365 0001:0004943C  3366 0001:00049447
  3362 0001:00049448  3368 0001:00049458  3372 0001:00049478  3376 0001:00049496
  3378 0001:000494A7  3388 0001:000494D0  3389 0001:000494DC  3390 0001:000494E9
  3391 0001:000494F3  3392 0001:00049501  3393 0001:00049511  3394 0001:00049521
  3395 0001:00049531  3398 0001:00049549  3399 0001:00049556  3400 0001:00049560
  3401 0001:0004956E  3402 0001:00049580  3403 0001:0004958A  3406 0001:0004959F
  3407 0001:000495AE  3408 0001:000495B9  3404 0001:000495CC  3411 0001:000495DD
  3415 0001:000495FB  3417 0001:0004960C  3419 0001:00049660  3420 0001:0004966A
  3422 0001:0004966E  3423 0001:00049685  3421 0001:0004968E  3425 0001:00049698
  3426 0001:0004969F  3427 0001:000496AD  3428 0001:000496B7  3430 0001:000496BE
  3431 0001:000496C3  3433 0001:000496DC  3435 0001:000496EB  3497 0001:000496F0
  3498 0001:000496F4  3518 0001:000496F8  3519 0001:00049704  3521 0001:0004970B
  3522 0001:0004970D  3524 0001:00049716  3526 0001:0004971A  3527 0001:0004971F
  3529 0001:00049737  3531 0001:0004974F  3533 0001:00049762  3534 0001:00049765
  3524 0001:00049767  3537 0001:0004976B  3542 0001:00049778  3543 0001:00049782
  3544 0001:00049784  3546 0001:0004978D  3547 0001:000497A0  3548 0001:000497A3
  3556 0001:000497AC  3557 0001:000497B5  3560 0001:000497DC  3562 0001:000497EB
  3563 0001:000497ED  3564 0001:000497FB  3566 0001:00049804  3567 0001:00049813
  3568 0001:0004981A  3571 0001:0004982F  3573 0001:00049847  3576 0001:00049858
  3577 0001:00049862  3579 0001:00049876  3569 0001:00049889  3581 0001:0004988D
  3583 0001:00049893  3626 0001:0004989C  3627 0001:000498B9  3629 0001:000498C9
  3630 0001:000498D3  3632 0001:000498E1  3633 0001:000498E9  3635 0001:000498F2
  3636 0001:000498FF  3637 0001:0004991B  3638 0001:0004992A  3640 0001:00049932
  3642 0001:00049942  3644 0001:00049958  3646 0001:00049965  3647 0001:00049977
  3650 0001:00049982  3654 0001:00049990  3655 0001:00049992  3656 0001:0004999E
  3657 0001:000499AE  3659 0001:000499B3  3661 0001:000499CC  3663 0001:000499DD
  3672 0001:00049A08  3674 0001:00049A0F  3676 0001:00049A1B  3678 0001:00049A27
  3680 0001:00049A33  3682 0001:00049A3F  3683 0001:00049A4B  3684 0001:00049A50
  3694 0001:00049A54  3695 0001:00049A7A  3697 0001:00049A83  3698 0001:00049A90
  3699 0001:00049A9A  3700 0001:00049AA8  3701 0001:00049ABF  3702 0001:00049AD0
  3703 0001:00049AE0  3706 0001:00049B02  3707 0001:00049B16  3708 0001:00049B20
  3709 0001:00049B2E  3710 0001:00049B40  3711 0001:00049B4A  3714 0001:00049B63
  3715 0001:00049B76  3717 0001:00049B84  3718 0001:00049B96  3720 0001:00049BA2
  3712 0001:00049BB8  3723 0001:00049BCB  3727 0001:00049BE9  3729 0001:00049BFA
  3766 0001:00049C6C  3767 0001:00049CB2  3769 0001:00049CC5  3771 0001:00049CCF
  3772 0001:00049CE6  3774 0001:00049D1B  3775 0001:00049D2D  3778 0001:00049D38
  3779 0001:00049D4F  3783 0001:00049D5D  3784 0001:00049D65  3785 0001:00049D73
  3786 0001:00049D78  3787 0001:00049D81  3789 0001:00049D88  3790 0001:00049D94
  3797 0001:00049DC8  3798 0001:00049DE8  3801 0001:00049E0F  3802 0001:00049E1E
  3803 0001:00049E28  3804 0001:00049E36  3805 0001:00049E40  3808 0001:00049E5B
  3809 0001:00049E76  3810 0001:00049EA2  3806 0001:00049EBB  3813 0001:00049ECC
  3815 0001:00049EDD  3822 0001:00049F04  3823 0001:00049F13  3825 0001:00049F1C
  3827 0001:00049F38  3829 0001:00049F4A  3830 0001:00049F58  3827 0001:00049F5B
  3832 0001:00049F5E  3834 0001:00049F64  3835 0001:00049F6B  3837 0001:00049F6F
  3839 0001:00049F79  3840 0001:00049F86  3841 0001:00049F92  3843 0001:00049FA0
  3844 0001:00049FB1  3845 0001:00049FC2  3848 0001:00049FD3  3849 0001:00049FE1
  3850 0001:00049FEF  3851 0001:00049FFD  3852 0001:0004A00B  3854 0001:0004A019
  3855 0001:0004A02B  3857 0001:0004A032  3858 0001:0004A041  3861 0001:0004A05B
  3863 0001:0004A072  3875 0001:0004A130  3876 0001:0004A13C  3878 0001:0004A141
  3879 0001:0004A14D  3881 0001:0004A155  3882 0001:0004A162  3883 0001:0004A170
  3885 0001:0004A17D  3888 0001:0004A197  3889 0001:0004A1A0  3890 0001:0004A1AA
  3891 0001:0004A1B8  3892 0001:0004A1BF  3893 0001:0004A1C9  3896 0001:0004A1DF
  3898 0001:0004A1E7  3899 0001:0004A1F0  3901 0001:0004A1F7  3894 0001:0004A20A
  3904 0001:0004A21B  3907 0001:0004A22C  3922 0001:0004A284  3926 0001:0004A291
  3937 0001:0004A294  3938 0001:0004A29D  3949 0001:0004A2A0  3951 0001:0004A2A8
  3957 0001:0004A2AC  3958 0001:0004A2CC  3967 0001:0004A2E0  3968 0001:0004A2E4
  3970 0001:0004A315  3972 0001:0004A319  3973 0001:0004A325  3974 0001:0004A32A
  3976 0001:0004A334  3978 0001:0004A354  3979 0001:0004A36E  3980 0001:0004A370
  3983 0001:0004A3BA  3985 0001:0004A3E5  3986 0001:0004A3F4  3987 0001:0004A3FD
  3988 0001:0004A42F  3991 0001:0004A43B  3997 0001:0004A4AC  4000 0001:0004A4D3
  4006 0001:0004A4E8  4007 0001:0004A4F2  4013 0001:0004A4F4  4014 0001:0004A51D
  4020 0001:0004A520  4021 0001:0004A537  4039 0001:0004A538  4040 0001:0004A56E
  4041 0001:0004A572  4047 0001:0004A601  4049 0001:0004A60E  4051 0001:0004A61B
  4052 0001:0004A622  4053 0001:0004A630  4054 0001:0004A63C  4056 0001:0004A67D
  4057 0001:0004A68C  4059 0001:0004A6B7  4064 0001:0004A6C6  4065 0001:0004A6CA
  4069 0001:0004A6DB  4071 0001:0004A6E4  4073 0001:0004A706  4074 0001:0004A70C
  4077 0001:0004A72E  4081 0001:0004A73F  4083 0001:0004A74C  4084 0001:0004A75A
  4085 0001:0004A768  4088 0001:0004A781  4089 0001:0004A79B  4090 0001:0004A7A9
  4091 0001:0004A7C2  4093 0001:0004A7E8  4096 0001:0004A807  4097 0001:0004A80B
  4100 0001:0004A81C  4109 0001:0004A954  4110 0001:0004A979  4111 0001:0004A981
  4112 0001:0004A9A5  4115 0001:0004A9BB  4116 0001:0004A9CC  4117 0001:0004A9DA
  4119 0001:0004A9F8  4124 0001:0004AA08  4125 0001:0004AA2F  4127 0001:0004AA33
  4128 0001:0004AA42  4132 0001:0004AA51  4133 0001:0004AA6B  4134 0001:0004AA83
  4135 0001:0004AA8B  4138 0001:0004AAC5  4141 0001:0004AB04  4142 0001:0004AB29
  4145 0001:0004ABE4  4146 0001:0004ABFF  4147 0001:0004AC03  4149 0001:0004AC26
  4150 0001:0004AC3A  4164 0001:0004AD08  4165 0001:0004AD0B  4166 0001:0004AD18
  4167 0001:0004AD27  4173 0001:0004AD2C  4174 0001:0004AD4D  4175 0001:0004AD57
  4176 0001:0004AD75  4178 0001:0004AD79  4179 0001:0004AD9A  4180 0001:0004AD9F
  4182 0001:0004ADA3  4183 0001:0004ADCF  4186 0001:0004ADD5  4188 0001:0004ADFC
  4189 0001:0004AE1D  4190 0001:0004AE21  4192 0001:0004AE3B  4193 0001:0004AE49
  4195 0001:0004AE63  4197 0001:0004AE81  4198 0001:0004AEAA  4200 0001:0004AEB7
  4202 0001:0004AEE7  4204 0001:0004AEEF  4205 0001:0004AF2A  4206 0001:0004AF4A
  4208 0001:0004AF4E  4210 0001:0004AF54  4211 0001:0004AF6F  4213 0001:0004AF8D
  4215 0001:0004AF93  4216 0001:0004AF9E  4219 0001:0004AFBC  4220 0001:0004AFC2
  4221 0001:0004AFE2  4223 0001:0004AFEA  4224 0001:0004AFF8  4227 0001:0004B01E
  4229 0001:0004B02F  4230 0001:0004B035  4232 0001:0004B06C  4234 0001:0004B07F
  4238 0001:0004B092  4240 0001:0004B09E  4244 0001:0004B224  4245 0001:0004B227
  4246 0001:0004B235  4247 0001:0004B249  4250 0001:0004B24C  4251 0001:0004B24F
  4252 0001:0004B26A  4257 0001:0004B26C  4258 0001:0004B270  4259 0001:0004B272
  4261 0001:0004B296  4266 0001:0004B29C  4270 0001:0004B2A6  4274 0001:0004B2A8
  4275 0001:0004B2BB  4280 0001:0004B2BC  4281 0001:0004B2C0  4282 0001:0004B2C2
  4283 0001:0004B2C3  4285 0001:0004B2D3  4286 0001:0004B2DF  4287 0001:0004B2E7
  4289 0001:0004B2EB  4290 0001:0004B2F3  4292 0001:0004B2F7  4293 0001:0004B2FF
  4295 0001:0004B301  4303 0001:0004B308  4304 0001:0004B314  4306 0001:0004B316
  4308 0001:0004B31C  4309 0001:0004B31F  4312 0001:0004B321  4314 0001:0004B32A
  4316 0001:0004B34A  4318 0001:0004B350  4322 0001:0004B354  4323 0001:0004B356
  4324 0001:0004B35A  4326 0001:0004B35D  4327 0001:0004B360  4329 0001:0004B367
  4330 0001:0004B36A  4332 0001:0004B36B  4334 0001:0004B378  4335 0001:0004B38F
  4336 0001:0004B3A6  4343 0001:0004B3B0  4344 0001:0004B3B8  4345 0001:0004B3BD
  4346 0001:0004B3C7  4348 0001:0004B3CB  4349 0001:0004B3D7  4350 0001:0004B3DE
  4352 0001:0004B3EB  4360 0001:0004B3F8  4361 0001:0004B42D  4362 0001:0004B431
  4363 0001:0004B441  4365 0001:0004B449  4367 0001:0004B44F  4368 0001:0004B453
  4371 0001:0004B457  4372 0001:0004B462  4374 0001:0004B471  4376 0001:0004B47D
  4378 0001:0004B483  4380 0001:0004B492  4381 0001:0004B49A  4383 0001:0004B4A7
  4386 0001:0004B4B7  4387 0001:0004B4F0  4388 0001:0004B4F6  4393 0001:0004B547
  4394 0001:0004B551  4395 0001:0004B554  4393 0001:0004B555  4396 0001:0004B558
  4422 0001:0004B59C  4423 0001:0004B5AF  4425 0001:0004B5D4  4427 0001:0004B5DE
  4428 0001:0004B5E3  4429 0001:0004B5E8  4430 0001:0004B5FB  4431 0001:0004B610
  4432 0001:0004B625  4433 0001:0004B630  4435 0001:0004B63C  4437 0001:0004B690
  4438 0001:0004B699  4440 0001:0004B6AA  4441 0001:0004B6AC  4442 0001:0004B6BA
  4444 0001:0004B6C4  4446 0001:0004B6F4  4447 0001:0004B734  4448 0001:0004B73B
  4452 0001:0004B748  4455 0001:0004B75A  4456 0001:0004B75D  4458 0001:0004B768
  4461 0001:0004B772  4464 0001:0004B78A  4465 0001:0004B79C  4469 0001:0004B7BF
  4470 0001:0004B7D1  4473 0001:0004B7DE  4474 0001:0004B7E6  4475 0001:0004B7EE
  4476 0001:0004B7F6  4477 0001:0004B7FE  4478 0001:0004B80D  4479 0001:0004B813
  4480 0001:0004B82A  4481 0001:0004B855  4482 0001:0004B88C  4483 0001:0004B89E
  4484 0001:0004B8B0  4485 0001:0004B8C2  4486 0001:0004B8D4  4487 0001:0004B8E1
  4488 0001:0004B8ED  4489 0001:0004B8F9  4490 0001:0004B900  4491 0001:0004B907
  4492 0001:0004B90E  4493 0001:0004B915  4494 0001:0004B91C  4495 0001:0004B923
  4499 0001:0004B95C  4500 0001:0004B969  4502 0001:0004B972  4503 0001:0004B97E
  4505 0001:0004B98A  4507 0001:0004B99C  4509 0001:0004B9A5  4510 0001:0004B9B4
  4511 0001:0004B9BB  4512 0001:0004B9CD  4517 0001:0004B9E5  4519 0001:0004B9EE
  4520 0001:0004B9FE  4521 0001:0004BA05  4522 0001:0004BA17  4526 0001:0004BA2F
  4527 0001:0004BA3D  4529 0001:0004BA46  4530 0001:0004BA5C  4531 0001:0004BA6E
  4532 0001:0004BA7F  4533 0001:0004BA91  4537 0001:0004BAAB  4538 0001:0004BAC1
  4539 0001:0004BAD3  4540 0001:0004BADA  4542 0001:0004BAF2  4543 0001:0004BB05
  4544 0001:0004BB14  4545 0001:0004BB2A  4549 0001:0004BB32  4550 0001:0004BB44
  4551 0001:0004BB4B  4552 0001:0004BB5D  4557 0001:0004BB6B  4558 0001:0004BB7E
  4559 0001:0004BB90  4561 0001:0004BB9D  4562 0001:0004BBA9  4563 0001:0004BBBC
  4564 0001:0004BBCB  4566 0001:0004BBD4  4567 0001:0004BBFB  4569 0001:0004BC04
  4570 0001:0004BC22  4572 0001:0004BC42  4576 0001:0004BC4B  4577 0001:0004BC5C
  4579 0001:0004BC78  4580 0001:0004BC8A  4581 0001:0004BC91  4582 0001:0004BCAB
  4583 0001:0004BCB4  4585 0001:0004BCC5  4587 0001:0004BCF6  4588 0001:0004BD07
  4589 0001:0004BD18  4590 0001:0004BD24  4591 0001:0004BD30  4593 0001:0004BD68
  4594 0001:0004BD8E  4598 0001:0004BDC7  4599 0001:0004BDD7  4471 0001:0004BDDD
  4601 0001:0004BDF9  4604 0001:0004BE13  4606 0001:0004BE44  4607 0001:0004BE4D
  4608 0001:0004BE57  4609 0001:0004BE64  4610 0001:0004BE71  4611 0001:0004BE7F
  4612 0001:0004BE8D  4616 0001:0004BE94  4628 0001:0004BEE8  4629 0001:0004BEF3
  4630 0001:0004BEF8  4631 0001:0004BF10  4633 0001:0004BF18  4634 0001:0004BF29
  4636 0001:0004BF37  4638 0001:0004BF47  4641 0001:0004BF57  4643 0001:0004BF67
  4646 0001:0004BF6F  4648 0001:0004BF7F  4650 0001:0004BF8F  4653 0001:0004BF9F
  4654 0001:0004BFAF  4655 0001:0004BFBC  4658 0001:0004BFC2  4659 0001:0004BFD2
  4660 0001:0004BFE2  4656 0001:0004BFF2  4662 0001:0004C017  4663 0001:0004C01C
  4667 0001:0004C039  4670 0001:0004C049  4712 0001:0004C05C  4713 0001:0004C07F
  4714 0001:0004C08E  4715 0001:0004C093  4718 0001:0004C097  4717 0001:0004C098
  4719 0001:0004C0AC  4720 0001:0004C0C8  4721 0001:0004C0C9  4722 0001:0004C0CB
  4723 0001:0004C0D6  4726 0001:0004C0EB  4727 0001:0004C11B  4728 0001:0004C128
  4729 0001:0004C150  4730 0001:0004C159  4734 0001:0004C165  4735 0001:0004C195
  4736 0001:0004C1BD  4737 0001:0004C1E5  4738 0001:0004C1EE  4741 0001:0004C1F5
  4742 0001:0004C1FD  4744 0001:0004C238  4745 0001:0004C25B  4746 0001:0004C25F
  4748 0001:0004C269  4750 0001:0004C275  4752 0001:0004C295  4753 0001:0004C2A4
  4755 0001:0004C2AC  4756 0001:0004C2C0  4757 0001:0004C2DE  4758 0001:0004C2F7
  4760 0001:0004C301  4761 0001:0004C313  4762 0001:0004C322  4763 0001:0004C332
  4766 0001:0004C339  4768 0001:0004C343  4769 0001:0004C350  4771 0001:0004C351
  4764 0001:0004C352  4773 0001:0004C35E  4779 0001:0004C367  4781 0001:0004C378
  4782 0001:0004C387  4783 0001:0004C38B  4784 0001:0004C39F  4788 0001:0004C3A8
  4790 0001:0004C3B0  4791 0001:0004C3B7  4792 0001:0004C3C1  4793 0001:0004C3D6
  4794 0001:0004C3DC  4798 0001:0004C3E0  4800 0001:0004C3F8  4801 0001:0004C402
  4816 0001:0004C458  4817 0001:0004C45E  4818 0001:0004C471  4819 0001:0004C473
  4821 0001:0004C478  4822 0001:0004C489  4823 0001:0004C48D  4824 0001:0004C48F
  4825 0001:0004C499  4827 0001:0004C4A2  4828 0001:0004C4A9  4831 0001:0004C4F2
  4832 0001:0004C4F9  4833 0001:0004C50C  4836 0001:0004C517  4837 0001:0004C51B
  4825 0001:0004C525  4840 0001:0004C52E  4841 0001:0004C533  4847 0001:0004C540
  4848 0001:0004C580  4849 0001:0004C584  4854 0001:0004C5B9  4855 0001:0004C5BC
  4856 0001:0004C5C2  4857 0001:0004C5C8  4859 0001:0004C5E5  4860 0001:0004C600
  4861 0001:0004C60B  4862 0001:0004C613  4863 0001:0004C61B  4864 0001:0004C62E
  4866 0001:0004C637  4867 0001:0004C64F  4868 0001:0004C667  4869 0001:0004C67A
  4871 0001:0004C683  4872 0001:0004C69B  4875 0001:0004C6B3  4877 0001:0004C6C5
  4878 0001:0004C6D8  4881 0001:0004C6F0  4883 0001:0004C6FC  4885 0001:0004C723
  4886 0001:0004C72A  4890 0001:0004C73F  4891 0001:0004C752  4896 0001:0004C767
  4897 0001:0004C76E  4899 0001:0004C781  4900 0001:0004C793  4901 0001:0004C79A
  4902 0001:0004C7A3  4903 0001:0004C7AC  4905 0001:0004C7BA  4907 0001:0004C7C5
  4909 0001:0004C7D3  4910 0001:0004C7DE  4911 0001:0004C7E1  4912 0001:0004C7E5
  4914 0001:0004C838  4915 0001:0004C845  4916 0001:0004C853  4917 0001:0004C85D
  4918 0001:0004C864  4919 0001:0004C86B  4920 0001:0004C86F  4921 0001:0004C872
  4924 0001:0004C88E  4925 0001:0004C891  4926 0001:0004C894  4927 0001:0004C89C
  4929 0001:0004C8A2  4930 0001:0004C8A5  4932 0001:0004C8B1  4933 0001:0004C8C1
  4937 0001:0004C8D8  4942 0001:0004C8E0  4943 0001:0004C8F7  4946 0001:0004C929
  4947 0001:0004C933  4950 0001:0004C93A  4952 0001:0004C943  4953 0001:0004C96A
  4955 0001:0004C983  4959 0001:0004C9AC  4961 0001:0004C9B5  4962 0001:0004C9BF
  4964 0001:0004C9C6  4970 0001:0004C9C8  4974 0001:0004C9E8  4976 0001:0004C9F5
  4978 0001:0004CA07  4979 0001:0004CA0C  4980 0001:0004CA1A  4981 0001:0004CA41
  4983 0001:0004CA4B  4985 0001:0004CA58  4986 0001:0004CA83  4987 0001:0004CA9B
  4990 0001:0004CAB2  4994 0001:0004CABF  4999 0001:0004CAC6  5005 0001:0004CB1C
  5006 0001:0004CB40  5007 0001:0004CB49  5008 0001:0004CB57  5010 0001:0004CB8F
  5011 0001:0004CB9D  5013 0001:0004CBF2  5016 0001:0004CC48  5017 0001:0004CC5E
  5018 0001:0004CC6C  5020 0001:0004CC85  5021 0001:0004CC8C  5024 0001:0004CCC8
  5025 0001:0004CCCB  5026 0001:0004CCDD  5027 0001:0004CCE4  5030 0001:0004CCE8
  5031 0001:0004CD02  5032 0001:0004CD3E  5035 0001:0004CD68  5036 0001:0004CD7E
  5037 0001:0004CD95  5042 0001:0004CDD0  5043 0001:0004CDEA  5045 0001:0004CE38
  5050 0001:0004CE70  5051 0001:0004CE86  5052 0001:0004CE94  5054 0001:0004CEAD
  5055 0001:0004CEB4  5058 0001:0004CEF4  5059 0001:0004CEF7  5060 0001:0004CF09
  5061 0001:0004CF10  5064 0001:0004CF14  5065 0001:0004CF2F  5066 0001:0004CF3D
  5068 0001:0004CF8B  5069 0001:0004CF92  5074 0001:0004CFCC  5075 0001:0004CFE8
  5077 0001:0004CFF6  5078 0001:0004D005  5079 0001:0004D013  5080 0001:0004D01D
  5081 0001:0004D02B  5084 0001:0004D04D  5086 0001:0004D05F  5088 0001:0004D06F
  5093 0001:0004D098  5094 0001:0004D0B0  5096 0001:0004D0C2  5099 0001:0004D0EE
  5100 0001:0004D101  5102 0001:0004D114  5103 0001:0004D122  5104 0001:0004D133
  5106 0001:0004D153  5108 0001:0004D163  5113 0001:0004D18C  5114 0001:0004D197
  5115 0001:0004D19E  5117 0001:0004D1AD  5118 0001:0004D1BC  5119 0001:0004D1CA
  5120 0001:0004D1D8  5121 0001:0004D1E2  5124 0001:0004D1FB  5126 0001:0004D20D
  5128 0001:0004D21D  5131 0001:0004D224  5132 0001:0004D245  5133 0001:0004D24C
  5134 0001:0004D267  5135 0001:0004D287  5136 0001:0004D299  5137 0001:0004D2B9
  5138 0001:0004D2D9  5139 0001:0004D2F9  5160 0001:0004D344  5161 0001:0004D349
  5169 0001:0004D34C  5170 0001:0004D352  5172 0001:0004D354  5173 0001:0004D358
  5175 0001:0004D366  5176 0001:0004D368  5178 0001:0004D374  5179 0001:0004D37D
  5181 0001:0004D388  5182 0001:0004D398  5187 0001:0004D3A0  5188 0001:0004D3A2
  5189 0001:0004D3B2  5190 0001:0004D3C2  5195 0001:0004D3F0  5196 0001:0004D3F2
  5197 0001:0004D3FB  5198 0001:0004D409  5199 0001:0004D41C  5197 0001:0004D43B
  5200 0001:0004D440  5201 0001:0004D449  5202 0001:0004D459  5206 0001:0004D45C
  5207 0001:0004D461  5208 0001:0004D466  5225 0001:0004D468  5226 0001:0004D46A
  5227 0001:0004D47A  5228 0001:0004D48A  5233 0001:0004D4C0  5234 0001:0004D4C2
  5235 0001:0004D4CB  5236 0001:0004D4D9  5237 0001:0004D4EC  5235 0001:0004D50B
  5238 0001:0004D510  5239 0001:0004D519  5240 0001:0004D529  5244 0001:0004D52C
  5245 0001:0004D531  5246 0001:0004D536  5254 0001:0004D538  5255 0001:0004D570
  5256 0001:0004D580  5257 0001:0004D58E  5263 0001:0004D5E8  5264 0001:0004D620
  5265 0001:0004D629  5266 0001:0004D637  5267 0001:0004D64A  5268 0001:0004D667
  5265 0001:0004D668  5269 0001:0004D66D  5270 0001:0004D676  5271 0001:0004D684
  5279 0001:0004D6B0  5280 0001:0004D6E8  5281 0001:0004D6F8  5282 0001:0004D706
  5288 0001:0004D75C  5289 0001:0004D794  5290 0001:0004D79D  5291 0001:0004D7AB
  5292 0001:0004D7BE  5293 0001:0004D7DB  5290 0001:0004D7DC  5294 0001:0004D7E1
  5295 0001:0004D7EA  5296 0001:0004D7F8  5301 0001:0004D824  5302 0001:0004D826
  5303 0001:0004D82F  5304 0001:0004D83D  5305 0001:0004D850  5303 0001:0004D86F
  5306 0001:0004D874  5307 0001:0004D88D  5313 0001:0004D890  5314 0001:0004D892
  5315 0001:0004D8A2  5316 0001:0004D8B3  5321 0001:0004D8E4  5322 0001:0004D8E6
  5323 0001:0004D8EF  5324 0001:0004D8FD  5325 0001:0004D910  5323 0001:0004D930
  5326 0001:0004D935  5327 0001:0004D93E  5328 0001:0004D94F  5332 0001:0004D954
  5333 0001:0004D959  5334 0001:0004D95E  5340 0001:0004D960  5341 0001:0004D962
  5342 0001:0004D972  5343 0001:0004D983  5348 0001:0004D9B4  5349 0001:0004D9B6
  5350 0001:0004D9BF  5351 0001:0004D9CD  5352 0001:0004D9E0  5350 0001:0004DA00
  5353 0001:0004DA05  5354 0001:0004DA0E  5355 0001:0004DA1F  5359 0001:0004DA24
  5360 0001:0004DA29  5361 0001:0004DA2E  5366 0001:0004DA30  5367 0001:0004DA32
  5368 0001:0004DA42  5369 0001:0004DA53  5374 0001:0004DA88  5375 0001:0004DA8A
  5376 0001:0004DA93  5377 0001:0004DAA1  5378 0001:0004DAB4  5379 0001:0004DAD3
  5376 0001:0004DAD4  5380 0001:0004DAD9  5381 0001:0004DAE2  5382 0001:0004DAF3
  5386 0001:0004DAF8  5387 0001:0004DAFD  5388 0001:0004DB02  5394 0001:0004DB04
  5395 0001:0004DB06  5396 0001:0004DB16  5397 0001:0004DB26  5402 0001:0004DB58
  5403 0001:0004DB5A  5404 0001:0004DB63  5405 0001:0004DB71  5406 0001:0004DB84
  5407 0001:0004DBA2  5404 0001:0004DBA3  5408 0001:0004DBA8  5409 0001:0004DBB1
  5410 0001:0004DBC1  5414 0001:0004DBC4  5415 0001:0004DBC9  5416 0001:0004DBCE
  5425 0001:0004DBD0  5426 0001:0004DBD8  5427 0001:0004DBEB  5429 0001:0004DBEF
  5430 0001:0004DC01  5431 0001:0004DC0F  5435 0001:0004DC1D  5436 0001:0004DC30
  5438 0001:0004DC34  5439 0001:0004DC46  5440 0001:0004DC4F  5443 0001:0004DC5B
  5455 0001:0004DCB8  5456 0001:0004DCEB  5457 0001:0004DCEE  5459 0001:0004DCF0
  5460 0001:0004DCF3  5463 0001:0004DD12  5464 0001:0004DD14  5467 0001:0004DD16
  5468 0001:0004DD19  5470 0001:0004DD29  5472 0001:0004DD3E  5474 0001:0004DD56
  5475 0001:0004DD5D  5477 0001:0004DD60  5479 0001:0004DD8C  5480 0001:0004DDC2
  5481 0001:0004DDD4  5483 0001:0004DDE4  5484 0001:0004DDEC  5486 0001:0004DDFA
  5488 0001:0004DE06  5489 0001:0004DE0C  5490 0001:0004DE11  5491 0001:0004DE15
  5493 0001:0004DE1D  5495 0001:0004DE24  5496 0001:0004DE29  5499 0001:0004DE54
  5500 0001:0004DE65  5502 0001:0004DE6E  5503 0001:0004DE78  5505 0001:0004DE7F
  5506 0001:0004DE8D  5507 0001:0004DE97  5508 0001:0004DEAC  5515 0001:0004DEC4
  5516 0001:0004DEE6  5517 0001:0004DEEE  5519 0001:0004DF00  5520 0001:0004DF0D
  5521 0001:0004DF15  5522 0001:0004DF20  5517 0001:0004DF21  5523 0001:0004DF24
  5526 0001:0004DF48  5527 0001:0004DF54  5529 0001:0004DF60  5531 0001:0004DF65
  5532 0001:0004DF82  5536 0001:0004DF8C  5537 0001:0004DFC6  5538 0001:0004DFCE
  5539 0001:0004DFDC  5540 0001:0004DFE8  5541 0001:0004DFED  5543 0001:0004E01F
  5545 0001:0004E02F  5549 0001:0004E05C  5550 0001:0004E08F  5551 0001:0004E097
  5552 0001:0004E0A5  5553 0001:0004E0AD  5554 0001:0004E0B2  5556 0001:0004E0C8
  5558 0001:0004E0D8  5562 0001:0004E104  5563 0001:0004E137  5564 0001:0004E13F
  5565 0001:0004E14D  5566 0001:0004E155  5567 0001:0004E15A  5569 0001:0004E170
  5571 0001:0004E180  5575 0001:0004E1AC  5576 0001:0004E1E3  5577 0001:0004E1EB
  5578 0001:0004E1F9  5580 0001:0004E214  5582 0001:0004E224  5586 0001:0004E250
  5587 0001:0004E287  5588 0001:0004E28F  5589 0001:0004E29D  5591 0001:0004E2B8
  5593 0001:0004E2C8  5597 0001:0004E2F4  5598 0001:0004E327  5599 0001:0004E32F
  5600 0001:0004E33D  5601 0001:0004E34A  5603 0001:0004E35C  5605 0001:0004E36C
  5609 0001:0004E398  5610 0001:0004E3CB  5611 0001:0004E3D3  5612 0001:0004E3E1
  5613 0001:0004E3EE  5615 0001:0004E400  5617 0001:0004E410  5621 0001:0004E43C
  5622 0001:0004E46F  5623 0001:0004E477  5624 0001:0004E485  5625 0001:0004E492
  5627 0001:0004E4A4  5629 0001:0004E4B4  5633 0001:0004E4E0  5634 0001:0004E513
  5635 0001:0004E51B  5636 0001:0004E529  5637 0001:0004E531  5638 0001:0004E536
  5640 0001:0004E54C  5642 0001:0004E55C  5655 0001:0004E588  5656 0001:0004E592
  5658 0001:0004E594  5659 0001:0004E59C  5661 0001:0004E5A9  5667 0001:0004E5C2
  5673 0001:0004E5C8  5674 0001:0004E5CF  5678 0001:0004E5DA  5679 0001:0004E5E8
  5680 0001:0004E5F2  5681 0001:0004E600  5683 0001:0004E60F  5687 0001:0004E62D
  5689 0001:0004E632  5690 0001:0004E639  5691 0001:0004E643  5700 0001:0004E648
  5701 0001:0004E64D  5702 0001:0004E656  5703 0001:0004E65C  5707 0001:0004E660
  5708 0001:0004E665  5715 0001:0004E668  5716 0001:0004E687  5717 0001:0004E689
  5718 0001:0004E692  5719 0001:0004E696  5720 0001:0004E6C0  5726 0001:0004E700
  5727 0001:0004E710  5730 0001:0004E712  5732 0001:0004E720  5733 0001:0004E731
  5734 0001:0004E737  5737 0001:0004E74A  5739 0001:0004E750  5740 0001:0004E754
  5743 0001:0004E764  5744 0001:0004E766  5748 0001:0004E774  5749 0001:0004E780
  5751 0001:0004E794  5767 0001:0004E79C  5768 0001:0004E7A3  5772 0001:0004E7A4
  5773 0001:0004E7AA  5779 0001:0004E7AC  5780 0001:0004E7B1  5781 0001:0004E7B6
  5782 0001:0004E7C3  5788 0001:0004E7C4  5789 0001:0004E7C9  5790 0001:0004E7CE
  5791 0001:0004E7DB  5798 0001:0004E7DC  5799 0001:0004E7E6  5801 0001:0004E7E8
  5802 0001:0004E7F0  5803 0001:0004E7F2  5804 0001:0004E7F6  5806 0001:0004E806
  5807 0001:0004E814  5808 0001:0004E822  5810 0001:0004E836  5812 0001:0004E840
  5813 0001:0004E852  5815 0001:0004E856  5817 0001:0004E86C  5819 0001:0004E873
  5822 0001:0004E890  5824 0001:0004E895  5826 0001:0004E8AF  5827 0001:0004E8B5
  5828 0001:0004E8B9  5830 0001:0004E8BE  5833 0001:0004E8C8  5834 0001:0004E8CD
  5837 0001:0004E8D6  5839 0001:0004E8E0  5840 0001:0004E8E6  5842 0001:0004E8FD
  5843 0001:0004E903  5844 0001:0004E907  5846 0001:0004E90C  5848 0001:0004E92A
  5849 0001:0004E930  5850 0001:0004E939  5851 0001:0004E93D  5856 0001:0004E942
  5858 0001:0004E947  5859 0001:0004E950  5862 0001:0004E962  5864 0001:0004E980
  5865 0001:0004E986  5866 0001:0004E98F  5867 0001:0004E993  5870 0001:0004E996
  5831 0001:0004E998  5872 0001:0004E9B7  5876 0001:0004E9DE  5879 0001:0004E9FC
  5881 0001:0004EA00  5885 0001:0004EA07  5887 0001:0004EA14  5889 0001:0004EA1E
  5892 0001:0004EA32  5893 0001:0004EA36  5896 0001:0004EA3C  5898 0001:0004EA45
  5899 0001:0004EA68  5901 0001:0004EA6F  5905 0001:0004EA7C  5906 0001:0004EA82
  5938 0001:0004EA84  5939 0001:0004EA95  5941 0001:0004EA97  5942 0001:0004EAA6
  5944 0001:0004EAB6  5945 0001:0004EAC5  5947 0001:0004EAD7  5948 0001:0004EAE6
  5950 0001:0004EAE9  5951 0001:0004EAF3  5953 0001:0004EAFD  5956 0001:0004EAFF
  5970 0001:0004EB08  5971 0001:0004EB0A  5974 0001:0004EB0E  5975 0001:0004EB24
  5976 0001:0004EB27  5978 0001:0004EB2C  5979 0001:0004EB3E  5980 0001:0004EB42
  5982 0001:0004EB47  5983 0001:0004EB51  5984 0001:0004EB66  5986 0001:0004EB7E
  5987 0001:0004EB90  5988 0001:0004EB9E  5989 0001:0004EBAA  5991 0001:0004EBBA
  5993 0001:0004EBC9  5994 0001:0004EBE1  5996 0001:0004EBF1  5997 0001:0004EC09
  5998 0001:0004EC19  5999 0001:0004EC31  6002 0001:0004EC3C  6004 0001:0004EC3E
  6005 0001:0004EC57  6006 0001:0004EC67  6007 0001:0004EC68  6013 0001:0004EC80
  6015 0001:0004EC8C  6016 0001:0004EC9A  6017 0001:0004ECAD  6021 0001:0004ECBA
  6022 0001:0004ECC0  6023 0001:0004ECCA  6026 0001:0004ECCC  6028 0001:0004ECDB
  6030 0001:0004ECF2  6031 0001:0004ED02  6032 0001:0004ED10  6033 0001:0004ED23
  6034 0001:0004ED35  6035 0001:0004ED47  6037 0001:0004ED4E  6039 0001:0004ED63
  6040 0001:0004ED73  6042 0001:0004ED8C  6043 0001:0004ED9C  6045 0001:0004EDA2
  6046 0001:0004EDB2  6047 0001:0004EDC5  6048 0001:0004EDD0  6050 0001:0004EDD6
  6051 0001:0004EDDB  6053 0001:0004EDE2  6055 0001:0004EDE9  6056 0001:0004EDF3
  6057 0001:0004EDF7  6026 0001:0004EDF8  6058 0001:0004EE01  6062 0001:0004EE1B
  6064 0001:0004EE2B  6072 0001:0004EE38  6073 0001:0004EE54  6074 0001:0004EE58
  6075 0001:0004EE62  6077 0001:0004EE85  6078 0001:0004EE8F  6079 0001:0004EE9D
  6080 0001:0004EEAF  6082 0001:0004EEBD  6084 0001:0004EED4  6085 0001:0004EEE4
  6087 0001:0004EEFC  6090 0001:0004EF19  6092 0001:0004EF2A  6099 0001:0004EF50
  6100 0001:0004EF57  6101 0001:0004EF6A  6102 0001:0004EF70  6104 0001:0004EF76
  6105 0001:0004EF87  6106 0001:0004EF95  6107 0001:0004EFA5  6109 0001:0004EFBD
  6112 0001:0004EFCD  6115 0001:0004EFE0  6116 0001:0004EFE3  6118 0001:0004EFFF
  6121 0001:0004F004  6122 0001:0004F007  6125 0001:0004F035  6136 0001:0004F038
  6137 0001:0004F054  6139 0001:0004F05A  6141 0001:0004F065  6142 0001:0004F07A
  6144 0001:0004F082  6145 0001:0004F093  6146 0001:0004F0A1  6147 0001:0004F0AD
  6149 0001:0004F0CA  6154 0001:0004F0DA  6156 0001:0004F0E9  6157 0001:0004F0F3
  6159 0001:0004F116  6160 0001:0004F120  6161 0001:0004F12E  6162 0001:0004F140
  6164 0001:0004F14E  6165 0001:0004F165  6166 0001:0004F175  6169 0001:0004F19C
  6171 0001:0004F1B9  6174 0001:0004F1D6  6177 0001:0004F1E7  6185 0001:0004F218
  6186 0001:0004F221  6187 0001:0004F22F  6189 0001:0004F249  6191 0001:0004F257
  6192 0001:0004F26E  6193 0001:0004F27E  6196 0001:0004F2A5  6197 0001:0004F2B8
  6200 0001:0004F2CA  6203 0001:0004F2E0  6206 0001:0004F2F1  6208 0001:0004F2FA
  6209 0001:0004F30A  6210 0001:0004F321  6212 0001:0004F336  6214 0001:0004F341
  6216 0001:0004F355  6220 0001:0004F374  6222 0001:0004F380  6234 0001:0004F388
  6235 0001:0004F38E  6237 0001:0004F398  6239 0001:0004F39F  6240 0001:0004F3B6
  6241 0001:0004F3C0  6242 0001:0004F3D0  6243 0001:0004F3DC  6244 0001:0004F3E5
  6246 0001:0004F3FB  6247 0001:0004F412  6249 0001:0004F418  6250 0001:0004F421
  6251 0001:0004F42F  6252 0001:0004F44C  6253 0001:0004F455  6255 0001:0004F462
  6256 0001:0004F475  6258 0001:0004F483  6261 0001:0004F493  6263 0001:0004F4A6
  6265 0001:0004F4B0  6267 0001:0004F4C3  6268 0001:0004F4CA  6271 0001:0004F4DC
  6274 0001:0004F4EE  6276 0001:0004F504  6278 0001:0004F510  6279 0001:0004F520
  6280 0001:0004F530  6281 0001:0004F536  6285 0001:0004F541  6286 0001:0004F547
  6289 0001:0004F550  6291 0001:0004F560  6294 0001:0004F56B  6295 0001:0004F57B
  6298 0001:0004F59D  6299 0001:0004F5AD  6300 0001:0004F5B2  6301 0001:0004F5B7
  6302 0001:0004F5CF  6304 0001:0004F5DB  6305 0001:0004F5E2  6307 0001:0004F5F4
  6308 0001:0004F602  6309 0001:0004F614  6310 0001:0004F622  6312 0001:0004F640
  6315 0001:0004F65D  6318 0001:0004F670  6320 0001:0004F679  6321 0001:0004F68A
  6323 0001:0004F697  6327 0001:0004F6A3  6330 0001:0004F6BC  6331 0001:0004F6C2
  6333 0001:0004F6C5  6336 0001:0004F6D1  6337 0001:0004F6D5  6340 0001:0004F6D9
  6342 0001:0004F6DC  6345 0001:0004F6E9  6348 0001:0004F70C  6349 0001:0004F711
  6350 0001:0004F716  6351 0001:0004F725  6353 0001:0004F731  6354 0001:0004F738
  6356 0001:0004F74A  6357 0001:0004F752  6359 0001:0004F766  6362 0001:0004F76B
  6363 0001:0004F777  6366 0001:0004F788  6368 0001:0004F791  6369 0001:0004F7A1
  6370 0001:0004F7B8  6371 0001:0004F7BE  6373 0001:0004F7D3  6376 0001:0004F7DE
  6379 0001:0004F7FC  6384 0001:0004F81B  6386 0001:0004F827  6388 0001:0004F838
  6389 0001:0004F841  6390 0001:0004F845  6392 0001:0004F85C  6394 0001:0004F871
  6395 0001:0004F884  6396 0001:0004F88F  6402 0001:0004F898  6403 0001:0004F8A2
  6404 0001:0004F8B4  6405 0001:0004F8B6  6406 0001:0004F8C0  6407 0001:0004F8C8
  6408 0001:0004F8CC  6409 0001:0004F8D8  6411 0001:0004F8E6  6412 0001:0004F8F1
  6413 0001:0004F900  6415 0001:0004F90D  6416 0001:0004F916  6417 0001:0004F920
  6419 0001:0004F92C  6420 0001:0004F930  6421 0001:0004F935  6423 0001:0004F947
  6425 0001:0004F956  6426 0001:0004F962  6427 0001:0004F96A  6428 0001:0004F96F
  6429 0001:0004F97C  6431 0001:0004F986  6432 0001:0004F992  6433 0001:0004F994
  6436 0001:0004F99C  6437 0001:0004F9B3  6439 0001:0004F9B5  6440 0001:0004F9C0
  6441 0001:0004F9D8  6444 0001:0004F9FC  6445 0001:0004FA00  6446 0001:0004FA07
  6447 0001:0004FA1B  6448 0001:0004FA2F  6486 0001:0004FA40  6487 0001:0004FA5A
  6489 0001:0004FA6D  6490 0001:0004FA79  6491 0001:0004FA82  6494 0001:0004FA9C
  6495 0001:0004FAAA  6496 0001:0004FAAD  6497 0001:0004FAB7  6498 0001:0004FABA
  6499 0001:0004FABE  6500 0001:0004FAC7  6501 0001:0004FACA  6502 0001:0004FADF
  6503 0001:0004FAED  6504 0001:0004FAFB  6506 0001:0004FB13  6509 0001:0004FB35
  6512 0001:0004FB5A  6513 0001:0004FB67  6515 0001:0004FB6D  6517 0001:0004FB73
  6527 0001:0004FB98  6528 0001:0004FBA9  6530 0001:0004FBAE  6531 0001:0004FBB1
  6534 0001:0004FBB3  6535 0001:0004FBC1  6538 0001:0004FBC4  6536 0001:0004FBC5
  6539 0001:0004FBF1  6540 0001:0004FBFF  6541 0001:0004FC02  6552 0001:0004FC08
  6553 0001:0004FC0F  6554 0001:0004FC20  6555 0001:0004FC32  6560 0001:0004FC91
  6562 0001:0004FC98  6563 0001:0004FCBD  6565 0001:0004FCCF  6568 0001:0004FCD4
  6570 0001:0004FD0E  6571 0001:0004FD19  6566 0001:0004FD1A  6575 0001:0004FD24
  6576 0001:0004FD2C  6578 0001:0004FD35  6580 0001:0004FD47  6581 0001:0004FD52
  6582 0001:0004FD73  6585 0001:0004FD81  6586 0001:0004FD8D  6587 0001:0004FDAE
  6590 0001:0004FDBA  6576 0001:0004FDBB  6593 0001:0004FDC4  6594 0001:0004FDCA
  6596 0001:0004FDCF  6598 0001:0004FDEF  6599 0001:0004FDF4  6600 0001:0004FE08
  6601 0001:0004FE17  6603 0001:0004FE3B  6594 0001:0004FE3C  6605 0001:0004FE41
  6607 0001:0004FE80  6608 0001:0004FE8F  6609 0001:0004FE94  6610 0001:0004FE99
  6612 0001:0004FEA2  6614 0001:0004FEB1  6617 0001:0004FEB3  6618 0001:0004FEC8
  6620 0001:0004FED3  6623 0001:0004FEDF  6625 0001:0004FEE3  6627 0001:0004FEFB
  6628 0001:0004FF13  6631 0001:0004FF15  6632 0001:0004FF23  6634 0001:0004FF2B
  6635 0001:0004FF33  6636 0001:0004FF39  6638 0001:0004FF4D  6643 0001:0004FF4F
  6645 0001:0004FF59  6646 0001:0004FF69  6647 0001:0004FF85  6649 0001:0004FF9A
  6651 0001:0004FFA0  6652 0001:0004FFAB  6653 0001:0004FFC4  6655 0001:0004FFD0
  6659 0001:0004FFE1  6662 0001:0004FFF3  6665 0001:00050004  6668 0001:0005001A
  6671 0001:0005002B  6674 0001:00050040  6675 0001:00050050  6678 0001:00050061
  6681 0001:00050076  6682 0001:00050086  6683 0001:000500A0  6686 0001:000500B1
  6689 0001:000500C3  6693 0001:000500D1  6696 0001:000500E3  6700 0001:000500F1
  6703 0001:00050102  6706 0001:0005010F  6708 0001:0005011B  6709 0001:0005012B
  6710 0001:0005013C  6714 0001:00050148  6716 0001:0005015A  6718 0001:00050161
  6620 0001:00050165  6721 0001:00050171  6722 0001:0005017B  6728 0001:00050184
  6729 0001:00050192  6730 0001:000501A0  6732 0001:000501CC  6739 0001:000501D8
  6740 0001:000501E1  6741 0001:000501EF  6743 0001:00050204  6745 0001:0005020A
  6746 0001:00050213  6751 0001:0005022B  6752 0001:00050230  6757 0001:00050238
  6758 0001:00050239  6759 0001:00050245  6761 0001:00050249  6763 0001:00050253
  6764 0001:00050265  6765 0001:0005026A  6766 0001:00050272  6768 0001:00050278
  6773 0001:0005027C  6774 0001:00050286  6775 0001:0005028F  6776 0001:00050295
  6777 0001:0005029A  6778 0001:000502A0  6782 0001:000502A4  6783 0001:000502A9
  6791 0001:000502AC  6792 0001:000502B3  6796 0001:000502B4  6797 0001:000502B6
  6798 0001:000502B9  6800 0001:000502BC  6801 0001:000502C8  6802 0001:000502D2
  6803 0001:000502E0  6804 0001:000502EE  6805 0001:000502F9  6806 0001:00050300
  6807 0001:00050314  6808 0001:0005031C  6809 0001:00050328  6811 0001:00050332
  6812 0001:0005033C  6813 0001:00050342  6814 0001:0005034C  6815 0001:00050359
  6817 0001:0005037B  6820 0001:00050394  6822 0001:000503A6  6827 0001:000503AC
  6828 0001:000503AF  6829 0001:000503BB  6832 0001:000503C0  6833 0001:000503C3
  6834 0001:000503DB  6835 0001:000503E8  6850 0001:000503EC  6852 0001:00050404
  6853 0001:0005040B  6856 0001:0005041C  6857 0001:0005042A  6860 0001:00050438
  6861 0001:0005043F  6862 0001:00050447  6863 0001:00050450  6864 0001:00050459
  6867 0001:00050462  6868 0001:00050469  6869 0001:00050473  6870 0001:0005047C
  6871 0001:00050482  6874 0001:00050494  6875 0001:000504A1  6876 0001:000504AB
  6878 0001:000504B0  6879 0001:000504C0  6881 0001:000504C2  6883 0001:000504D5
  6885 0001:000504E0  6887 0001:000504EA  6888 0001:000504F2  6890 0001:000504FB
  6892 0001:00050504  6893 0001:00050509  6894 0001:00050510  6898 0001:00050519
  6899 0001:0005051E  6900 0001:00050525  6903 0001:0005052C  6905 0001:00050539
  6907 0001:00050552  6908 0001:0005056C  6909 0001:00050579  6910 0001:00050597
  6911 0001:000505A7  6912 0001:000505C2  6913 0001:000505CE  6914 0001:000505E2
  6915 0001:000505EA  6916 0001:000505F5  6917 0001:000505F9  6918 0001:000505FD
  6905 0001:00050603  6921 0001:0005060C  6922 0001:00050617  6923 0001:00050622
  6925 0001:0005062B  6926 0001:00050636  6930 0001:00050643  6931 0001:00050646
  6932 0001:00050651  6934 0001:00050654  6936 0001:0005065A  6937 0001:00050665
  6939 0001:0005068F  6941 0001:000506B9  6943 0001:000506E3  6945 0001:0005070D
  6947 0001:00050713  6948 0001:0005071B  6950 0001:00050727  6952 0001:00050749
  6954 0001:0005074C  6956 0001:00050755  6957 0001:00050760  6960 0001:00050796
  6963 0001:000507A3  6965 0001:000507AE  6969 0001:000507E5  6970 0001:000507EF
  6972 0001:000507F1  6977 0001:00050808  6978 0001:00050812  6981 0001:0005081A
  6983 0001:00050823  6984 0001:0005082D  6985 0001:0005083C  6986 0001:0005084B
  6990 0001:0005085C  6991 0001:00050866  6992 0001:00050875  6993 0001:00050884
  6997 0001:00050893  7001 0001:00050899  7003 0001:000508A5  7008 0001:000508D9
  7010 0001:000508EA  7011 0001:000508F1  7012 0001:000508FB  7014 0001:0005090C
  7015 0001:00050913  7016 0001:0005091B  7018 0001:0005092C  7019 0001:00050933
  7020 0001:0005093D  7022 0001:0005094E  7027 0001:00050997  7032 0001:000509E0
  7033 0001:000509E7  7037 0001:00050A50  7038 0001:00050A5B  7039 0001:00050A66
  7040 0001:00050A71  7041 0001:00050A7C  7042 0001:00050A87  7043 0001:00050A92
  7044 0001:00050A9D  7049 0001:00050AA0  7050 0001:00050AA6  7051 0001:00050AAD
  7054 0001:00050AC8  7055 0001:00050ADE  7057 0001:00050AEA  7058 0001:00050AF4
  7059 0001:00050B08  7060 0001:00050B11  7062 0001:00050B23  7063 0001:00050B2F
  7064 0001:00050B36  7066 0001:00050B61  7067 0001:00050B6D  7072 0001:00050B74
  7073 0001:00050B85  7074 0001:00050B90  7076 0001:00050BA8  7080 0001:00050BE8
  7083 0001:00050BF0  7084 0001:00050BF3  7085 0001:00050BF9  7086 0001:00050C0C
  7087 0001:00050C1B  7091 0001:00050C20  7093 0001:00050C2F  7094 0001:00050C37
  7096 0001:00050C49  7100 0001:00050C4C  7101 0001:00050C63  7105 0001:00050C64
  7106 0001:00050C6B  7111 0001:00050C6C  7112 0001:00050C70  7113 0001:00050C77
  7115 0001:00050C9E  7116 0001:00050CA9  7119 0001:00050CB0  7120 0001:00050CB3
  7121 0001:00050CB8  7122 0001:00050CBE  7123 0001:00050CCD  7127 0001:00050CD0
  7128 0001:00050CD8  7129 0001:00050CDF  7132 0001:00050CE0  7133 0001:00050CF6
  7134 0001:00050D13  7141 0001:00050D54  7142 0001:00050D8A  7144 0001:00050D94
  7145 0001:00050DA5  7146 0001:00050DB3  7147 0001:00050DBE  7148 0001:00050DCD
  7149 0001:00050DE8  7150 0001:00050DFF  7151 0001:00050E0E  7152 0001:00050E1D
  7153 0001:00050E2D  7156 0001:00050E71  7158 0001:00050E81  7166 0001:00050EC0
  7167 0001:00050EF4  7169 0001:00050F0B  7170 0001:00050F1C  7171 0001:00050F2A
  7172 0001:00050F35  7173 0001:00050F46  7172 0001:00050F94  7174 0001:00050F97
  7175 0001:00050FB2  7176 0001:00050FC9  7177 0001:00050FD8  7178 0001:00050FE7
  7179 0001:00050FF7  7182 0001:0005103B  7184 0001:0005104B  7195 0001:00051090
  7196 0001:000510BB  7198 0001:000510C0  7200 0001:000510C4  7201 0001:000510D3
  7202 0001:000510E2  7203 0001:000510EE  7204 0001:000510F8  7205 0001:00051106
  7206 0001:00051110  7208 0001:0005112C  7209 0001:00051150  7210 0001:00051158
  7211 0001:0005117A  7212 0001:0005117C  7215 0001:00051194  7216 0001:000511D9
  7217 0001:000511E3  7219 0001:000511E6  7221 0001:000511F0  7222 0001:000511F6
  7219 0001:000511F9  7224 0001:000511FC  7212 0001:000511FF  7225 0001:00051204
  7206 0001:00051207  7227 0001:0005121D  7228 0001:0005122A  7229 0001:00051232
  7231 0001:00051242  7237 0001:00051284  7238 0001:00051293  7239 0001:0005129F
  7240 0001:000512A9  7241 0001:000512B7  7242 0001:000512D8  7244 0001:000512EB
  7246 0001:00051300  7251 0001:0005130C  7252 0001:00051317  7253 0001:0005132D
  7254 0001:00051336  7255 0001:0005134E  7256 0001:0005136C  7261 0001:00051374
  7266 0001:00051376  7279 0001:00051378  7280 0001:00051384  7281 0001:0005138E
  7282 0001:00051391  7283 0001:000513AF  7285 0001:000513B8  7286 0001:000513DF
  7287 0001:000513E1  7290 0001:00051499  7291 0001:000514A2  7292 0001:000514A9
  7294 0001:000514CB  7296 0001:000514F5  7298 0001:0005151F  7299 0001:00051537
  7300 0001:0005154F  7301 0001:00051567  7303 0001:0005158A  7304 0001:00051594
  7305 0001:000515A0  7307 0001:000515C5  7308 0001:000515D3  7309 0001:000515DF
  7310 0001:000515FA  7311 0001:0005161A  7312 0001:0005163E  7313 0001:00051645
  7314 0001:00051651  7318 0001:0005165D  7319 0001:00051664  7320 0001:0005166B
  7325 0001:00051672  7328 0001:00051679  7329 0001:0005167E  7332 0001:00051686
  7334 0001:000516AD  7339 0001:000516B7  7343 0001:000516DE  7346 0001:000516E5
  7348 0001:00051714  7349 0001:00051717  7354 0001:0005175B  7355 0001:00051762
  7356 0001:00051770  7358 0001:0005179C  7360 0001:000517AB  7369 0001:000517BC
  7370 0001:000517D0  7371 0001:000517DA  7372 0001:000517E8  7373 0001:00051801
  7375 0001:0005180A  7376 0001:00051838  7379 0001:0005186E  7381 0001:00051880
  7384 0001:000518A4  7385 0001:000518AA  7386 0001:000518AF  7387 0001:000518B9
  7388 0001:000518C7  7389 0001:000518E0  7391 0001:000518E9  7392 0001:000518F6
  7395 0001:00051922  7397 0001:00051934  7400 0001:0005193C  7401 0001:00051959
  7402 0001:0005195C  7403 0001:00051969  7404 0001:00051977  7405 0001:00051988
  7408 0001:000519A5  7409 0001:000519A8  7411 0001:000519B8  7412 0001:000519CA
  7414 0001:000519F3  7416 0001:00051A0B  7420 0001:00051A23  7421 0001:00051A33
  7423 0001:00051A3E  7432 0001:00051A6C  7433 0001:00051A70  7434 0001:00051A72
  7436 0001:00051A74  7437 0001:00051A99  7438 0001:00051AA5  7440 0001:00051AB1
  7441 0001:00051AD1  7444 0001:00051AF9  7446 0001:00051B19  7448 0001:00051B37
  7450 0001:00051B49  7451 0001:00051B5C  7452 0001:00051B8B  7455 0001:00051B90
  7456 0001:00051BA0  7457 0001:00051BAD  7459 0001:00051BBD  7463 0001:00051C31
  7464 0001:00051C43  7466 0001:00051C89  7467 0001:00051C9C  7468 0001:00051CC6
  7469 0001:00051CD5  7470 0001:00051D04  7475 0001:00051DC0  7476 0001:00051DEB
  7477 0001:00051DFC  7478 0001:00051E0B  7479 0001:00051E1A  7480 0001:00051E3A
  7485 0001:00051EEF  7487 0001:00051F60  7488 0001:00051F83  7489 0001:00051F95
  7490 0001:00051F9C  7512 0001:00051FC8  7513 0001:00051FD4  7514 0001:00051FD8
  7515 0001:00051FE5  7516 0001:00051FEF  7517 0001:00051FFD  7518 0001:0005200D
  7519 0001:0005201D  7520 0001:0005202D  7522 0001:00052035  7523 0001:00052043
  7524 0001:00052052  7526 0001:0005205A  7527 0001:00052061  7529 0001:0005206C
  7530 0001:00052078  7532 0001:00052083  7533 0001:0005208D  7534 0001:0005209B
  7535 0001:000520AA  7541 0001:000520BB  7543 0001:000520CC  7559 0001:0005211C
  7560 0001:0005212A  7562 0001:0005212E  7563 0001:0005213B  7564 0001:00052145
  7565 0001:00052153  7566 0001:00052163  7567 0001:00052173  7569 0001:0005217B
  7570 0001:00052182  7572 0001:00052186  7573 0001:0005218D  7575 0001:00052198
  7576 0001:000521A4  7581 0001:000521B5  7583 0001:000521C6  7586 0001:00052204
  7587 0001:0005220A  7588 0001:00052217  7589 0001:00052223  7594 0001:00052228
  7595 0001:0005222C  7596 0001:00052233  7597 0001:0005223E  7598 0001:00052247
  7603 0001:0005224C  7604 0001:00052258  7605 0001:0005225F  7609 0001:00052297
  7621 0001:000522A0  7622 0001:000522A9  7623 0001:000522B5  7624 0001:000522C3
  7651 0001:000522C8  7654 0001:000522ED  7655 0001:000522F4  7656 0001:000522F7
  7657 0001:000522FD  7658 0001:00052300  7659 0001:0005230B  7661 0001:0005231B
  7666 0001:00052344  7667 0001:00052355  7668 0001:0005235C  7669 0001:0005236C
  7670 0001:00052376  7671 0001:00052386  7676 0001:0005238C  7677 0001:000523B0
  7678 0001:000523BB  7679 0001:000523C6  7681 0001:000523D2  7682 0001:000523FD
  7683 0001:00052428  7685 0001:0005246F  7687 0001:000524BF  7689 0001:000524F5
  7691 0001:00052532  7693 0001:00052536  7694 0001:00052558  7696 0001:0005257A
  7699 0001:0005263C  7700 0001:00052654  7702 0001:00052661  7704 0001:0005266E
  7705 0001:00052693  7706 0001:000526BE  7707 0001:000526E3  7709 0001:00052708
  7711 0001:0005272D  7716 0001:000527D4  7717 0001:000527DD  7718 0001:000527E4
  7719 0001:000527F4  7720 0001:000527F7  7721 0001:00052807  7737 0001:0005280C
  7738 0001:00052810  7740 0001:0005281F  7741 0001:00052831  7742 0001:00052839
  7743 0001:0005283E  7744 0001:00052847  7746 0001:0005284C  7747 0001:00052885
  7748 0001:00052897  7749 0001:000528A3  7750 0001:000528AF  7751 0001:000528BB
  7752 0001:000528C7  7753 0001:000528D3  7754 0001:000528DF  7755 0001:000528EB
  7756 0001:000528F9  7757 0001:000528FE  7758 0001:0005290D  7759 0001:00052913
  7760 0001:00052917  7762 0001:0005291B  7763 0001:00052922  7764 0001:00052931
  7766 0001:00052940  7768 0001:00052948  7769 0001:00052958  7771 0001:00052988
  7772 0001:00052992  7773 0001:000529A1  7774 0001:000529BA  7778 0001:00052A00
  7779 0001:00052A0D  7781 0001:00052A36  7782 0001:00052A45  7783 0001:00052A54
  7784 0001:00052A59  7785 0001:00052A5E  7786 0001:00052A6E  7787 0001:00052A7D
  7788 0001:00052A8B  7789 0001:00052A9E  7791 0001:00052ADF  7793 0001:00052AF6
  7794 0001:00052B18  7795 0001:00052B5B  7797 0001:00052B63  7798 0001:00052B69
  7801 0001:00052B76  7802 0001:00052B85  7805 0001:00052B88  7806 0001:00052B8E
  7791 0001:00052B8F  7808 0001:00052BA5  7810 0001:00052BB5  7811 0001:00052BC5
  7812 0001:00052BD1  7813 0001:00052BE7  7815 0001:00052BF0  7817 0001:00052C11
  7820 0001:00052C29  7821 0001:00052C38  7822 0001:00052C4A  7824 0001:00052C5C
  7825 0001:00052C69  7827 0001:00052C6D  7829 0001:00052C94  7830 0001:00052CB3
  7831 0001:00052CD2  7832 0001:00052CEB  7835 0001:00052D2C  7837 0001:00052D4D
  7849 0001:00052DC4  7850 0001:00052DFD  7851 0001:00052DFF  7852 0001:00052E15
  7854 0001:00052E3A  7855 0001:00052E4E  7857 0001:00052EBC  7858 0001:00052EDF
  7859 0001:00052EE4  7862 0001:00052FA7  7863 0001:00052FC2  7865 0001:00052FDA
  7867 0001:00053004  7869 0001:0005301C  7871 0001:00053046  7873 0001:00053070
  7875 0001:0005309A  7877 0001:000530C4  7879 0001:000530EE  7881 0001:00053118
  7884 0001:00053142  7887 0001:0005316C  7890 0001:00053199  7893 0001:000531C6
  7896 0001:000531F3  7899 0001:00053220  7902 0001:0005324D  7906 0001:0005327A
  7907 0001:00053294  7908 0001:000532AE  7909 0001:000532C5  7911 0001:000532DC
  7916 0001:000532F0  7924 0001:000533E5  7911 0001:000533E6  7928 0001:000533F2
  7929 0001:000533FC  7931 0001:00053403  7934 0001:00053454  7929 0001:00053456
  7938 0001:0005345D  7939 0001:0005346B  7943 0001:00053475  7945 0001:00053483
  7946 0001:0005348E  7947 0001:00053499  7953 0001:000534A3  7956 0001:000534AA
  7959 0001:000534BE  7997 0001:000535F0  7998 0001:00053613  7999 0001:00053615
  8002 0001:000536D8  8003 0001:000536F3  8005 0001:0005370B  8007 0001:00053735
  8009 0001:0005374D  8011 0001:00053777  8013 0001:000537A1  8015 0001:000537CB
  8017 0001:000537F5  8019 0001:0005381F  8021 0001:00053849  8023 0001:00053873
  8026 0001:0005389D  8029 0001:000538C7  8032 0001:000538F4  8035 0001:00053921
  8038 0001:0005394E  8041 0001:0005397B  8044 0001:000539A8  8047 0001:000539D5
  8051 0001:00053A02  8052 0001:00053A1C  8053 0001:00053A36  8054 0001:00053A4D
  8056 0001:00053A64  8060 0001:00053A78  8069 0001:00053B83  8056 0001:00053B84
  8073 0001:00053B90  8074 0001:00053B9A  8076 0001:00053B9C  8079 0001:00053BFE
  8074 0001:00053BFF  8083 0001:00053C06  8084 0001:00053C14  8088 0001:00053C1C
  8090 0001:00053C2A  8091 0001:00053C35  8092 0001:00053C40  8098 0001:00053C48
  8101 0001:00053C4F  8104 0001:00053C60  8108 0001:00053DBC  8109 0001:00053DD2
  8110 0001:00053DD4  8113 0001:00053E88  8114 0001:00053EA3  8116 0001:00053EC5
  8117 0001:00053EDA  8119 0001:00053F07  8127 0001:00053F24  8133 0001:00053F2B
  8134 0001:00053F39  8138 0001:00053F41  8140 0001:00053F51  8141 0001:00053F5C
  8142 0001:00053F67  8143 0001:00053F75  8147 0001:00053F7D  8148 0001:00053F88
  8149 0001:00053F93  8153 0001:00053F99  8187 0001:00053FC4  8188 0001:00053FFD
  8189 0001:00054004  8192 0001:00054013  8194 0001:00054030  8195 0001:00054037
  8198 0001:00054040  8202 0001:00054092  8204 0001:00054097  8205 0001:000540AF
  8207 0001:000540B5  8209 0001:00054124  8210 0001:0005417B  8212 0001:00054185
  8213 0001:00054198  8214 0001:000541A5  8215 0001:000541B3  8216 0001:000541C1
  8217 0001:000541CC  8218 0001:000541E8  8219 0001:00054204  8222 0001:00054210
  8227 0001:00054222  8233 0001:00054288  8234 0001:00054291  8235 0001:00054297
  8236 0001:000542A1  8237 0001:000542AD  8238 0001:000542C0  8239 0001:000542CE
  8242 0001:000542D4  8243 0001:000542F7  8244 0001:000542FC  8247 0001:000543BF
  8248 0001:000543DA  8250 0001:000543F2  8252 0001:0005441C  8254 0001:00054446
  8256 0001:00054470  8258 0001:0005449A  8260 0001:000544C4  8263 0001:000544EE
  8264 0001:00054508  8265 0001:00054522  8267 0001:00054539  8270 0001:00054563
  8273 0001:00054590  8276 0001:000545BD  8279 0001:000545EA  8282 0001:00054617
  8286 0001:00054644  8289 0001:0005465B  8290 0001:00054660  8291 0001:00054664
  8292 0001:00054668  8293 0001:0005467C  8297 0001:000546D2  8301 0001:00054717
  8302 0001:0005472F  8304 0001:00054770  8310 0001:000547F9  8311 0001:00054817
  8314 0001:00054830  8316 0001:00054871  8317 0001:00054878  8318 0001:00054889
  8319 0001:000548AC  8320 0001:000548B5  8321 0001:000548BE  8323 0001:000548C3
  8324 0001:000548D4  8325 0001:000548F0  8326 0001:000548F8  8331 0001:000549C4
  8332 0001:000549D6  8333 0001:000549E9  8334 0001:000549ED  8292 0001:000549EE
  8336 0001:000549F5  8338 0001:00054A25  8344 0001:00054A42  8345 0001:00054A4C
  8347 0001:00054A4E  8350 0001:00054AB0  8345 0001:00054AB1  8355 0001:00054ABB
  8361 0001:00054AC5  8362 0001:00054AD7  8366 0001:00054AE4  8368 0001:00054AF6
  8369 0001:00054B01  8370 0001:00054B0C  8375 0001:00054B19  8380 0001:00054B32
  8381 0001:00054B37  8384 0001:00054B4C  8386 0001:00054B65  8388 0001:00054B6A
  8389 0001:00054B73  8390 0001:00054B85  8393 0001:00054B96  8396 0001:00054BB3
  8398 0001:00054BCC  8399 0001:00054C08  8400 0001:00054C31  8401 0001:00054C5A
  8402 0001:00054C83  8403 0001:00054CAC  8405 0001:00054CB6  8406 0001:00054CC3
  8407 0001:00054CD2  8443 0001:00054CD6  8409 0001:00054CD9  8411 0001:00054CEF
  8413 0001:00054D02  8414 0001:00054D17  8416 0001:00054D19  8409 0001:00054D1C
  8418 0001:00054D1F  8420 0001:00054D38  8422 0001:00054D4B  8423 0001:00054D60
  8425 0001:00054D62  8418 0001:00054D65  8426 0001:00054D68  8427 0001:00054D75
  8428 0001:00054D79  8430 0001:00054D87  8431 0001:00054D8F  8435 0001:00054DAF
  8436 0001:00054DB8  8437 0001:00054DCA  8443 0001:00054DDB  8447 0001:00054F38
  8448 0001:00054F4E  8449 0001:00054F50  8452 0001:00055004  8453 0001:0005501F
  8455 0001:00055041  8456 0001:00055056  8458 0001:00055083  8466 0001:000550A0
  8472 0001:000550A7  8473 0001:000550B5  8477 0001:000550BD  8479 0001:000550CD
  8480 0001:000550D8  8481 0001:000550E3  8482 0001:000550F1  8486 0001:000550F9
  8487 0001:00055104  8488 0001:0005510F  8492 0001:00055115  8496 0001:00055140
  8497 0001:00055156  8498 0001:00055158  8501 0001:0005520C  8502 0001:00055227
  8503 0001:00055249  8504 0001:0005525E  8506 0001:0005528B  8511 0001:000552A8
  8520 0001:000552AF  8521 0001:000552BD  8525 0001:000552C5  8527 0001:000552D5
  8528 0001:000552E0  8529 0001:000552EB  8530 0001:000552F9  8534 0001:00055301
  8535 0001:0005530C  8536 0001:00055317  8540 0001:0005531D  8545 0001:00055348
  8546 0001:0005534E  8547 0001:00055355  8548 0001:00055365  8549 0001:00055368
  8563 0001:0005536C  8564 0001:00055377  8565 0001:0005538F  8566 0001:000553A0
  8567 0001:000553BF  8568 0001:000553C2  8569 0001:000553C5  8571 0001:000553E5
  8573 0001:00055415  8580 0001:0005541C  8581 0001:00055446  8582 0001:0005544B
  8583 0001:00055453  8584 0001:0005545B  8585 0001:00055463  8586 0001:0005546B
  8587 0001:00055473  8588 0001:0005547B  8589 0001:00055488  8590 0001:00055495
  8591 0001:000554A2  8592 0001:000554AF  8593 0001:000554BC  8594 0001:000554C9
  8597 0001:000554CD  8599 0001:000554D2  8600 0001:000554EA  8601 0001:000554ED
  8602 0001:00055505  8605 0001:0005550A  8606 0001:00055513  8607 0001:00055527
  8609 0001:00055559  8610 0001:00055563  8613 0001:00055630  8615 0001:00055648
  8616 0001:00055655  8619 0001:00055666  8620 0001:00055674  8623 0001:00055682
  8624 0001:00055689  8625 0001:00055691  8626 0001:0005569A  8627 0001:000556A3
  8630 0001:000556AC  8631 0001:000556B3  8632 0001:000556BD  8633 0001:000556C6
  8634 0001:000556CC  8637 0001:000556DE  8638 0001:000556EB  8639 0001:000556F5
  8642 0001:000556FC  8643 0001:00055717  8645 0001:00055724  8646 0001:00055730
  8647 0001:0005573B  8648 0001:00055757  8649 0001:0005575F  8650 0001:00055770
  8653 0001:000557B7  8655 0001:000557E4  8656 0001:00055807  8657 0001:0005580C
  8660 0001:00055948  8661 0001:0005594D  8664 0001:0005598A  8665 0001:00055991
  8666 0001:00055998  8667 0001:0005599F  8668 0001:000559A6  8672 0001:000559B6
  8677 0001:000559F1  8678 0001:000559F8  8682 0001:00055A08  8683 0001:00055A0F
  8684 0001:00055A16  8688 0001:00055A26  8689 0001:00055A34  8690 0001:00055A42
  8691 0001:00055A4F  8695 0001:00055A62  8696 0001:00055A69  8697 0001:00055A73
  8699 0001:00055A80  8700 0001:00055A87  8707 0001:00055A97  8709 0001:00055AA4
  8710 0001:00055AAB  8711 0001:00055AC0  8717 0001:00055AE8  8718 0001:00055AEF
  8719 0001:00055AFA  8720 0001:00055B0C  8721 0001:00055B1A  8722 0001:00055B3A
  8724 0001:00055B4E  8729 0001:00055B6C  8731 0001:00055B7E  8733 0001:00055B89
  8735 0001:00055B90  8737 0001:00055BA3  8739 0001:00055BAC  8740 0001:00055BB1
  8741 0001:00055BBB  8745 0001:00055BC7  8746 0001:00055BCC  8747 0001:00055BD6
  8750 0001:00055BE0  8752 0001:00055BF0  8754 0001:00055C12  8755 0001:00055C32
  8756 0001:00055C3F  8757 0001:00055C66  8758 0001:00055C7C  8759 0001:00055C9D
  8760 0001:00055CA9  8761 0001:00055CC0  8762 0001:00055CC8  8763 0001:00055CD6
  8764 0001:00055CDD  8765 0001:00055CE4  8752 0001:00055CEA  8768 0001:00055CF6
  8769 0001:00055D04  8770 0001:00055D0F  8772 0001:00055D18  8773 0001:00055D23
  8777 0001:00055D30  8778 0001:00055D33  8779 0001:00055D3E  8781 0001:00055D41
  8783 0001:00055D47  8784 0001:00055D55  8786 0001:00055D7F  8788 0001:00055DA9
  8790 0001:00055DD3  8792 0001:00055DFD  8794 0001:00055E03  8795 0001:00055E0B
  8797 0001:00055E17  8801 0001:00055E6D  8803 0001:00055E79  8805 0001:00055E86
  8806 0001:00055E91  8810 0001:00055F1B  8813 0001:00055F28  8815 0001:00055F33
  8820 0001:00055FA0  8821 0001:00055FAA  8826 0001:00055FB6  8827 0001:00055FBE
  8829 0001:00055FD6  8830 0001:00055FEA  8833 0001:00055FF8  8834 0001:00056014
  8836 0001:00056020  8837 0001:0005602A  8838 0001:00056033  8840 0001:00056048
  8843 0001:00056086  8846 0001:000560B6  8847 0001:000560BD  8848 0001:000560C4
  8849 0001:000560D8  8850 0001:000560FC  8851 0001:00056120  8853 0001:00056129
  8854 0001:0005614D  8855 0001:00056159  8856 0001:00056163  8857 0001:0005616B
  8858 0001:00056174  8861 0001:00056196  8863 0001:000561AB  8864 0001:000561BD
  8865 0001:000561CB  8867 0001:000561DC  8868 0001:000561EE  8870 0001:000561FD
  8872 0001:00056205  8873 0001:0005620F  8874 0001:00056219  8875 0001:00056223
  8876 0001:0005622D  8877 0001:00056237  8878 0001:00056241  8880 0001:0005624B
  8882 0001:00056266  8884 0001:00056299  8886 0001:000562B4  8887 0001:000562BF
  8891 0001:000562F4  8895 0001:00056327  8896 0001:00056335  8900 0001:0005636A
  8902 0001:0005637D  8904 0001:00056398  8906 0001:000563B3  8908 0001:000563CE
  8910 0001:0005640A  8913 0001:00056440  8915 0001:00056449  8916 0001:0005645F
  8918 0001:00056475  8920 0001:0005647E  8922 0001:00056494  8924 0001:000564D0
  8925 0001:000564ED  8927 0001:000564F6  8930 0001:0005650C  8933 0001:00056537
  8934 0001:00056541  8935 0001:0005654B  8936 0001:0005656E  8937 0001:00056590
  8939 0001:000565AE  8940 0001:000565D1  8941 0001:000565F3  8943 0001:00056611
  8945 0001:00056623  8946 0001:00056646  8947 0001:00056668  8949 0001:00056686
  8950 0001:000566A9  8951 0001:000566CB  8954 0001:000566E9  8956 0001:000566FB
  8957 0001:0005671E  8958 0001:00056740  8960 0001:0005675E  8961 0001:00056781
  8962 0001:000567A3  8965 0001:000567C1  8966 0001:000567CD  8968 0001:000567D2
  8969 0001:00056802  8972 0001:00056804  8973 0001:00056815  8974 0001:00056820
  8975 0001:0005683C  8976 0001:0005684A  8977 0001:00056859  8978 0001:00056861
  8982 0001:0005686E  8983 0001:00056879  8984 0001:00056881  8985 0001:00056889
  8987 0001:000568BE  8988 0001:000568C7  8991 0001:000568E6  8993 0001:00056905
  8995 0001:00056927  8996 0001:00056930  8999 0001:0005694F  9001 0001:0005696E
  9003 0001:000569A3  9004 0001:000569A8  9005 0001:000569B3  9006 0001:000569BE
  9007 0001:000569C9  9008 0001:000569D2  9009 0001:000569DD  9014 0001:000569F4
  9017 0001:000569FE  9018 0001:00056A09  9020 0001:00056A16  9021 0001:00056A1D
  9026 0001:00056A2D  9027 0001:00056A34  9031 0001:00056A44  9032 0001:00056A49
  9034 0001:00056A59  9040 0001:00056A79  9041 0001:00056A83  9042 0001:00056A92
  9043 0001:00056AB3  9044 0001:00056AC0  9048 0001:00056AD5  9049 0001:00056AE2
  9050 0001:00056AF2  9051 0001:00056B22  9052 0001:00056B32  9053 0001:00056B47
  9056 0001:00056B87  9057 0001:00056B99  9059 0001:00056BCF  9060 0001:00056BDD
  9061 0001:00056BF9  9063 0001:00056C18  9064 0001:00056C24  9066 0001:00056C38
  9069 0001:00056C41  9070 0001:00056C68  9073 0001:00056C82  9075 0001:00056C8C
  9076 0001:00056C96  9077 0001:00056CA5  9079 0001:00056D0F  9080 0001:00056D23
  9082 0001:00056D8D  9083 0001:00056DA1  9085 0001:00056E0B  9086 0001:00056E1F
  9088 0001:00056E89  9090 0001:00056EF3  9091 0001:00056F07  9093 0001:00056F12
  9094 0001:00056F29  9095 0001:00056F41  9097 0001:00056F5F  9099 0001:00056F66
  9100 0001:00056F6B  9103 0001:00056F94  9104 0001:00056FAE  9105 0001:00056FBE
  9106 0001:00056FC3  9107 0001:00056FE1  9108 0001:00056FF2  9111 0001:00057018
  9112 0001:00057032  9114 0001:0005705E  9116 0001:00057078  9118 0001:00057082
  9120 0001:00057098  9122 0001:000570CF  9123 0001:000570EC  9125 0001:00057122
  9127 0001:00057140  9129 0001:00057171  9130 0001:0005718E  9132 0001:000571C4
  9135 0001:000571E2  9136 0001:000571EC  9137 0001:000571FA  9138 0001:00057209
  9141 0001:0005726F  9143 0001:00057282  9144 0001:000572B8  9145 0001:000572D2
  9146 0001:000572DF  9147 0001:000572EC  9149 0001:000572F3  9151 0001:00057327
  9152 0001:00057344  9154 0001:0005737A  9156 0001:00057398  9157 0001:000573B0
  9159 0001:000573C5  9164 0001:000573DC  9165 0001:0005740F  9167 0001:0005742B
  9169 0001:0005743E  9171 0001:00057450  9173 0001:00057462  9175 0001:0005746B
  9176 0001:00057475  9177 0001:00057485  9178 0001:000574A0  9180 0001:000574BC
  9181 0001:000574CC  9185 0001:000574D8  9187 0001:000574F5  9188 0001:00057505
  9189 0001:00057515  9190 0001:00057522  9191 0001:00057530  9196 0001:00057542
  9197 0001:00057550  9201 0001:0005755A  9203 0001:00057568  9204 0001:00057573
  9205 0001:0005757E  9209 0001:00057586  9226 0001:000575EC  9227 0001:00057604
  9228 0001:00057618  9229 0001:00057638  9230 0001:0005765E  9231 0001:00057669
  9234 0001:00057674  9235 0001:0005768F  9237 0001:000576A1  9238 0001:000576AD
  9239 0001:000576B8  9240 0001:000576D4  9241 0001:000576DC  9243 0001:000576ED
  9247 0001:00057734  9250 0001:00057760  9251 0001:00057776  9253 0001:000577AE
  9254 0001:000577B8  9257 0001:000577E8  9259 0001:000577F9  9260 0001:00057826
  9261 0001:00057845  9264 0001:00057850  9265 0001:00057853  9266 0001:00057879
  9273 0001:00057894  9274 0001:0005789F  9275 0001:000578AB  9277 0001:000578AF
  9278 0001:000578BD  9280 0001:000578C1  9281 0001:000578C4  9282 0001:000578D2
  9284 0001:000578D6  9285 0001:000578E3  9289 0001:000578EF  9291 0001:00057920
  9292 0001:00057939  9293 0001:00057964  9295 0001:00057972  9296 0001:00057982
  9297 0001:00057992  9298 0001:000579A2  9299 0001:000579B2  9300 0001:000579C2
  9303 0001:000579DE  9308 0001:000579E7  9309 0001:00057A23  9312 0001:00057A25
  9314 0001:00057A50  9318 0001:00057A8E  9319 0001:00057A9C  9321 0001:00057AFC
  9322 0001:00057B1D  9323 0001:00057B22  9326 0001:00057BEE  9327 0001:00057BF8
  9328 0001:00057C00  9329 0001:00057C15  9330 0001:00057C30  9331 0001:00057C4B
  9332 0001:00057C66  9333 0001:00057C81  9334 0001:00057C9C  9335 0001:00057CB7
  9336 0001:00057CD2  9337 0001:00057CED  9339 0001:00057D13  9340 0001:00057D2E
  9342 0001:00057D49  9345 0001:00057D81  9346 0001:00057D9F  9347 0001:00057DBD
  9348 0001:00057DDB  9350 0001:00057E00  9353 0001:00057E3E  9355 0001:00057E4B
  9356 0001:00057E61  9357 0001:00057E77  9358 0001:00057E97  9359 0001:00057EB7
  9361 0001:00057ECB  9364 0001:00057EF2  9365 0001:00057F03  9367 0001:00057F34
  9368 0001:00057F3B  9369 0001:00057F65  9372 0001:00057F83  9373 0001:00057F87
  9374 0001:00057F92  9376 0001:00057FA3  9377 0001:00057FB2  9379 0001:00057FD6
  9380 0001:00057FE9  9382 0001:00057FF2  9383 0001:00057FF6  9385 0001:00058027
  9386 0001:0005802B  9391 0001:0005805E  9392 0001:00058071  9394 0001:00058084
  9396 0001:00058096  9397 0001:0005809A  9399 0001:000580D4  9400 0001:000580DC
  9401 0001:000580E4  9404 0001:00058129  9406 0001:00058151  9408 0001:0005817E
  9409 0001:0005818A  9411 0001:00058198  9412 0001:000581AB  9413 0001:000581C5
  9415 0001:000581D7  9416 0001:000581DB  9418 0001:00058212  9419 0001:00058216
  9420 0001:00058230  9421 0001:00058247  9423 0001:00058268  9427 0001:00058270
  9428 0001:00058283  9431 0001:00058296  9434 0001:000582B8  9436 0001:000582CD
  9437 0001:000582D1  9439 0001:00058309  9440 0001:00058323  9441 0001:00058334
  9443 0001:0005835A  9444 0001:00058366  9449 0001:000583AB  9450 0001:000583BE
  9452 0001:000583D1  9453 0001:000583D5  9454 0001:000583E7  9456 0001:00058415
  9457 0001:00058423  9458 0001:00058439  9460 0001:0005845A  9461 0001:00058461
  9462 0001:00058473  9465 0001:000584A0  9467 0001:000584CB  9469 0001:000584EC
  9471 0001:0005851C  9473 0001:00058536  9474 0001:00058546  9475 0001:00058558
  9476 0001:0005855F  9477 0001:0005856E  9478 0001:00058576  9483 0001:00058583
  9486 0001:0005858D  9487 0001:00058595  9488 0001:0005859D  9489 0001:000585A2
  9490 0001:000585AD  9494 0001:000585BD  9495 0001:000585C4  9496 0001:000585D0
  9497 0001:000585EB  9498 0001:000585F8  9502 0001:0005860D  9504 0001:0005861A
  9505 0001:00058621  9510 0001:0005862D  9511 0001:00058638  9513 0001:00058645
  9514 0001:0005864C  9519 0001:00058658  9520 0001:0005865F  9524 0001:0005866B
  9525 0001:00058670  9528 0001:000586A8  9530 0001:000586B5  9531 0001:000586BC
  9532 0001:000586C3  9533 0001:000586CA  9538 0001:000586DE  9539 0001:000586E5
  9540 0001:000586EC  9541 0001:000586F3  9545 0001:00058707  9546 0001:0005870E
  9548 0001:00058715  9552 0001:00058721  9553 0001:0005873E  9555 0001:00058745
  9559 0001:00058751  9560 0001:00058758  9561 0001:00058762  9563 0001:0005876F
  9564 0001:00058776  9571 0001:00058782  9572 0001:00058789  9573 0001:00058794
  9574 0001:000587A3  9575 0001:000587B1  9576 0001:000587DD  9577 0001:00058809
  9578 0001:00058821  9580 0001:00058835  9585 0001:00058850  9587 0001:00058860
  9588 0001:0005886B  9592 0001:00058875  9596 0001:0005890C  9598 0001:0005891D
  9600 0001:0005892E  9602 0001:00058930  9604 0001:00058957  9605 0001:0005895E
  9606 0001:0005896B  9607 0001:00058979  9608 0001:00058983  9609 0001:0005898A
  9611 0001:0005899A  9612 0001:0005899C  9613 0001:000589A3  9614 0001:000589A8
  9616 0001:000589C9  9617 0001:000589CE  9619 0001:000589EF  9621 0001:000589F4
  9622 0001:000589FB  9625 0001:00058A30  9627 0001:00058A35  9629 0001:00058A3C
  9630 0001:00058A4F  9634 0001:00058A84  9636 0001:00058A89  9637 0001:00058A8E
  9638 0001:00058A98  9640 0001:00058A9B  9642 0001:00058AA4  9643 0001:00058AB0
  9644 0001:00058AB3  9646 0001:00058ABA  9648 0001:00058ACF  9649 0001:00058AD6
  9651 0001:00058AE7  9652 0001:00058AF2  9671 0001:00058B74  9673 0001:00058B81
  9674 0001:00058B91  9676 0001:00058BA6  9678 0001:00058BB4  9679 0001:00058BBC
  9680 0001:00058BC4  9686 0001:00058BCC  9688 0001:00058BDB  9689 0001:00058BE5
  9692 0001:00058BFA  9693 0001:00058C04  9696 0001:00058C0E  9697 0001:00058C1E
  9698 0001:00058C24  9699 0001:00058C2A  9700 0001:00058C30  9703 0001:00058C36
  9704 0001:00058C40  9705 0001:00058C44  9706 0001:00058C49  9707 0001:00058C4C
  9708 0001:00058C5E  9710 0001:00058C68  9711 0001:00058C88  9712 0001:00058C8D
  9715 0001:00058CDB  9716 0001:00058CEB  9717 0001:00058CF3  9718 0001:00058CFB
  9720 0001:00058D20  9721 0001:00058D3B  9722 0001:00058D50  9724 0001:00058D54
  9725 0001:00058D61  9729 0001:00058D6E  9730 0001:00058D7B  9735 0001:00058D99
  9736 0001:00058DA8  9737 0001:00058DAD  9741 0001:00058DBD  9745 0001:00058DC9
  9746 0001:00058DD0  9747 0001:00058DDA  9748 0001:00058DE5  9749 0001:00058DF2
  9750 0001:00058E00  9752 0001:00058E23  9757 0001:00058E3E  9760 0001:00058E4B
  9763 0001:00058E76  9765 0001:00058EAC  9766 0001:00058EB2  9767 0001:00058EB9
  9768 0001:00058EC7  9769 0001:00058ED0  9771 0001:00058EF3  9773 0001:00058F21
  9775 0001:00058F30  9778 0001:00058F40  9779 0001:00058F4A  9781 0001:00058F58
  9785 0001:00058F94  9786 0001:00058F9B  9791 0001:00058F9D  9794 0001:00058FAF
  9796 0001:00058FC2  9797 0001:00058FC6  9798 0001:00058FCF  9801 0001:00058FD7
  9802 0001:00058FDE  9804 0001:00058FE4  9820 0001:00058FE8  9821 0001:00058FF1
  9822 0001:00058FF7  9823 0001:00058FFE  9824 0001:00059005  9825 0001:0005900C
  9826 0001:00059013  9827 0001:00059016  9833 0001:0005901C  9834 0001:00059029
  9835 0001:0005902B  9837 0001:00059034  9839 0001:0005903B  9840 0001:0005903D
  9842 0001:00059042  9843 0001:00059046  9845 0001:0005904F  9840 0001:00059051
  9847 0001:00059054  9848 0001:00059056  9837 0001:0005905A  9849 0001:00059062
  9851 0001:00059069  9852 0001:00059075  9851 0001:00059093  9853 0001:00059096
  9854 0001:00059098  9857 0001:000590A0  9858 0001:000590B1  9859 0001:000590BF
  9860 0001:000590C9  9861 0001:000590CC  9862 0001:000590D2  9863 0001:000590D5
  9864 0001:000590E7  9877 0001:000590F8  9878 0001:00059105  9879 0001:0005910F
  9880 0001:00059122  9881 0001:00059137  9882 0001:00059146  9883 0001:0005915B
  9884 0001:00059172  9885 0001:00059185  9888 0001:0005918C  9889 0001:00059196
  9890 0001:00059198  9893 0001:0005919D  9894 0001:000591A6  9896 0001:000591AC
  9897 0001:000591BE  9898 0001:000591C4  9891 0001:000591CB  9901 0001:000591D1
  9903 0001:000591D4  9904 0001:000591E8  9905 0001:000591FD  9907 0001:00059204
  9908 0001:00059212  9909 0001:00059224  9910 0001:00059228  9911 0001:00059237
  9912 0001:00059245  9905 0001:0005924B  9917 0001:00059250  9918 0001:00059264
  9919 0001:0005926A  9915 0001:00059274  9921 0001:00059284  9922 0001:00059291
  9923 0001:000592A8  9962 0001:000592B0  9963 0001:000592B7  9964 0001:000592B9
  9963 0001:000592D3  9965 0001:000592D8  9966 0001:000592E4  9967 0001:000592E8
  9973 0001:000592EC  9974 0001:000592FC  9976 0001:00059304  9978 0001:00059309
  9980 0001:00059314  9981 0001:00059322  9982 0001:0005932F  9983 0001:0005933C
  9985 0001:00059357  9986 0001:0005935E  9987 0001:00059365  9989 0001:00059370
  9991 0001:00059377  9995 0001:0005937E  9997 0001:00059380  9998 0001:00059388
 10000 0001:00059397  9995 0001:00059398 10001 0001:0005939D 10015 0001:000593A4
 10016 0001:000593B1 10017 0001:000593BD 10018 0001:000593C2 10019 0001:000593C7
 10020 0001:000593CC 10021 0001:000593D1 10022 0001:000593DF 10023 0001:000593E7
 10025 0001:000593EB 10026 0001:000593F0 10030 0001:000593F7 10031 0001:000593FD
 10033 0001:00059400 10035 0001:00059408 10037 0001:0005941A 10038 0001:0005941F
 10040 0001:0005942E 10042 0001:00059435 10043 0001:0005943A 10044 0001:00059443
 10045 0001:0005944C 10050 0001:00059457 10051 0001:0005945E 10054 0001:0005949D
 10057 0001:000594C4 10063 0001:000594CC 10065 0001:000594D8 10066 0001:000594DF
 10069 0001:000594EA 10070 0001:000594ED 10072 0001:000594F3 10073 0001:000594F5
 10074 0001:000594FA 10075 0001:000594FF 10077 0001:00059504 10079 0001:00059506
 10081 0001:0005950E 10082 0001:00059511 10083 0001:00059517 10084 0001:0005951D
 10085 0001:00059523 10086 0001:00059531 10087 0001:00059537 10089 0001:0005953A
 10077 0001:0005953B 10091 0001:00059540 10092 0001:00059543 10093 0001:00059546
 10094 0001:0005954C 10095 0001:00059552 10096 0001:0005955B 10108 0001:00059564
 10109 0001:00059565 10110 0001:0005956A 10111 0001:0005956F 10112 0001:00059570
 10113 0001:0005957B 10114 0001:00059587 10116 0001:0005958C 10117 0001:0005959A
 10118 0001:000595A5 10119 0001:000595AD 10120 0001:000595BB 10123 0001:000595CA
 10124 0001:000595D1 10125 0001:000595DA 10126 0001:000595E3 10127 0001:000595E9
 10128 0001:000595EF 10131 0001:000595F4 10132 0001:000595FE 10133 0001:0005960C
 10135 0001:00059626 10136 0001:00059639 10137 0001:0005963C 10138 0001:00059659
 10140 0001:0005966C 10141 0001:00059678 10142 0001:0005969E 10143 0001:000596C0
 10138 0001:000596C3 10144 0001:000596C6 10133 0001:000596C9 10146 0001:000596DF
 10149 0001:000596FF 10151 0001:0005970F 10152 0001:00059718 10153 0001:00059727
 10154 0001:0005972C 10155 0001:00059731 10157 0001:00059740 10158 0001:0005974F
 10159 0001:00059756 10160 0001:0005975E 10162 0001:00059770 10163 0001:00059780
 10165 0001:00059788 10166 0001:00059794 10167 0001:000597A0 10168 0001:000597AA
 10169 0001:000597B8 10172 0001:000597CA 10173 0001:000597D4 10174 0001:000597DD
 10175 0001:000597E6 10176 0001:000597EF 10178 0001:000597F8 10179 0001:00059815
 10180 0001:00059822 10181 0001:00059831 10182 0001:00059848 10183 0001:00059852
 10184 0001:00059860 10185 0001:0005986A 10188 0001:00059899 10191 0001:000598B7
 10193 0001:000598C8 10194 0001:000598CB 10207 0001:000598D0 10208 0001:000598D9
 10209 0001:000598E9 10211 0001:000598EE 10213 0001:000598F7 10214 0001:00059901
 10215 0001:00059914 10216 0001:00059923 10217 0001:00059928 10221 0001:0005992F
 10222 0001:00059939 10223 0001:00059946 10225 0001:0005996A 10226 0001:00059979
 10227 0001:0005997F 10229 0001:00059985 10230 0001:00059995 10231 0001:000599A5
 10232 0001:000599AB 10233 0001:000599B3 10234 0001:000599BE 10235 0001:000599C8
 10236 0001:000599DB 10237 0001:000599EE 10238 0001:00059A07 10239 0001:00059A23
 10240 0001:00059A37 10241 0001:00059A45 10242 0001:00059A4C 10243 0001:00059A53
 10245 0001:00059A65 10246 0001:00059A71 10247 0001:00059A7F 10248 0001:00059A84
 10250 0001:00059AA0 10252 0001:00059AA5 10253 0001:00059AB0 10254 0001:00059AC3
 10257 0001:00059ACC 10260 0001:00059AD3 10262 0001:00059B01 10264 0001:00059B14
 10265 0001:00059B26 10266 0001:00059B33 10267 0001:00059B41 10268 0001:00059B54
 10269 0001:00059B57 10270 0001:00059B5A 10271 0001:00059B5D 10272 0001:00059B60
 10274 0001:00059B80 10277 0001:00059B91 10278 0001:00059B9A 10279 0001:00059BA0
 10280 0001:00059BA6 10281 0001:00059BB5 10282 0001:00059BC3 10283 0001:00059BC9
 10285 0001:00059BDC 10286 0001:00059BE5 10288 0001:00059BF6 10290 0001:00059C26
 10292 0001:00059C3D 10317 0001:00059C44 10318 0001:00059C4D 10319 0001:00059C63
 10320 0001:00059C70 10321 0001:00059C83 10322 0001:00059C96 10323 0001:00059CB6
 10324 0001:00059CC9 10325 0001:00059CE8 10326 0001:00059CFB 10328 0001:00059D00
 10329 0001:00059D14 10330 0001:00059D16 10331 0001:00059D1F 10332 0001:00059D2C
 10333 0001:00059D2E 10335 0001:00059D3C 10340 0001:00059D4E 10341 0001:00059D58
 10342 0001:00059D63 10343 0001:00059D6E 10344 0001:00059D77 10345 0001:00059D80
 10346 0001:00059D88 10350 0001:00059D9B 10351 0001:00059DA8 10353 0001:00059DB6
 10354 0001:00059DDB 10355 0001:00059DEA 10356 0001:00059DF8 10357 0001:00059E02
 10358 0001:00059E0C 10359 0001:00059E13 10360 0001:00059E1A 10361 0001:00059E24
 10363 0001:00059E36 10364 0001:00059E40 10365 0001:00059E50 10367 0001:00059E52
 10368 0001:00059E5B 10369 0001:00059E66 10371 0001:00059E6A 10373 0001:00059E76
 10374 0001:00059E83 10375 0001:00059E89 10377 0001:00059E9B 10378 0001:00059EA0
 10379 0001:00059EA1 10380 0001:00059EA7 10381 0001:00059EA8 10382 0001:00059EAE
 10383 0001:00059EAF 10375 0001:00059EB2 10384 0001:00059EB5 10386 0001:00059EC1
 10387 0001:00059ED0 10388 0001:00059EE2 10389 0001:00059EF1 10390 0001:00059F03
 10391 0001:00059F16 10392 0001:00059F21 10393 0001:00059F29 10394 0001:00059F30
 10395 0001:00059F3C 10396 0001:00059F44 10397 0001:00059F54 10399 0001:00059F71
 10402 0001:00059F90 10404 0001:00059FA3 10409 0001:00059FDC 10410 0001:00059FE5
 10412 0001:00059FE9 10413 0001:00059FF8 10414 0001:0005A006 10415 0001:0005A00E
 10416 0001:0005A01C 10418 0001:0005A035 10421 0001:0005A053 10423 0001:0005A063
 10427 0001:0005A06C 10428 0001:0005A080 10429 0001:0005A08B 10430 0001:0005A096
 10431 0001:0005A0A7 10482 0001:0005A0A8 10483 0001:0005A0B1 10485 0001:0005A0B4
 10486 0001:0005A14C 10488 0001:0005A153 10489 0001:0005A169 10491 0001:0005A174
 10492 0001:0005A190 10493 0001:0005A1AC 10494 0001:0005A1BE 10495 0001:0005A1CC
 10497 0001:0005A1E3 10499 0001:0005A20E 10500 0001:0005A224 10502 0001:0005A22A
 10504 0001:0005A255 10506 0001:0005A26B 10509 0001:0005A287 10511 0001:0005A29B
 10512 0001:0005A2A4 10513 0001:0005A2B4 10515 0001:0005A2C1 10516 0001:0005A2D4
 10517 0001:0005A2EB 10518 0001:0005A302 10521 0001:0005A324 10522 0001:0005A333
 10524 0001:0005A345 10527 0001:0005A34D 10528 0001:0005A36E 10530 0001:0005A37B
 10532 0001:0005A389 10533 0001:0005A391 10534 0001:0005A3A3 10535 0001:0005A3B1
 10536 0001:0005A3BC 10535 0001:0005A3CC 10537 0001:0005A3CF 10539 0001:0005A3D5
 10540 0001:0005A3E7 10539 0001:0005A409 10542 0001:0005A40C 10543 0001:0005A425
 10545 0001:0005A46B 10546 0001:0005A48C 10547 0001:0005A4A1 10548 0001:0005A4DD
 10549 0001:0005A4F9 10550 0001:0005A504 10551 0001:0005A51D 10552 0001:0005A536
 10553 0001:0005A53C 10542 0001:0005A53D 10555 0001:0005A551 10558 0001:0005A564
 10559 0001:0005A583 10560 0001:0005A59F 10561 0001:0005A5AD 10562 0001:0005A5D0
 10564 0001:0005A5E9 10566 0001:0005A5FB 10567 0001:0005A608 10569 0001:0005A646
 10572 0001:0005A69E 10562 0001:0005A69F 10574 0001:0005A6A6 10575 0001:0005A6B8
 10576 0001:0005A6D7 10577 0001:0005A6E5 10578 0001:0005A6F1 10579 0001:0005A702
 10580 0001:0005A70B 10582 0001:0005A719 10583 0001:0005A721 10585 0001:0005A72D
 10586 0001:0005A732 10587 0001:0005A741 10588 0001:0005A744 10589 0001:0005A762
 10590 0001:0005A777 10592 0001:0005A797 10593 0001:0005A7B3 10597 0001:0005A7E9
 10599 0001:0005A801 10603 0001:0005A815 10606 0001:0005A821 10609 0001:0005A82D
 10611 0001:0005A844 10613 0001:0005A857 10618 0001:0005AA28 10619 0001:0005AA37
 10620 0001:0005AA46 10621 0001:0005AA54 10622 0001:0005AA68 10624 0001:0005AA92
 10626 0001:0005AAA2 10636 0001:0005AAD0 10637 0001:0005AAF3 10639 0001:0005AB0E
 10640 0001:0005AB15 10642 0001:0005AB1A 10643 0001:0005AB29 10644 0001:0005AB37
 10645 0001:0005AB41 10646 0001:0005AB58 10647 0001:0005AB73 10648 0001:0005AB8B
 10649 0001:0005AB9D 10650 0001:0005ABA6 10651 0001:0005ABB0 10652 0001:0005ABB9
 10653 0001:0005ABC4 10655 0001:0005ABCB 10656 0001:0005ABD9 10657 0001:0005ABDC
 10658 0001:0005ABF2 10659 0001:0005ABF5 10653 0001:0005ABF8 10661 0001:0005ABFB
 10663 0001:0005AC1A 10665 0001:0005AC2A 10672 0001:0005AC64 10673 0001:0005AC6D
 10675 0001:0005AC76 10678 0001:0005AC86 10680 0001:0005AC8C 10681 0001:0005AC95
 10676 0001:0005AC9E 10686 0001:0005ACC2 10688 0001:0005ACC7 10691 0001:0005ACD0
 10692 0001:0005ACF7 10694 0001:0005AD00 10695 0001:0005AD05 10698 0001:0005AD5A
 10700 0001:0005AD7A 10702 0001:0005AD7F 10705 0001:0005ADC4 10706 0001:0005ADC7
 10708 0001:0005ADD0 10709 0001:0005ADD5 10711 0001:0005ADF4 10713 0001:0005ADF9
 10716 0001:0005ADFC 10717 0001:0005ADFF 10719 0001:0005AE07 10721 0001:0005AE10
 10722 0001:0005AE15 10723 0001:0005AE1B 10724 0001:0005AE3B 10726 0001:0005AE40
 10730 0001:0005AE44 10731 0001:0005AE4A 10732 0001:0005AE54 10736 0001:0005AE58
 10738 0001:0005AE61 10739 0001:0005AE66 10740 0001:0005AE7A 10742 0001:0005AE7F
 10747 0001:0005AE80 10748 0001:0005AE83 10749 0001:0005AE8F 10764 0001:0005AE94
 10765 0001:0005AE9C 10766 0001:0005AEA8 10767 0001:0005AEC7 10768 0001:0005AED7
 10771 0001:0005AEDC 10772 0001:0005AEDF 10773 0001:0005AEE6 10774 0001:0005AEF2
 10777 0001:0005AEF4 10778 0001:0005AEF7 10779 0001:0005AF00 10780 0001:0005AF16
 10783 0001:0005AF18 10784 0001:0005AF1B 10785 0001:0005AF2D 10786 0001:0005AF33
 10787 0001:0005AF41 10792 0001:0005AF44 10793 0001:0005AF63 10795 0001:0005AF7E
 10796 0001:0005AF85 10799 0001:0005AF8A 10800 0001:0005AF94 10801 0001:0005AFC7
 10803 0001:0005AFD4 10811 0001:0005B041 10817 0001:0005B1A0 10818 0001:0005B1BE
 10819 0001:0005B1C6 10820 0001:0005B1D5 10821 0001:0005B1E3 10823 0001:0005B1EC
 10824 0001:0005B201 10823 0001:0005B21D 10826 0001:0005B220 10827 0001:0005B231
 10826 0001:0005B23E 10828 0001:0005B241 10829 0001:0005B253 10828 0001:0005B27A
 10831 0001:0005B28A 10833 0001:0005B29A 10836 0001:0005B2C4 10837 0001:0005B2FC
 10838 0001:0005B301 10839 0001:0005B314 10840 0001:0005B319 10842 0001:0005B344
 10843 0001:0005B3CD 10845 0001:0005B3DB 10846 0001:0005B3F2 10847 0001:0005B410
 10848 0001:0005B41E 10849 0001:0005B423 10850 0001:0005B42A 10851 0001:0005B42F
 10852 0001:0005B43A 10853 0001:0005B45C 10855 0001:0005B493 10856 0001:0005B49E
 10857 0001:0005B4A9 10858 0001:0005B4B8 10859 0001:0005B4BC 10860 0001:0005B4DD
 10863 0001:0005B4EA 10873 0001:0005B525 10875 0001:0005B539 10876 0001:0005B550
 10882 0001:0005B5DD 10883 0001:0005B5F4 10890 0001:0005B718 10891 0001:0005B72F
 10900 0001:0005B7D7 10903 0001:0005B84C 10904 0001:0005B853 10905 0001:0005B87B
 10907 0001:0005B88F 10910 0001:0005B8AE 10911 0001:0005B8B2 10913 0001:0005B8C3
 10921 0001:0005BBC4 10922 0001:0005BC50 10923 0001:0005BC54 10924 0001:0005BC5A
 10925 0001:0005BC60 10926 0001:0005BC76 10927 0001:0005BC8C 10928 0001:0005BC9B
 10929 0001:0005BCA9 10932 0001:0005BCB7 10933 0001:0005BCCB 10934 0001:0005BCD8
 10936 0001:0005BCEE 10937 0001:0005BCF5 10938 0001:0005BCFD 10940 0001:0005BD03
 10941 0001:0005BD1A 10942 0001:0005BD37 10943 0001:0005BD3F 10945 0001:0005BD47
 10946 0001:0005BD54 10949 0001:0005BD9B 10934 0001:0005BD9C 10952 0001:0005BDB2
 10953 0001:0005BDB6 10956 0001:0005BDD4 10958 0001:0005BDE4 10959 0001:0005BDE9
 10964 0001:0005BE7C 10965 0001:0005BE95 10966 0001:0005BEA0 10967 0001:0005BEA3
 10971 0001:0005BEC4 10972 0001:0005BECD 10977 0001:0005BED0 10978 0001:0005BEF5
 10981 0001:0005BF01 10982 0001:0005BF08 10984 0001:0005BF21 10987 0001:0005BF3A
 10988 0001:0005BF51 10991 0001:0005BF79 11007 0001:0005BFA8 11008 0001:0005BFC3
 11009 0001:0005BFC8 11010 0001:0005C003 11012 0001:0005C038 11013 0001:0005C052
 11015 0001:0005C064 11016 0001:0005C073 11017 0001:0005C081 11018 0001:0005C0AF
 11019 0001:0005C0BD 11020 0001:0005C0CB 11023 0001:0005C0ED 11025 0001:0005C0FF
 11027 0001:0005C10F 11030 0001:0005C148 11031 0001:0005C14B 11032 0001:0005C159
 11034 0001:0005C16D 11035 0001:0005C174 11039 0001:0005C188 11040 0001:0005C19B
 11054 0001:0005C19C 11055 0001:0005C1C3 11056 0001:0005C1CA 11057 0001:0005C1E1
 11058 0001:0005C205 11060 0001:0005C221 11056 0001:0005C24D 11061 0001:0005C250
 11063 0001:0005C288 11064 0001:0005C2CD 11065 0001:0005C2E3 11066 0001:0005C2F9
 11067 0001:0005C30E 11068 0001:0005C324 11069 0001:0005C333 11070 0001:0005C342
 11071 0001:0005C349 11072 0001:0005C350 11073 0001:0005C356 11074 0001:0005C369
 11076 0001:0005C3C4 11077 0001:0005C3D8 11080 0001:0005C405 11082 0001:0005C409
 11083 0001:0005C40B 11084 0001:0005C410 11085 0001:0005C41B 11086 0001:0005C425
 11087 0001:0005C42D 11088 0001:0005C431 11089 0001:0005C443 11090 0001:0005C44B
 11091 0001:0005C450 11092 0001:0005C460 11093 0001:0005C469 11096 0001:0005C474
 11097 0001:0005C491 11101 0001:0005C540 11103 0001:0005C551 11105 0001:0005C562
 11109 0001:0005C564 11111 0001:0005C575 11113 0001:0005C586 11117 0001:0005C588
 11119 0001:0005C599 11121 0001:0005C5AA 11125 0001:0005C5AC 11127 0001:0005C5BD
 11129 0001:0005C5CE 11133 0001:0005C5D0 11135 0001:0005C5E1 11137 0001:0005C5F2
 11141 0001:0005C5F4 11143 0001:0005C605 11145 0001:0005C616 11151 0001:0005C618
 11152 0001:0005C63C 11154 0001:0005C64B 11155 0001:0005C65D 11156 0001:0005C66B
 11157 0001:0005C67D 11156 0001:0005C6B1 11159 0001:0005C6C3 11161 0001:0005C6D3
 11164 0001:0005C6FC 11165 0001:0005C717 11167 0001:0005C75C 11175 0001:0005C784
 11176 0001:0005C7C5 11177 0001:0005C7D7 11178 0001:0005C7E5 11179 0001:0005C7F2
 11180 0001:0005C7F7 11183 0001:0005C820 11184 0001:0005C831 11185 0001:0005C840
 11187 0001:0005C84B 11188 0001:0005C85B 11189 0001:0005C873 11188 0001:0005C8AA
 11191 0001:0005C8BA 11193 0001:0005C8CD 11196 0001:0005C91C 11197 0001:0005C941
 11198 0001:0005C943 11200 0001:0005C946 11202 0001:0005C950 11205 0001:0005C959
 11206 0001:0005C95C 11207 0001:0005C96F 11208 0001:0005C982 11209 0001:0005C995
 11210 0001:0005C99E 11214 0001:0005C9E0 11215 0001:0005C9F3 11224 0001:0005CA5F
 11225 0001:0005CA6D 11228 0001:0005CA86 11229 0001:0005CA8D 11230 0001:0005CA92
 11231 0001:0005CA9C 11233 0001:0005CAA9 11235 0001:0005CAAC 11237 0001:0005CAB6
 11247 0001:0005CAE4 11248 0001:0005CB11 11250 0001:0005CB19 11251 0001:0005CB1E
 11254 0001:0005CB3F 11255 0001:0005CB67 11257 0001:0005CB6F 11259 0001:0005CBAC
 11260 0001:0005CBB3 11269 0001:0005CC58 11270 0001:0005CC7A 11272 0001:0005CC84
 11273 0001:0005CC9A 11276 0001:0005CCAF 11277 0001:0005CCBF 11279 0001:0005CCC5
 11280 0001:0005CCC9 11284 0001:0005CCD8 11285 0001:0005CCDC 11287 0001:0005CCE9
 11288 0001:0005CCF8 11289 0001:0005CD06 11290 0001:0005CD1A 11289 0001:0005CD40
 11291 0001:0005CD43 11292 0001:0005CD51 11297 0001:0005CD9D 11298 0001:0005CDA2
 11301 0001:0005CDBA 11303 0001:0005CDCA 11304 0001:0005CDCF 11305 0001:0005CDE3
 11306 0001:0005CDEA 11312 0001:0005CE40 11313 0001:0005CE5F 11314 0001:0005CE75
 11316 0001:0005CE8A 11317 0001:0005CE99 11318 0001:0005CEA7 11319 0001:0005CEBB
 11318 0001:0005CEE1 11320 0001:0005CEE4 11323 0001:0005CF30 11325 0001:0005CF40
 11326 0001:0005CF45 11327 0001:0005CF59 11328 0001:0005CF60 11341 0001:0005CF98
 11342 0001:0005CFAF 11343 0001:0005CFB8 11344 0001:0005CFC5 11345 0001:0005CFC7
 11346 0001:0005CFD5 11351 0001:0005CFE0 11352 0001:0005CFFF 11354 0001:0005D00A
 11355 0001:0005D03D 11356 0001:0005D04E 11357 0001:0005D05F 11358 0001:0005D070
 11359 0001:0005D081 11360 0001:0005D092 11362 0001:0005D0A1 11364 0001:0005D0E3
 11366 0001:0005D0EF 11367 0001:0005D0F6 11372 0001:0005D15C 11373 0001:0005D178
 11374 0001:0005D197 11375 0001:0005D1B9 11376 0001:0005D1DB 11377 0001:0005D1FD
 11379 0001:0005D280 11380 0001:0005D2A0 11381 0001:0005D2A2 11382 0001:0005D2C1
 11384 0001:0005D2C9 11385 0001:0005D2D8 11386 0001:0005D2E6 11387 0001:0005D2F4
 11388 0001:0005D302 11389 0001:0005D310 11390 0001:0005D318 11392 0001:0005D359
 11395 0001:0005D38F 11396 0001:0005D3A9 11397 0001:0005D3B1 11398 0001:0005D3B9
 11401 0001:0005D3BF 11402 0001:0005D3CE 11403 0001:0005D3DC 11404 0001:0005D3E6
 11406 0001:0005D3F4 11407 0001:0005D3FC 11415 0001:0005D489 11417 0001:0005D499
 11418 0001:0005D49E 11422 0001:0005D4AD 11423 0001:0005D4E9 11425 0001:0005D4F3
 11427 0001:0005D50C 11429 0001:0005D51C 11430 0001:0005D525 11432 0001:0005D55C
 11433 0001:0005D57D 11434 0001:0005D57F 11436 0001:0005D586 11438 0001:0005D590
 11440 0001:0005D59D 11442 0001:0005D59F 11443 0001:0005D5A6 11444 0001:0005D5B9
 11445 0001:0005D5DC 11446 0001:0005D5E9 11447 0001:0005D5F9 11448 0001:0005D609
 11450 0001:0005D625 11452 0001:0005D637 11453 0001:0005D63D 11455 0001:0005D646
 11456 0001:0005D64D 11457 0001:0005D656 11458 0001:0005D660 11460 0001:0005D66D
 11462 0001:0005D677 11467 0001:0005D6AC 11468 0001:0005D6CE 11470 0001:0005D6D9
 11472 0001:0005D6E3 11475 0001:0005D6E7 11476 0001:0005D70A 11473 0001:0005D70B
 11479 0001:0005D717 11480 0001:0005D732 11481 0001:0005D744 11483 0001:0005D770
 11484 0001:0005D794 11485 0001:0005D798 11486 0001:0005D79F 11487 0001:0005D7A9
 11488 0001:0005D7B3 11489 0001:0005D7B8 11490 0001:0005D7BD 11491 0001:0005D7CB
 11492 0001:0005D7D5 11493 0001:0005D7E3 11494 0001:0005D7E8 11495 0001:0005D7F6
 11497 0001:0005D7F8 11499 0001:0005D803 11500 0001:0005D80A 11501 0001:0005D815
 11504 0001:0005D81E 11506 0001:0005D829 11507 0001:0005D83F 11508 0001:0005D846
 11509 0001:0005D851 11512 0001:0005D85A 11514 0001:0005D869 11516 0001:0005D873
 11519 0001:0005D884 11523 0001:0005D8C0 11529 0001:0005D8F6 11532 0001:0005D905
 11533 0001:0005D92C 11536 0001:0005D947 11538 0001:0005D964 11541 0001:0005D989
 11544 0001:0005D9B7 11546 0001:0005D9CF 11551 0001:0005DA04 11552 0001:0005DA05
 11555 0001:0005DA1C 11557 0001:0005DA2B 11558 0001:0005DA3B 11559 0001:0005DA3F
 11560 0001:0005DA48 11562 0001:0005DA51 11563 0001:0005DA56 11572 0001:0005DA58
 11574 0001:0005DA71 11576 0001:0005DA81 11578 0001:0005DAA0 11581 0001:0005DB11
 11583 0001:0005DB22 11587 0001:0005DB58 11588 0001:0005DB62 11589 0001:0005DB69
 11593 0001:0005DB6C 11594 0001:0005DB75 11600 0001:0005DB86 11607 0001:0005DB88
 11608 0001:0005DB8B 11609 0001:0005DB95 11610 0001:0005DBA3 11611 0001:0005DBA8
 11612 0001:0005DBAD 11613 0001:0005DBB2 11614 0001:0005DBB7 11616 0001:0005DBCE
 11618 0001:0005DBE0 11626 0001:0005DBE4 11627 0001:0005DBEA 11629 0001:0005DBEE
 11630 0001:0005DC0F 11631 0001:0005DC22 11633 0001:0005DC34 11634 0001:0005DC52
 11635 0001:0005DC5A 11636 0001:0005DC7C 11637 0001:0005DC94 11638 0001:0005DCAC
 11643 0001:0005DCD4 11644 0001:0005DCDB 11645 0001:0005DCEA 11647 0001:0005DCF1
 11648 0001:0005DCFA 11650 0001:0005DCFE 11652 0001:0005DD12 11655 0001:0005DD21
 11663 0001:0005DD28 11664 0001:0005DD4D 11665 0001:0005DD54 11666 0001:0005DD5F
 11668 0001:0005DD6C 11669 0001:0005DD7A 11670 0001:0005DD83 11675 0001:0005DDBA
 11677 0001:0005DDE0 11678 0001:0005DDF1 11681 0001:0005DE3C 11683 0001:0005DE3F
 11693 0001:0005DE44 11694 0001:0005DE63 11696 0001:0005DE76 11697 0001:0005DE85
 11699 0001:0005DE8F 11700 0001:0005DE97 11701 0001:0005DE99 11702 0001:0005DE9D
 11704 0001:0005DEA2 11706 0001:0005DEB2 11707 0001:0005DEB5 11709 0001:0005DEB9
 11710 0001:0005DEBD 11712 0001:0005DEBF 11713 0001:0005DEC6 11714 0001:0005DEDB
 11702 0001:0005DEDC 11718 0001:0005DEDF 11719 0001:0005DEFE 11722 0001:0005DF14
 11736 0001:0005DF6C 11737 0001:0005DF6F 11739 0001:0005DF78 11740 0001:0005DF8B
 11742 0001:0005DF92 11744 0001:0005DFA4 11745 0001:0005DFC9 11747 0001:0005DFD1
 11750 0001:0005DFE5 11751 0001:0005DFEC 11752 0001:0005DFFD 11754 0001:0005DFFE
 11755 0001:0005E002 11756 0001:0005E003 11757 0001:0005E005 11759 0001:0005E009
 11761 0001:0005E017 11762 0001:0005E01D 11764 0001:0005E022 11757 0001:0005E023
 11766 0001:0005E027 11769 0001:0005E02B 11771 0001:0005E031 11772 0001:0005E038
 11774 0001:0005E03C 11776 0001:0005E04A 11777 0001:0005E050 11779 0001:0005E053
 11772 0001:0005E054 11784 0001:0005E058 11785 0001:0005E060 11788 0001:0005E074
 11789 0001:0005E07C 11790 0001:0005E084 11791 0001:0005E089 11792 0001:0005E08E
 11793 0001:0005E09D 11794 0001:0005E0AC 11795 0001:0005E0B6 11796 0001:0005E0C0
 11797 0001:0005E0CA 11798 0001:0005E0D4 11799 0001:0005E0DE 11800 0001:0005E0EC
 11801 0001:0005E0F0 11802 0001:0005E0F2 11804 0001:0005E0FB 11805 0001:0005E103
 11806 0001:0005E10A 11807 0001:0005E10E 11808 0001:0005E156 11809 0001:0005E166
 11810 0001:0005E194 11811 0001:0005E19F 11812 0001:0005E1DB 11814 0001:0005E1DF
 11815 0001:0005E1E6 11817 0001:0005E1F3 11818 0001:0005E200 11820 0001:0005E211
 11821 0001:0005E235 11823 0001:0005E282 11825 0001:0005E28F 11826 0001:0005E29A
 11827 0001:0005E2A5 11829 0001:0005E2B4 11831 0001:0005E2C1 11832 0001:0005E2CC
 11833 0001:0005E2F1 11837 0001:0005E2FC 11839 0001:0005E306 11840 0001:0005E30E
 11841 0001:0005E33C 11842 0001:0005E355 11843 0001:0005E376 11845 0001:0005E397
 11848 0001:0005E3A2 11851 0001:0005E3A8 11852 0001:0005E3B5 11802 0001:0005E3BA
 11856 0001:0005E3C3 11859 0001:0005E3D9 11862 0001:0005E411 11863 0001:0005E415
 11865 0001:0005E430 11866 0001:0005E454 11868 0001:0005E46A 11869 0001:0005E4A7
 11870 0001:0005E4CF 11872 0001:0005E4F1 11863 0001:0005E4F4 11874 0001:0005E4FB
 11875 0001:0005E52C 11876 0001:0005E543 11875 0001:0005E5A6 11878 0001:0005E5A9
 11880 0001:0005E5DA 11882 0001:0005E5F3 11884 0001:0005E60B 11885 0001:0005E613
 11888 0001:0005E623 11923 0001:0005E714 11928 0001:0005E717 11930 0001:0005E71E
 11933 0001:0005E720 11934 0001:0005E736 11935 0001:0005E748 11938 0001:0005E76C
 11939 0001:0005E785 11941 0001:0005E799 11942 0001:0005E7B1 11944 0001:0005E7B9
 11945 0001:0005E7D1 11947 0001:0005E7D7 11950 0001:0005E7D9 11952 0001:0005E7E7
 11953 0001:0005E7F9 11955 0001:0005E7FD 11956 0001:0005E80F 11958 0001:0005E815
 11961 0001:0005E817 11962 0001:0005E82F 11964 0001:0005E833 11965 0001:0005E84B
 11967 0001:0005E851 11972 0001:0005E87C 11973 0001:0005E8A5 11974 0001:0005E8AC
 11976 0001:0005E8BE 11977 0001:0005E8D5 11978 0001:0005E8EC 11980 0001:0005E902
 11976 0001:0005E90F 11982 0001:0005E914 11994 0001:0005E94C 11995 0001:0005E99F
 11996 0001:0005E9A9 11999 0001:0005E9C2 12000 0001:0005E9C4 12003 0001:0005E9D9
 12005 0001:0005E9DE 12006 0001:0005E9E4 12008 0001:0005E9F3 12009 0001:0005EA00
 12010 0001:0005EA06 12011 0001:0005EA15 12014 0001:0005EA3F 12018 0001:0005EAD2
 12019 0001:0005EAE2 12024 0001:0005EB88 12028 0001:0005EBE1 12031 0001:0005EC18
 12032 0001:0005EC37 12034 0001:0005EC49 12038 0001:0005EC62 12039 0001:0005EC6E
 12040 0001:0005EC8D 12042 0001:0005EC99 12043 0001:0005ECA0 12044 0001:0005ECAC
 12077 0001:0005ECFC 12078 0001:0005ED24 12080 0001:0005ED2E 12082 0001:0005ED52
 12083 0001:0005ED63 12084 0001:0005ED7D 12086 0001:0005ED86 12087 0001:0005ED94
 12088 0001:0005ED96 12083 0001:0005ED97 12090 0001:0005ED9A 12092 0001:0005EDD0
 12093 0001:0005EDEC 12094 0001:0005EDFE 12095 0001:0005EE40 12100 0001:0005EE78
 12101 0001:0005EE80 12103 0001:0005EE87 12107 0001:0005EE93 12108 0001:0005EEA6
 12109 0001:0005EEC8 12112 0001:0005EED8 12113 0001:0005EEDB 12114 0001:0005EEF5
 12120 0001:0005EEF8 12121 0001:0005EF05 12122 0001:0005EF0A 12123 0001:0005EF21
 12125 0001:0005EF35 12126 0001:0005EF3C 12132 0001:0005EF44 12133 0001:0005EF67
 12134 0001:0005EF6C 12135 0001:0005EF85 12137 0001:0005EFAA 12138 0001:0005EFB1
 12141 0001:0005EFD8 12142 0001:0005EFDE 12143 0001:0005EFEB 12146 0001:0005EFF0
 12147 0001:0005EFF6 12148 0001:0005F003 12151 0001:0005F008 12152 0001:0005F00B
 12153 0001:0005F019 12173 0001:0005F01C 12174 0001:0005F028 12175 0001:0005F031
 12176 0001:0005F044 12177 0001:0005F056 12185 0001:0005F05C 12186 0001:0005F06E
 12187 0001:0005F075 12189 0001:0005F098 12191 0001:0005F0A0 12192 0001:0005F0BB
 12193 0001:0005F0C2 12194 0001:0005F0CC 12196 0001:0005F0D3 12197 0001:0005F0D8
 12198 0001:0005F113 12199 0001:0005F11F 12201 0001:0005F125 12202 0001:0005F131
 12204 0001:0005F13D 12205 0001:0005F14A 12208 0001:0005F14F 12210 0001:0005F198
 12211 0001:0005F19B 12212 0001:0005F1A5 12213 0001:0005F1B1 12214 0001:0005F1BE
 12216 0001:0005F1C0 12217 0001:0005F1C3 12218 0001:0005F1CA 12221 0001:0005F1CC
 12222 0001:0005F1CF 12223 0001:0005F1DF 12226 0001:0005F1E4 12227 0001:0005F1E7
 12228 0001:0005F1FA 12231 0001:0005F1FC 12232 0001:0005F202 12233 0001:0005F20B
 12235 0001:0005F224 12236 0001:0005F22B 12241 0001:0005F230 12242 0001:0005F24A
 12243 0001:0005F26F 12245 0001:0005F282 12246 0001:0005F28C 12247 0001:0005F29A
 12248 0001:0005F2B0 12249 0001:0005F2D1 12254 0001:0005F314 12255 0001:0005F32C
 12256 0001:0005F351 12258 0001:0005F364 12259 0001:0005F371 12262 0001:0005F398
 12263 0001:0005F3A4 12265 0001:0005F3B3 12266 0001:0005F3C8 12268 0001:0005F3DA
 12270 0001:0005F3FC 12271 0001:0005F408 12272 0001:0005F414 12292 0001:0005F43C
 12293 0001:0005F449 12294 0001:0005F450 12297 0001:0005F457 12298 0001:0005F463
 12300 0001:0005F467 12301 0001:0005F475 12303 0001:0005F47B 12304 0001:0005F482
 12306 0001:0005F48D 12307 0001:0005F498 12308 0001:0005F4A3 12314 0001:0005F4A5
 12315 0001:0005F4AC 12316 0001:0005F4B5 12317 0001:0005F4C6 12318 0001:0005F4D7
 12324 0001:0005F508 12325 0001:0005F524 12326 0001:0005F52F 12327 0001:0005F556
 12332 0001:0005F588 12333 0001:0005F5A4 12334 0001:0005F5AF 12335 0001:0005F5D6
 12344 0001:0005F608 12345 0001:0005F630 12346 0001:0005F632 12347 0001:0005F63E
 12349 0001:0005F642 12350 0001:0005F64F 12352 0001:0005F653 12353 0001:0005F66B
 12356 0001:0005F698 12361 0001:0005F6FC 12362 0001:0005F718 12363 0001:0005F71F
 12364 0001:0005F72E 12365 0001:0005F75A 12370 0001:0005F79C 12371 0001:0005F7B8
 12372 0001:0005F7BF 12373 0001:0005F7CE 12374 0001:0005F7FA 12377 0001:0005F83C
 12378 0001:0005F83F 12379 0001:0005F852 12384 0001:0005F854 12385 0001:0005F86F
 12386 0001:0005F878 12388 0001:0005F88C 12389 0001:0005F8A5 12390 0001:0005F8C0
 12391 0001:0005F8E1 12396 0001:0005F924 12397 0001:0005F93F 12399 0001:0005F961
 12401 0001:0005F96A 12403 0001:0005F98D 12405 0001:0005F9B0 12406 0001:0005F9C0
 12407 0001:0005F9C6 12408 0001:0005F9E1 12410 0001:0005F9F2 12415 0001:0005FAC8
 12416 0001:0005FAD1 12417 0001:0005FAEB 12418 0001:0005FAF8 12423 0001:0005FB04
 12424 0001:0005FB0D 12425 0001:0005FB17 12426 0001:0005FB25 12429 0001:0005FB73
 12431 0001:0005FB86 12490 0001:0005FBA4 12491 0001:0005FBCD 12493 0001:0005FBD3
 12494 0001:0005FBDF 12497 0001:0005FBE4 12498 0001:0005FBEB 12500 0001:0005FBF8
 12501 0001:0005FC07 12503 0001:0005FC0B 12504 0001:0005FC1F 12505 0001:0005FC2E
 12506 0001:0005FC58 12508 0001:0005FC6E 12510 0001:0005FC72 12511 0001:0005FC93
 12513 0001:0005FCEC 12514 0001:0005FD0E 12515 0001:0005FD17 12517 0001:0005FD2F
 12519 0001:0005FD45 12520 0001:0005FD4B 12522 0001:0005FD4F 12523 0001:0005FD8A
 12526 0001:0005FDC5 12527 0001:0005FDCB 12528 0001:0005FDCF 12530 0001:0005FE0A
 12531 0001:0005FE0F 12533 0001:0005FE2D 12534 0001:0005FE38 12535 0001:0005FE46
 12537 0001:0005FE65 12538 0001:0005FE6A 12541 0001:0005FE75 12542 0001:0005FEB7
 12543 0001:0005FEF2 12544 0001:0005FEF3 12539 0001:0005FEF5 12546 0001:0005FF02
 12550 0001:0005FF37 12551 0001:0005FF61 12554 0001:0005FF98 12557 0001:0005FFA8
 12562 0001:00060014 12563 0001:00060031 12564 0001:00060047 12565 0001:00060076
 12567 0001:000600A8 12568 0001:000600B9 12569 0001:000600C1 12570 0001:000600C9
 12571 0001:000600D1 12572 0001:000600D9 12573 0001:000600E1 12575 0001:000600E9
 12576 0001:000600F6 12577 0001:00060100 12578 0001:0006010E 12579 0001:0006011E
 12580 0001:0006012F 12582 0001:00060139 12583 0001:0006013E 12585 0001:0006014B
 12586 0001:00060156 12587 0001:00060159 12588 0001:00060167 12590 0001:00060172
 12592 0001:00060176 12593 0001:0006017F 12590 0001:00060181 12597 0001:00060192
 12602 0001:000601AF 12604 0001:000601C0 12605 0001:000601C8 12606 0001:000601D0
 12607 0001:000601D8 12608 0001:000601E0 12609 0001:000601E8 12610 0001:000601F0
 12624 0001:0006022C 12625 0001:00060252 12626 0001:00060259 12627 0001:0006025E
 12628 0001:00060274 12630 0001:0006027E 12631 0001:00060289 12632 0001:00060297
 12634 0001:000602AF 12636 0001:000602CD 12640 0001:00060311 12641 0001:00060316
 12642 0001:0006033A 12646 0001:0006035C 12649 0001:0006036F 12667 0001:000603F4
 12668 0001:000603F6 12670 0001:00060406 12671 0001:00060413 12674 0001:00060416
 12675 0001:00060423 12678 0001:00060425 12684 0001:00060428 12685 0001:00060451
 12686 0001:00060458 12687 0001:00060478 12689 0001:00060496 12690 0001:000604A2
 12691 0001:000604B6 12692 0001:000604DB 12694 0001:000604E7 12695 0001:000604EE
 12697 0001:000604F7 12704 0001:0006051C 12705 0001:00060549 12706 0001:0006054E
 12707 0001:0006056E 12709 0001:0006058C 12710 0001:000605B6 12711 0001:000605CE
 12713 0001:000605D7 12722 0001:00060604 12723 0001:00060627 12724 0001:00060634
 12725 0001:00060642 12726 0001:00060652 12728 0001:00060663 12730 0001:00060671
 12731 0001:00060689 12732 0001:000606C3 12733 0001:000606D7 12734 0001:000606ED
 12737 0001:000606F4 12738 0001:0006070F 12735 0001:00060710 12740 0001:0006071C
 12741 0001:00060738 12745 0001:00060764 12746 0001:00060771 12747 0001:0006077E
 12749 0001:00060780 12750 0001:00060793 12752 0001:00060799 12753 0001:000607A4
 12755 0001:000607A5 12756 0001:000607AB 12757 0001:000607B6 12758 0001:000607CC
 12759 0001:000607E2 12764 0001:00060811 12765 0001:00060823 12766 0001:0006082D
 12767 0001:0006083C 12768 0001:0006084F 12770 0001:0006085D 12771 0001:00060886
 12772 0001:000608B7 12773 0001:000608E3 12775 0001:000608E9 12776 0001:00060903
 12780 0001:00060919 12781 0001:00060931 12782 0001:0006096B 12784 0001:0006097F
 12786 0001:000609AB 12790 0001:000609C3 12791 0001:000609F2 12795 0001:00060A2F
 12796 0001:00060A33 12799 0001:00060A81 12801 0001:00060ABB 12803 0001:00060ACC
 12808 0001:00060DA4 12809 0001:00060DAB 12810 0001:00060DB5 12811 0001:00060DC3
 12813 0001:00060DE2 12815 0001:00060DF5 12831 0001:00060DFC 12832 0001:00060E02
 12833 0001:00060E09 12834 0001:00060E12 12836 0001:00060E21 12837 0001:00060E2D
 12842 0001:00060E50 12843 0001:00060E59 12844 0001:00060E62 12845 0001:00060E73
 12844 0001:00060E7F 12846 0001:00060E82 12848 0001:00060E94 12849 0001:00060EB8
 12850 0001:00060EBF 12851 0001:00060ED8 12852 0001:00060EE6 12853 0001:00060EF9
 12854 0001:00060F04 12855 0001:00060F12 12857 0001:00060F31 12859 0001:00060F42
 12860 0001:00060F58 12861 0001:00060F68 12862 0001:00060F6D 12863 0001:00060F7E
 12864 0001:00060F89 12865 0001:00060FA1 12866 0001:00060FAC 12867 0001:00060FDF
 12857 0001:00060FE0 12870 0001:00060FF4 12873 0001:00061011 12875 0001:00061022
 12878 0001:00061060 12879 0001:00061063 12880 0001:00061070 12883 0001:00061074
 12884 0001:00061077 12886 0001:0006108C 12887 0001:00061091 12889 0001:000610A6
 12890 0001:000610AB 12892 0001:000610C0 12893 0001:000610DE 12936 0001:000611CC
 12937 0001:000611CD 12938 0001:000611CF 12939 0001:000611D4 12941 0001:000611D8
 12940 0001:000611D9 12942 0001:000611DE 12944 0001:000611E2 12943 0001:000611E3
 12945 0001:000611EF 12947 0001:000611F4 12948 0001:000611F7 12950 0001:000611F8
 12951 0001:000611FA 12953 0001:00061200 12955 0001:00061207 12956 0001:00061229
 12957 0001:00061234 12958 0001:00061245 12960 0001:00061260 12961 0001:00061284
 12964 0001:0006128B 12965 0001:0006129E 12968 0001:000612BA 12969 0001:000612D2
 12971 0001:000612D6 12972 0001:000612E0 12973 0001:000612F4 12976 0001:00061306
 12978 0001:00061344 12979 0001:0006135B 12980 0001:00061360 12981 0001:00061375
 12982 0001:0006137B 12983 0001:00061392 12985 0001:000613C0 12986 0001:000613E6
 12987 0001:000613ED 12988 0001:000613FA 12989 0001:00061404 12990 0001:00061412
 12991 0001:00061423 12992 0001:00061434 12993 0001:00061444 12995 0001:00061460
 12996 0001:0006146A 12997 0001:00061474 12998 0001:00061482 12999 0001:00061487
 13000 0001:0006149D 13001 0001:000614A8 13002 0001:000614B6 13003 0001:000614D4
 13006 0001:00061537 13009 0001:00061554 13013 0001:00061570 13015 0001:00061581
 13031 0001:0006161C 13032 0001:0006162B 13034 0001:0006163E 13035 0001:00061650
 13036 0001:00061655 13037 0001:00061670 13036 0001:0006168A 13038 0001:0006168D
 13039 0001:00061697 13032 0001:0006169E 13040 0001:000616A3 13041 0001:000616B5
 13042 0001:000616C6 13043 0001:000616D8 13044 0001:000616DE 13050 0001:000616E8
 13052 0001:000616F9 13054 0001:0006170A 13058 0001:0006170C 13060 0001:0006171D
 13062 0001:0006172E 13066 0001:00061730 13068 0001:00061741 13070 0001:00061752
 13072 0001:00061754 13073 0001:0006176A 13074 0001:00061771 13076 0001:00061776
 13077 0001:00061784 13080 0001:0006178E 13081 0001:00061793 13085 0001:000617A1
 13089 0001:000617A6 13094 0001:000617AF 13095 0001:000617CA 13096 0001:000617D8
 13097 0001:000617F2 13098 0001:00061809 13104 0001:00061822 13105 0001:0006182E
 13108 0001:0006183A 13109 0001:00061841 13110 0001:00061858 13112 0001:00061862
 13114 0001:0006186F 13116 0001:00061874 13117 0001:00061882 13118 0001:0006188C
 13129 0001:000618BC 13130 0001:000618DE 13132 0001:000618E2 13134 0001:000618F4
 13136 0001:0006190E 13137 0001:00061912 13139 0001:00061914 13132 0001:00061915
 13140 0001:00061918 13142 0001:00061940 13143 0001:00061946 13144 0001:00061957
 13147 0001:00061978 13151 0001:00061A02 13153 0001:00061A08 13154 0001:00061A11
 13155 0001:00061A14 13157 0001:00061A2C 13159 0001:00061A4E 13160 0001:00061A51
 13162 0001:00061A53 13155 0001:00061A56 13163 0001:00061A59 13167 0001:00061A64
 13169 0001:00061A75 13171 0001:00061A86 13175 0001:00061A88 13177 0001:00061A99
 13179 0001:00061AAA 13183 0001:00061AAC 13184 0001:00061AB6 13190 0001:00061AB8
 13191 0001:00061ADC 13192 0001:00061AFB 13195 0001:00061B05 13196 0001:00061B16
 13197 0001:00061B24 13198 0001:00061B3B 13200 0001:00061B69 13202 0001:00061B97
 13204 0001:00061BC5 13206 0001:00061BF3 13208 0001:00061C21 13210 0001:00061C4F
 13211 0001:00061C66 13213 0001:00061C94 13215 0001:00061CC7 13217 0001:00061CFA
 13219 0001:00061D2D 13221 0001:00061D60 13223 0001:00061D9A 13225 0001:00061DC7
 13227 0001:00061DF3 13229 0001:00061E1F 13232 0001:00061E48 13233 0001:00061E65
 13235 0001:00061E9F 13237 0001:00061ED9 13239 0001:00061F13 13241 0001:00061F4D
 13244 0001:00061F8C 13245 0001:00061FA9 13249 0001:00061FFA 13252 0001:0006204B
 13256 0001:000620A1 13260 0001:000620F7 13261 0001:00062114 13263 0001:0006214E
 13265 0001:00062188 13267 0001:000621C2 13269 0001:000621FC 13271 0001:00062236
 13273 0001:00062270 13275 0001:000622AA 13277 0001:000622E4 13279 0001:0006231E
 13281 0001:00062358 13283 0001:00062397 13284 0001:000623B4 13286 0001:000623EE
 13288 0001:00062428 13290 0001:00062462 13292 0001:0006249C 13294 0001:000624D6
 13295 0001:000624F3 13297 0001:0006251D 13299 0001:00062547 13301 0001:00062571
 13303 0001:0006259B 13305 0001:000625C5 13307 0001:000625EF 13309 0001:00062612
 13311 0001:00062629 13314 0001:00062639 13323 0001:000626A8 13324 0001:000626AF
 13325 0001:000626BC 13327 0001:000626DA 13328 0001:000626E6 13331 0001:00062700
 13332 0001:00062707 13333 0001:00062714 13335 0001:00062732 13336 0001:0006273E
 13339 0001:00062758 13340 0001:0006275F 13341 0001:0006276C 13343 0001:0006278A
 13344 0001:00062796 13347 0001:000627B0 13348 0001:000627B7 13349 0001:000627C4
 13351 0001:000627E2 13352 0001:000627EE 13355 0001:00062808 13356 0001:0006280F
 13357 0001:0006281C 13359 0001:0006283A 13360 0001:00062846 13363 0001:00062860
 13364 0001:00062867 13365 0001:00062874 13367 0001:00062892 13368 0001:0006289E
 13371 0001:000628B8 13372 0001:000628BF 13373 0001:000628CC 13375 0001:000628EA
 13376 0001:000628F6 13379 0001:00062910 13380 0001:00062917 13381 0001:00062924
 13383 0001:00062942 13384 0001:0006294E 13392 0001:00062968 13393 0001:00062995
 13394 0001:000629A1 13395 0001:000629AA 13396 0001:000629B1 13399 0001:000629DA
 13401 0001:000629E1 13404 0001:00062A5C 13405 0001:00062A60 13407 0001:00062A65
 13408 0001:00062A8B 13405 0001:00062A8C 13410 0001:00062A8F 13411 0001:00062A9B
 13412 0001:00062A9E 13414 0001:00062AA3 13415 0001:00062AAE 13417 0001:00062AB3
 13418 0001:00062AB7 13419 0001:00062ACD 13412 0001:00062ACE 13421 0001:00062AD1
 13399 0001:00062ADD 13423 0001:00062AE6 13428 0001:00062B48 13429 0001:00062B65
 13430 0001:00062B83 13431 0001:00062B9B 13430 0001:00062BA7 13432 0001:00062BAD
 13438 0001:00062BE8 13439 0001:00062C02 13440 0001:00062C0A 13441 0001:00062C2C
 13442 0001:00062C46 13444 0001:00062C94 13448 0001:00062CBA 13449 0001:00062CC4
 13451 0001:00062CE9 13452 0001:00062CF3 13453 0001:00062CFE 13454 0001:00062D08
 13455 0001:00062D12 13457 0001:00062D1C 13458 0001:00062D26 13460 0001:00062D30
 13462 0001:00062D3F 13464 0001:00062D60 13482 0001:00062F13 13484 0001:00062F41
 13485 0001:00062F78 13484 0001:00062F87 13487 0001:00062F8A 13490 0001:00062FBA
 13491 0001:00062FF2 13492 0001:00063005 13493 0001:0006303D 13494 0001:00063075
 13495 0001:000630AD 13496 0001:000630E5 13498 0001:0006311D 13499 0001:0006312A
 13500 0001:0006313E 13502 0001:00063167 13503 0001:00063199 13506 0001:000631B8
 13508 0001:000631FF 13509 0001:00063210 13511 0001:00063240 13512 0001:0006324B
 13513 0001:00063268 13514 0001:00063291 13515 0001:000632A9 13516 0001:000632BF
 13517 0001:000632DA 13518 0001:000632F3 13519 0001:0006330E 13520 0001:00063327
 13521 0001:00063344 13522 0001:0006336D 13499 0001:0006336E 13524 0001:00063375
 13525 0001:0006337F 13526 0001:0006338A 13527 0001:000633B5 13526 0001:000633C8
 13529 0001:000633CB 13530 0001:000633D5 13541 0001:00063592 13542 0001:0006359C
 13544 0001:000635A9 13545 0001:000635D6 13546 0001:000635E1 13548 0001:00063604
 13550 0001:0006363C 13551 0001:00063646 13552 0001:00063676 13553 0001:00063680
 13554 0001:00063688 13555 0001:0006368F 13556 0001:00063696 13557 0001:0006369D
 13558 0001:000636A7 13559 0001:000636BB 13561 0001:000636E4 13562 0001:000636EE
 13566 0001:0006373C 13567 0001:00063746 13569 0001:00063769 13570 0001:000637C0
 13573 0001:000637FB 13574 0001:00063804 13575 0001:0006385B 13576 0001:00063865
 13577 0001:00063894 13578 0001:0006389E 13579 0001:000638DB 13580 0001:00063932
 13582 0001:0006393C 13583 0001:00063951 13584 0001:00063967 13585 0001:0006397D
 13586 0001:000639AF 13589 0001:000639CE 13591 0001:00063A15 13592 0001:00063A1F
 13593 0001:00063A30 13595 0001:00063A60 13596 0001:00063A6B 13597 0001:00063A75
 13602 0001:00063B9E 13603 0001:00063BA5 13604 0001:00063BAF 13558 0001:00063BB0
 13605 0001:00063BB7 13606 0001:00063BC9 13607 0001:00063BEA 13610 0001:00063BF4
 13612 0001:00063C1A 13615 0001:00063C29 13618 0001:00063C5E 13619 0001:00063C96
 13620 0001:00063CA9 13621 0001:00063CE1 13622 0001:00063D31 13623 0001:00063D81
 13624 0001:00063DD1 13625 0001:00063E21 13627 0001:00063E71 13633 0001:00063E85
 13634 0001:00063EC2 13635 0001:00063EFD 13636 0001:00063F2C 13637 0001:00063F59
 13638 0001:00063F88 13639 0001:00063FB5 13640 0001:00063FF9 13641 0001:0006403B
 13642 0001:0006407B 13643 0001:000640B9 13644 0001:000640FC 13645 0001:0006413D
 13627 0001:0006413E 13647 0001:00064145 13648 0001:00064150 13649 0001:00064190
 13648 0001:000641A3 13651 0001:000641A6 13665 0001:00064392 13667 0001:000643D4
 13668 0001:000643EE 13669 0001:00064433 13670 0001:0006443D 13676 0001:00064451
 13685 0001:000645CE 13670 0001:000645CF 13686 0001:000645D6 13687 0001:000645E8
 13690 0001:00064614 13693 0001:00064649 13694 0001:00064699 13695 0001:000646E9
 13696 0001:00064739 13697 0001:00064789 13698 0001:000647D9 13699 0001:00064829
 13700 0001:00064879 13702 0001:000648C9 13707 0001:000648DD 13708 0001:00064920
 13709 0001:00064961 13710 0001:000649A1 13711 0001:000649DF 13712 0001:00064A0E
 13713 0001:00064A3B 13714 0001:00064A6A 13715 0001:00064A97 13716 0001:00064ADB
 13717 0001:00064B1D 13718 0001:00064B5D 13719 0001:00064B9B 13720 0001:00064BDB
 13721 0001:00064C36 13722 0001:00064C76 13723 0001:00064CD1 13702 0001:00064CD2
 13725 0001:00064CD9 13726 0001:00064CE4 13727 0001:00064D33 13726 0001:00064D46
 13729 0001:00064D49 13741 0001:00064F77 13743 0001:00064FC8 13744 0001:00064FE2
 13745 0001:00065027 13746 0001:00065031 13751 0001:00065045 13761 0001:000651F4
 13746 0001:000651F5 13762 0001:000651FC 13763 0001:0006520E 13767 0001:0006523C
 13769 0001:00065270 13773 0001:000652A4 13775 0001:000652C9 13777 0001:00065305
 13781 0001:00065315 13784 0001:000655D8 13785 0001:000655F2 13787 0001:000655FB
 13788 0001:0006560D 13791 0001:0006561C 13793 0001:00065629 13794 0001:00065656
 13795 0001:00065685 13797 0001:0006569A 13799 0001:000656AD 13803 0001:00065778
 13807 0001:000657B6 13811 0001:000657B8 13812 0001:000657BB 13817 0001:0006580C
 13823 0001:00065810 13824 0001:0006581D 13827 0001:00065821 13828 0001:0006584B
 13829 0001:00065856 13825 0001:00065857 13831 0001:00065861 13835 0001:00065868
 13836 0001:0006586A 13839 0001:00065876 13841 0001:00065883 13842 0001:00065890
 13846 0001:00065895 13847 0001:000658A2 13849 0001:000658A7 13851 0001:000658A9
 13855 0001:000658AC 13857 0001:000658B2 13862 0001:000658E0 13866 0001:000658E8
 13867 0001:000658F5 13870 0001:000658F8 13871 0001:000658FB 13872 0001:00065912
 13875 0001:00065914 13876 0001:00065917 13877 0001:00065920 13880 0001:00065924
 13881 0001:00065927 13885 0001:0006596A 13888 0001:0006596C 13889 0001:0006596F
 13893 0001:000659C0 13905 0001:000659C4 13906 0001:000659DC 13907 0001:000659EA
 13910 0001:000659EE 13911 0001:00065A0C 13912 0001:00065A1F 13914 0001:00065A32
 13915 0001:00065A3F 13918 0001:00065A43 13919 0001:00065A61 13920 0001:00065A74
 13922 0001:00065A87 13923 0001:00065AA8 13924 0001:00065ABD 13925 0001:00065ACC
 13927 0001:00065B88 13930 0001:00065BD5 13933 0001:00065BFC 13934 0001:00065C03
 13951 0001:00065C08 13952 0001:00065C0F 13954 0001:00065C1B 13956 0001:00065C23
 13957 0001:00065C2D 13958 0001:00065C3B 13959 0001:00065C47 13960 0001:00065C5C
 13962 0001:00065C6A 13966 0001:00065C78 13967 0001:00065C82 13972 0001:00065C8B
 13973 0001:00065C90 13974 0001:00065CA0 13977 0001:00065CA8 13978 0001:00065CB0
 13979 0001:00065CB8 13981 0001:00065CC0 13983 0001:00065CC9 13984 0001:00065CD5
 13986 0001:00065CDD 13987 0001:00065CEA 13988 0001:00065D05 13993 0001:00065D29
 13994 0001:00065D2B 13996 0001:00065D31 13997 0001:00065D3B 13999 0001:00065D45
 14002 0001:00065D4F 14003 0001:00065D59 14004 0001:00065D62 14005 0001:00065D6C
 14008 0001:00065D7A 14010 0001:00065D83 14011 0001:00065D90 14014 0001:00065DA2
 14015 0001:00065DA4 14016 0001:00065DAD 14018 0001:00065DB7 14020 0001:00065DBB
 14022 0001:00065DC8 14023 0001:00065DD5 14025 0001:00065DE1 14029 0001:00065DED
 14031 0001:00065E0F 14035 0001:00065E31 14036 0001:00065E3B 14038 0001:00065E44
 14040 0001:00065E63 14042 0001:00065E74 14050 0001:00065E85 14051 0001:00065E8F
 14052 0001:00065E96 14053 0001:00065E9D 14054 0001:00065EA4 14055 0001:00065EB2
 14056 0001:00065EB9 14059 0001:00065ED5 14060 0001:00065EE5 14061 0001:00065EEF
 14063 0001:00065EFC 14064 0001:00065F19 14065 0001:00065F36 14066 0001:00065F6D
 14067 0001:00065F76 14068 0001:00065F86 14069 0001:00065F8F 14070 0001:00065F98
 14072 0001:00065F9F 14073 0001:00065FA6 14074 0001:00065FD0 14078 0001:00065FFC
 14080 0001:00066007 14081 0001:00066011 14083 0001:0006601E 14084 0001:00066024
 14085 0001:0006602C 14086 0001:00066032 14087 0001:00066040 14088 0001:00066054
 14089 0001:00066062 14090 0001:00066073 14091 0001:00066078 14092 0001:0006607E
 14093 0001:0006608C 14094 0001:0006609D 14095 0001:000660A2 14101 0001:000660AA
 14103 0001:000660B4 14106 0001:000660D5 14107 0001:000660E8 14108 0001:000660EF
 14111 0001:00066118 14114 0001:0006611D 14115 0001:00066164 14117 0001:00066186
 14119 0001:000661C7 14122 0001:0006627A 14115 0001:00066280 14123 0001:0006628C
 14124 0001:000662BB 14126 0001:000662CB 14127 0001:000662DC 14130 0001:000662F8
 14131 0001:00066318 14134 0001:00066344 14135 0001:0006634E 14136 0001:0006635C
 14138 0001:00066380 14140 0001:00066392 14130 0001:00066398 14142 0001:000663A4
 14143 0001:000663B2 14144 0001:000663D2 14147 0001:00066406 14148 0001:00066416
 14149 0001:00066428 14150 0001:00066432 14153 0001:00066458 14156 0001:00066483
 14158 0001:0006648A 14143 0001:00066490 14161 0001:000664A9 14162 0001:000664C5
 14164 0001:000664F1 14161 0001:0006650E 14168 0001:0006651E 14170 0001:00066528
 14173 0001:00066532 14174 0001:00066552 14178 0001:00066597 14179 0001:000665A1
 14180 0001:000665AF 14182 0001:000665D3 14184 0001:000665E5 14173 0001:000665EB
 14185 0001:000665F7 14190 0001:00066605 14191 0001:0006660F 14196 0001:00066616
 14198 0001:00066624 14199 0001:00066629 14205 0001:0006662E 14206 0001:00066638
 14207 0001:00066642 14208 0001:0006664C 14209 0001:00066654 14215 0001:0006665C
 14216 0001:00066666 14218 0001:0006666D 14220 0001:00066676 14221 0001:00066689
 14222 0001:00066690 14225 0001:000666A7 14226 0001:000666B7 14227 0001:000666C1
 14228 0001:000666CB 14229 0001:000666D5 14230 0001:000666DF 14231 0001:000666E6
 14232 0001:000666F0 14233 0001:000666F5 14235 0001:000666FF 14238 0001:00066706
 14239 0001:0006673B 14241 0001:0006674B 14244 0001:00066760 14245 0001:00066772
 14247 0001:0006677C 14248 0001:00066786 14255 0001:00066793 14261 0001:00066798
 14263 0001:000667A6 14264 0001:000667DB 14265 0001:000667F3 14268 0001:000667FF
 14269 0001:00066809 14270 0001:00066813 14272 0001:0006682C 14276 0001:00066854
 14277 0001:0006685E 14279 0001:00066864 14280 0001:0006686E 14285 0001:0006689D
 14287 0001:000668A4 14288 0001:000668AE 14289 0001:000668B7 14291 0001:000668C5
 14293 0001:000668DF 14295 0001:000668EC 14296 0001:000668F6 14297 0001:000668FD
 14298 0001:00066902 14300 0001:0006690C 14302 0001:00066933 14303 0001:00066947
 14305 0001:0006694E 14307 0001:0006695B 14308 0001:00066965 14311 0001:00066980
 14312 0001:00066992 14316 0001:000669A3 14320 0001:000669AF 14325 0001:000669BD
 14327 0001:000669EB 14329 0001:00066A04 14330 0001:00066A0B 14335 0001:00066A1E
 14336 0001:00066A2C 14337 0001:00066A3A 14338 0001:00066A41 14340 0001:00066A4B
 14341 0001:00066A50 14342 0001:00066A52 14343 0001:00066A62 14344 0001:00066A6B
 14346 0001:00066A81 14347 0001:00066A88 14352 0001:00066A99 14353 0001:00066AA3
 14358 0001:00066AAF 14360 0001:00066AD6 14362 0001:00066AEA 14365 0001:00066B0B
 14367 0001:00066B19 14368 0001:00066B27 14376 0001:00066B54 14377 0001:00066B73
 14383 0001:00066B78 14384 0001:00066B82 14386 0001:00066B94 14387 0001:00066B99
 14388 0001:00066BA7 14391 0001:00066BD7 14393 0001:00066BE4 14394 0001:00066C0B
 14397 0001:00066C39 14398 0001:00066C44 14400 0001:00066C57 14402 0001:00066C6A
 14403 0001:00066C74 14405 0001:00066C82 14407 0001:00066C99 14409 0001:00066CA0
 14412 0001:00066CB4 14413 0001:00066CD0 14416 0001:00066D15 14412 0001:00066D32
 14419 0001:00066D45 14420 0001:00066D4F 14422 0001:00066D66 14424 0001:00066D6B
 14427 0001:00066D86 14428 0001:00066D97 14429 0001:00066DA0 14434 0001:00066DA7
 14437 0001:00066DBE 14440 0001:00066DCE 14441 0001:00066DD8 14444 0001:00066DF5
 14446 0001:00066E07 14447 0001:00066E0F 14451 0001:00066E32 14465 0001:00066E52
 14472 0001:00066F5C 14473 0001:00066F67 14474 0001:00066F6E 14477 0001:00066F75
 14478 0001:00066F7F 14480 0001:00066F89 14481 0001:00066F8E 14482 0001:00066FAC
 14490 0001:00066FB8 14491 0001:00066FF1 14493 0001:00066FF8 14494 0001:00066FFF
 14496 0001:0006700D 14497 0001:00067037 14499 0001:00067059 14502 0001:0006706D
 14503 0001:00067072 14505 0001:00067088 14506 0001:0006709A 14507 0001:000670C4
 14509 0001:000670D5 14510 0001:000670E1 14513 0001:00067113 14520 0001:00067168
 14521 0001:000671B0 14522 0001:000671BB 14523 0001:000671BF 14524 0001:000671C2
 14525 0001:000671C8 14526 0001:000671CF 14527 0001:000671D6 14528 0001:000671DC
 14529 0001:000671E3 14531 0001:000671ED 14532 0001:000671F0 14533 0001:000671F7
 14535 0001:00067207 14536 0001:0006720A 14537 0001:00067210 14538 0001:0006721B
 14539 0001:00067226 14540 0001:0006722D 14542 0001:0006723D 14543 0001:00067240
 14544 0001:00067247 14546 0001:00067257 14547 0001:0006725A 14548 0001:00067261
 14549 0001:00067267 14550 0001:0006726E 14551 0001:00067272 14552 0001:0006727B
 14553 0001:00067282 14556 0001:000672C8 14557 0001:000672CF 14558 0001:000672DD
 14561 0001:00067326 14563 0001:00067335 14578 0001:00067338 14579 0001:00067343
 14580 0001:00067350 14581 0001:0006735D 14582 0001:00067374 14583 0001:0006737B
 14589 0001:0006737C 14590 0001:00067388 14591 0001:0006738A 14594 0001:0006739A
 14607 0001:000673C1 14610 0001:000673C8 14612 0001:000673CD 14613 0001:000673D3
 14616 0001:000673D9 14592 0001:000673DA 14619 0001:00067400 14626 0001:0006740C
 14629 0001:00067414 14630 0001:00067418 14632 0001:00067445 14633 0001:00067457
 14639 0001:0006747C 14640 0001:00067481 14641 0001:0006748D 14642 0001:00067495
 14646 0001:000674CB 14648 0001:000674F0 14649 0001:00067525 14650 0001:00067529
 14652 0001:0006754C 14654 0001:00067551 14658 0001:00067573 14661 0001:00067593
 14662 0001:0006759D 14663 0001:000675AB 14665 0001:000675BD 14666 0001:000675C9
 14667 0001:000675D7 14669 0001:000675E7 14671 0001:000675F9 14672 0001:00067600
 14673 0001:00067606 14674 0001:0006760C 14675 0001:00067612 14676 0001:00067618
 14677 0001:0006761E 14678 0001:00067637 14680 0001:00067643 14681 0001:0006764B
 14682 0001:0006765E 14684 0001:00067671 14692 0001:00067681 14698 0001:000676B3
 14699 0001:000676BA 14701 0001:000676DD 14705 0001:000676E7 14706 0001:000676EE
 14708 0001:00067718 14710 0001:00067726 14711 0001:00067744 14713 0001:0006774B
 14715 0001:00067754 14719 0001:00067762 14720 0001:00067770 14722 0001:00067783
 14729 0001:000677A1 14732 0001:000677A6 14733 0001:000677AD 14734 0001:000677BA
 14735 0001:000677C8 14736 0001:000677D2 14738 0001:000677E9 14740 0001:000677FC
 14742 0001:00067801 14745 0001:00067811 14747 0001:00067822 14750 0001:00067836
 14752 0001:00067847 14753 0001:00067851 14755 0001:0006785E 14835 0001:0006789C
 14836 0001:000678A0 14838 0001:000678A9 14839 0001:000678AE 14840 0001:000678B3
 14844 0001:000678BA 14845 0001:000678BF 14846 0001:000678C4 14848 0001:000678C9
 14849 0001:000678DC 14850 0001:000678ED 14851 0001:000678FB 14852 0001:0006790D
 14859 0001:00067914 14860 0001:00067916 14861 0001:00067918 14862 0001:00067921
 14863 0001:00067939 14864 0001:0006793D 14865 0001:0006794B 14867 0001:00067970
 14868 0001:0006797C 14869 0001:00067986 14870 0001:00067994 14871 0001:000679AE
 14872 0001:000679B7 14874 0001:000679C5 14876 0001:000679E6 14878 0001:000679F5
 14882 0001:000679FC 14883 0001:00067A08 14884 0001:00067A12 14885 0001:00067A20
 14887 0001:00067A3A 14888 0001:00067A43 14890 0001:00067A55 14892 0001:00067A68
 14894 0001:00067A77 14898 0001:00067A80 14899 0001:00067A87 14900 0001:00067A8D
 14901 0001:00067A92 14905 0001:00067A94 14907 0001:00067A9D 14909 0001:00067AB6
 14910 0001:00067AC0 14920 0001:00067AD8 14921 0001:00067ADA 14922 0001:00067ADC
 14924 0001:00067ADE 14928 0001:00067AE2 14930 0001:00067AE4 14931 0001:00067AF8
 14933 0001:00067B10 14934 0001:00067B1E 14936 0001:00067B25 14937 0001:00067B32
 14939 0001:00067B40 14947 0001:00067B6E 14949 0001:00067B7A 14951 0001:00067B7F
 14952 0001:00067B9B 14954 0001:00067BAD 14955 0001:00067BBD 14957 0001:00067BC1
 14958 0001:00067BE5 14963 0001:00067C0C 14965 0001:00067C1F 14968 0001:00067C33
 14975 0001:00067C3C 14976 0001:00067C50 14978 0001:00067C5C 14980 0001:00067C70
 14981 0001:00067C76 14983 0001:00067C78 14984 0001:00067C8F 14985 0001:00067C9D
 14986 0001:00067CAB 14987 0001:00067CC2 14988 0001:00067CCF 14989 0001:00067CDD
 14990 0001:00067CEB 14991 0001:00067CF9 14992 0001:00067D10 14993 0001:00067D20
 14995 0001:00067D2F 14996 0001:00067D46 14997 0001:00067D51 14998 0001:00067D5F
 14999 0001:00067D6C 15000 0001:00067D79 15001 0001:00067D87 15002 0001:00067D94
 15003 0001:00067DA2 15004 0001:00067DB0 15005 0001:00067DBE 15006 0001:00067DCC
 15007 0001:00067DDA 15010 0001:00067DE8 15071 0001:00067DFC 15073 0001:00067E05
 15074 0001:00067E19 15075 0001:00067E1D 15077 0001:00067E34 15080 0001:00067E5C
 15081 0001:00067E68 15082 0001:00067E76 15083 0001:00067E87 15087 0001:00067E90
 15088 0001:00067EA1 15091 0001:00067EA4 15092 0001:00067EA7 15095 0001:00067ECE
 15100 0001:00067ED0 15101 0001:00067EE0 15102 0001:00067EE9 15105 0001:00067F03
 15107 0001:00067F12 15110 0001:00067F23 15111 0001:00067F2B 15115 0001:00067F50
 15118 0001:00067F6A 15119 0001:00067F77 15125 0001:00067FA0 15126 0001:00067FA3
 15127 0001:00067FAE 15130 0001:00067FB0 15131 0001:00067FB3 15132 0001:00067FBE
 15136 0001:00067FC0 15137 0001:00067FC1 15138 0001:00067FC2 15139 0001:00067FC3
 15140 0001:00067FC5 15141 0001:00067FC8 15142 0001:00067FCD 15143 0001:00067FCF
 15144 0001:00067FD4 15145 0001:00067FD5 15146 0001:00067FD6 15147 0001:00067FD7
 15149 0001:00067FDC 15156 0001:00067FE0 15157 0001:00067FED 15159 0001:00067FF8
 15161 0001:00068000 15162 0001:0006800E 15163 0001:0006801F 15165 0001:0006802C
 15166 0001:00068043 15169 0001:0006805B 15171 0001:0006806B 15172 0001:0006807C
 15173 0001:00068092 15177 0001:000680A3 15178 0001:000680B0 15186 0001:000680C7
 15189 0001:000680E8 15191 0001:000680FD 15192 0001:0006810A 15194 0001:00068113
 15195 0001:00068127 15199 0001:00068142 15200 0001:00068147 15204 0001:0006816C
 15207 0001:00068173 15211 0001:00068174 15212 0001:00068176 15213 0001:00068179
 15214 0001:0006817B 15216 0001:0006817D 15217 0001:0006817F 15218 0001:00068182
 15219 0001:00068184 15220 0001:00068189 15223 0001:0006818A 15224 0001:0006818C
 15225 0001:0006818F 15226 0001:00068191 15229 0001:00068196 15235 0001:00068198
 15236 0001:0006819B 15237 0001:000681A4 15240 0001:000681BE 15244 0001:000681F6
 15246 0001:000681FE 15248 0001:00068207 15252 0001:0006821D 15253 0001:00068220
 15256 0001:0006822E 15260 0001:0006824C 15261 0001:0006824D 15262 0001:0006824F
 15263 0001:00068252 15264 0001:00068253 15265 0001:00068254 15266 0001:00068259
 15267 0001:0006825D 15268 0001:00068261 15269 0001:00068265 15270 0001:0006826A
 15271 0001:0006826B 15272 0001:0006826C 15273 0001:0006826D 15274 0001:00068273
 15278 0001:00068274 15279 0001:00068283 15280 0001:0006828C 15283 0001:000682A6
 15285 0001:000682B8 15286 0001:000682C6 15290 0001:000682D0 15292 0001:000682E1
 15352 0001:00068304 15353 0001:0006830A 15355 0001:00068312 15359 0001:00068326
 15360 0001:00068342 15361 0001:00068349 15366 0001:0006834C 15367 0001:00068352
 15369 0001:0006836C 15371 0001:00068386 15374 0001:0006838C 15375 0001:00068392
 15377 0001:000683AC 15379 0001:000683C6 15391 0001:000683CC 15392 0001:000683CF
 15393 0001:000683D9 15403 0001:000683DC 15404 0001:000683E2 15405 0001:000683F4
 15407 0001:00068400 15408 0001:00068413 15409 0001:00068419 15414 0001:00068420
 15415 0001:00068426 15416 0001:00068438 15418 0001:00068444 15419 0001:00068457
 15420 0001:0006845D 15423 0001:00068464 15424 0001:00068467 15425 0001:00068482
 15426 0001:0006848C 15428 0001:00068490 15429 0001:0006849C 15431 0001:000684BD
 15432 0001:000684C2 15434 0001:000684CB 15435 0001:000684D5 15436 0001:000684E3
 15437 0001:000684F2 15439 0001:000684F7 15440 0001:0006850F 15443 0001:00068535
 15447 0001:00068547 15448 0001:0006854D 15449 0001:0006855B 15451 0001:0006857C
 15455 0001:0006857E 15458 0001:000685A0 15459 0001:000685AA 15460 0001:000685C0
 15463 0001:000685CA 15469 0001:000685E8 15470 0001:000685F1 15472 0001:000685F8
 15473 0001:000685FD 15475 0001:0006860A 15476 0001:00068614 15477 0001:00068622
 15478 0001:00068635 15480 0001:0006863A 15481 0001:00068652 15484 0001:00068678
 15488 0001:0006868A 15489 0001:00068690 15490 0001:0006869E 15492 0001:000686C2
 15496 0001:000686C4 15499 0001:000686E6 15500 0001:000686F0 15504 0001:0006870B
 15510 0001:00068718 15511 0001:00068721 15513 0001:00068728 15514 0001:0006872D
 15516 0001:0006873A 15517 0001:00068744 15518 0001:00068752 15519 0001:00068765
 15521 0001:0006876A 15522 0001:00068782 15525 0001:000687A8 15529 0001:000687BA
 15530 0001:000687C0 15531 0001:000687CE 15533 0001:000687F3 15537 0001:000687F5
 15540 0001:00068817 15541 0001:00068821 15545 0001:0006883C 15549 0001:00068848
 15550 0001:0006884F 15555 0001:00068850 15556 0001:00068858 15558 0001:0006886A
 15560 0001:00068878 15561 0001:00068882 15562 0001:00068890 15563 0001:0006889A
 15564 0001:000688A4 15565 0001:000688B2 15567 0001:000688CB 15569 0001:000688DD
 15574 0001:000688E4 15575 0001:000688EE 15577 0001:00068912 15578 0001:0006891C
 15579 0001:0006892A 15580 0001:00068938 15582 0001:0006893D 15583 0001:00068953
 15586 0001:00068970 15589 0001:00068982 15593 0001:00068988 15594 0001:0006899A
 15595 0001:000689A4 15605 0001:000689A8 15606 0001:000689B7 15607 0001:000689C0
 15610 0001:000689DA 15612 0001:000689E8 15615 0001:000689F5 15618 0001:000689FF
 15619 0001:00068A0D 15621 0001:00068A10 15623 0001:00068A14 15624 0001:00068A19
 15628 0001:00068A1C 15630 0001:00068A32 15632 0001:00068A43 15633 0001:00068A45
 15634 0001:00068A4A 15635 0001:00068A50 15636 0001:00068A56 15637 0001:00068A6C
 15639 0001:00068A86 15644 0001:00068AA1 15645 0001:00068AA3 15646 0001:00068AA8
 15647 0001:00068AAE 15648 0001:00068AB5 15654 0001:00068AD0 15655 0001:00068AD6
 15660 0001:00068AF0 15662 0001:00068B10 15663 0001:00068B14 15664 0001:00068B1A
 15665 0001:00068B24 15666 0001:00068B32 15667 0001:00068B3E 15669 0001:00068B47
 15670 0001:00068B5D 15673 0001:00068B72 15677 0001:00068B84 15679 0001:00068B90
 15682 0001:00068BA1 15684 0001:00068BBC 15691 0001:00068C04 15693 0001:00068C0B
 15694 0001:00068C0E 15697 0001:00068C12 15698 0001:00068C1B 15701 0001:00068C35
 15703 0001:00068C54 15704 0001:00068C5E 15705 0001:00068C6C 15706 0001:00068C7B
 15708 0001:00068C84 15709 0001:00068C9C 15711 0001:00068CAE 15712 0001:00068CD3
 15713 0001:00068CE4 15715 0001:00068CF5 15716 0001:00068D10 15718 0001:00068D2B
 15719 0001:00068D50 15723 0001:00068D78 15725 0001:00068D86 15726 0001:00068D9C
 15729 0001:00068DC0 15732 0001:00068DD2 15733 0001:00068DDC 15738 0001:00068E20
 15739 0001:00068E25 15740 0001:00068E2E 15742 0001:00068E48 15744 0001:00068E5A
 15746 0001:00068E64 15748 0001:00068E76 15749 0001:00068E8C 15753 0001:00068E92
 15754 0001:00068E9C 15758 0001:00068EDC 15759 0001:00068EE3 15760 0001:00068EF8
 15761 0001:00068F0B 15764 0001:00068F10 15765 0001:00068F16 15766 0001:00068F1B
 15767 0001:00068F2D 15768 0001:00068F3E 15769 0001:00068F45 15791 0001:00068F4C
 15792 0001:00068F50 15793 0001:00068F65 15794 0001:00068F6C 15800 0001:00068F70
 15801 0001:00068F76 15803 0001:00068F7F 15804 0001:00068F89 15805 0001:00068F92
 15808 0001:00068F98 15809 0001:00068FA3 15810 0001:00068FAA 15811 0001:00068FB6
 15814 0001:00068FC4 15815 0001:00068FCA 15816 0001:00068FD3 15823 0001:00068FD8
 15824 0001:00068FDC 15825 0001:00068FF1 15826 0001:00068FF8 15832 0001:00068FFC
 15833 0001:00069003 15834 0001:0006900C 15835 0001:0006900E 15836 0001:00069016
 15837 0001:0006901E 15838 0001:00069025 15839 0001:0006902A 15840 0001:00069031
 15841 0001:00069036 15842 0001:00069043 15843 0001:0006904C 15846 0001:00069050
 15847 0001:0006905B 15848 0001:00069062 15849 0001:0006906E 15852 0001:0006907C
 15853 0001:00069082 15854 0001:0006908B 15861 0001:00069090 15862 0001:00069094
 15863 0001:000690A9 15864 0001:000690B0 15870 0001:000690B4 15871 0001:000690BA
 15873 0001:000690C3 15874 0001:000690CE 15875 0001:000690D7 15878 0001:000690DC
 15879 0001:000690E7 15880 0001:000690EE 15881 0001:000690FA 15884 0001:00069108
 15885 0001:0006910E 15886 0001:00069117 15894 0001:0006911C 15895 0001:0006913A
 15896 0001:00069144 15897 0001:00069151 15900 0001:00069169 15901 0001:00069171
 15902 0001:0006917F 15904 0001:0006918D 15905 0001:00069199 15906 0001:000691B3
 15907 0001:000691BD 15902 0001:000691BE 15909 0001:000691CE 15912 0001:000691DE
 15915 0001:00069200 15916 0001:0006920B 15917 0001:00069212 15918 0001:00069220
 15919 0001:0006922C 15924 0001:0006923C 15925 0001:00069240 15926 0001:00069255
 15927 0001:0006925C 15933 0001:00069260 15934 0001:00069267 15935 0001:00069270
 15936 0001:00069272 15937 0001:0006927E 15938 0001:00069289 15939 0001:00069295
 15940 0001:0006929E 15945 0001:000692A4 15946 0001:000692AB 15947 0001:000692B3
 15948 0001:000692C1 15949 0001:000692D0 15951 0001:000692EC 15953 0001:000692FC
 15958 0001:00069300 15961 0001:00069307 15962 0001:0006930D 15963 0001:00069320
 15964 0001:00069328 15965 0001:0006932B 15970 0001:00069330 15973 0001:00069337
 15974 0001:0006933D 15975 0001:00069350 15976 0001:00069358 15977 0001:0006935B
 15982 0001:00069360 15985 0001:00069367 15986 0001:0006936D 15987 0001:0006937F
 15988 0001:00069387 15989 0001:0006938A 15992 0001:00069390 15993 0001:00069396
 15994 0001:0006939F 15998 0001:000693A4 15999 0001:000693AC 16003 0001:000693B0
 16004 0001:000693B8 16008 0001:000693BC 16009 0001:000693C4 16013 0001:000693C8
 16014 0001:000693D0 16017 0001:000693D4 16018 0001:000693DB 16019 0001:000693E7
 16020 0001:000693F5 16021 0001:000693FC 16022 0001:00069409 16027 0001:00069410
 16028 0001:00069418 16029 0001:00069420 16032 0001:0006942E 16033 0001:00069435
 16035 0001:00069439 16037 0001:0006944F 16038 0001:00069459 16040 0001:0006945A
 16033 0001:0006945B 16043 0001:0006946C 16045 0001:0006947C 16048 0001:00069480
 16049 0001:00069496 16053 0001:00069504 16060 0001:00069530 16061 0001:00069534
 16062 0001:0006953D 16061 0001:00069546 16063 0001:00069549 16064 0001:00069550
 16070 0001:00069554 16071 0001:0006955A 16073 0001:00069563 16074 0001:0006956E
 16075 0001:00069577 16078 0001:0006957C 16079 0001:00069587 16080 0001:0006958E
 16081 0001:0006959A 16084 0001:000695A8 16085 0001:000695AE 16086 0001:000695B7
 16095 0001:000695BC 16096 0001:000695BF 16097 0001:000695DD 16099 0001:000695E0
 16101 0001:000695F8 16103 0001:000695FD 16104 0001:000695FE 16105 0001:00069601
 16107 0001:00069604 16108 0001:0006960B 16114 0001:00069628 16115 0001:0006962F
 16126 0001:00069630 16127 0001:0006964C 16128 0001:00069697 16129 0001:0006969C
 16130 0001:000696A3 16131 0001:000696E9 16132 0001:000696EC 16162 0001:00069810
 16163 0001:00069813 16165 0001:00069821 16166 0001:0006982C 16167 0001:00069839
 16169 0001:00069850 16173 0001:00069854 16174 0001:0006985B 16176 0001:0006985D
 16177 0001:0006985E 16178 0001:0006985F 16179 0001:00069861 16180 0001:00069864
 16181 0001:00069869 16182 0001:0006986A 16183 0001:0006986B 16184 0001:00069870
 16185 0001:00069872 16186 0001:00069873 16187 0001:00069874 16188 0001:00069876
 16189 0001:00069878 16190 0001:0006987A 16191 0001:0006987C 16192 0001:0006987E
 16193 0001:00069884 16194 0001:00069886 16195 0001:00069888 16196 0001:0006988A
 16197 0001:0006988F 16198 0001:00069894 16201 0001:00069895 16204 0001:0006989A
 16370 0001:0006989C 16371 0001:000698A1 16372 0001:000698A8 16374 0001:000698AC
 16375 0001:000698B3 16376 0001:000698BC 16378 0001:000698CC 16380 0001:000698DA
 16538 0001:000698E0 16539 0001:000698E7 16540 0001:000698F1 16541 0001:000698FF
 16543 0001:0006991D 16545 0001:0006992F 16566 0001:00069938 16567 0001:0006993D
 16571 0001:00069940 16572 0001:00069947 16600 0001:00069948 16601 0001:0006994A
 16602 0001:0006994D 16604 0001:00069950 16605 0001:0006995E 16607 0001:00069962
 16608 0001:0006996C 16609 0001:0006997A 16611 0001:00069983 16612 0001:00069997
 16614 0001:0006999B 16615 0001:000699AE 16619 0001:000699B8 16626 0001:000699F4
 16628 0001:000699FF 16629 0001:00069A05 16631 0001:00069A0B 16633 0001:00069A2D
 16635 0001:00069A41 16637 0001:00069A4C 16641 0001:00069A83 16643 0001:00069A95
 16669 0001:00069AD8 16670 0001:00069ADE 16671 0001:00069AFB 16672 0001:00069B05
 16677 0001:00069B08 16678 0001:00069B0E 16679 0001:00069B2B 16680 0001:00069B35
 16686 0001:00069B38 16687 0001:00069B41 16690 0001:00069B67 16691 0001:00069B71
 16692 0001:00069B7F 16694 0001:00069B96 16697 0001:00069BA5 16700 0001:00069BAC
 16701 0001:00069BB2 16703 0001:00069BDE 16704 0001:00069BE8 16709 0001:00069BEC
 16710 0001:00069BF2 16711 0001:00069C0F 16712 0001:00069C19 16715 0001:00069C1C
 16716 0001:00069C22 16718 0001:00069C39 16719 0001:00069C53 16721 0001:00069C60
 16722 0001:00069C6A 16731 0001:00069C70 16732 0001:00069C85 16733 0001:00069C8D
 16735 0001:00069C93 16736 0001:00069CAB 16738 0001:00069CAF 16739 0001:00069CC0
 16742 0001:00069CD8 16743 0001:00069CF0 16744 0001:00069CF4 16746 0001:00069D12
 16747 0001:00069D21 16748 0001:00069D36 16749 0001:00069D3B 16760 0001:00069DA4
 16761 0001:00069DB8 16763 0001:00069DED 16777 0001:00069E24 16778 0001:00069E44
 16779 0001:00069E53 16781 0001:00069E59 16782 0001:00069E67 16784 0001:00069E80
 16785 0001:00069E9A 16786 0001:00069EA5 16787 0001:00069EB3 16788 0001:00069EC8
 16789 0001:00069ED0 16791 0001:00069EDC 16792 0001:00069EEE 16793 0001:00069EFC
 16795 0001:00069F17 16798 0001:00069F37 16800 0001:00069F4A 16802 0001:00069F70
 16803 0001:00069F90 16805 0001:00069F9F 16806 0001:00069FAE 16807 0001:00069FBC
 16808 0001:00069FCA 16809 0001:00069FD8 16810 0001:00069FE7 16811 0001:00069FFF
 16812 0001:0006A016 16815 0001:0006A034 16816 0001:0006A05E 16818 0001:0006A06B
 16819 0001:0006A07A 16820 0001:0006A088 16821 0001:0006A0A8 16822 0001:0006A0B4
 16823 0001:0006A0C3 16824 0001:0006A0D1 16825 0001:0006A0DC 16826 0001:0006A0E8
 16827 0001:0006A0F9 16829 0001:0006A121 16832 0001:0006A13E 16835 0001:0006A14E
 16838 0001:0006A168 16841 0001:0006A18E 16844 0001:0006A19E 16845 0001:0006A1A7
 16853 0001:0006A1E0 16854 0001:0006A203 16857 0001:0006A224 16858 0001:0006A228
 16861 0001:0006A23F 16862 0001:0006A258 16864 0001:0006A26D 16869 0001:0006A294
 16870 0001:0006A29A 16871 0001:0006A2B4 16872 0001:0006A2BE 16878 0001:0006A2C4
 16879 0001:0006A2CB 16881 0001:0006A2CD 16882 0001:0006A2D2 16883 0001:0006A2D4
 16885 0001:0006A2D6 16886 0001:0006A2DA 16887 0001:0006A2DF 16888 0001:0006A2E1
 16890 0001:0006A2E3 16891 0001:0006A2E8 16892 0001:0006A2EE 16893 0001:0006A2EF
 16894 0001:0006A2F5 16895 0001:0006A2F7 16896 0001:0006A2F9 16897 0001:0006A2FB
 16898 0001:0006A301 16899 0001:0006A303 16900 0001:0006A305 16901 0001:0006A307
 16902 0001:0006A30C 16903 0001:0006A30E 16904 0001:0006A313 16905 0001:0006A315
 16906 0001:0006A316 16907 0001:0006A31B 16908 0001:0006A31C 16911 0001:0006A321
 16912 0001:0006A327 16917 0001:0006A328 16918 0001:0006A33A 16919 0001:0006A345
 16934 0001:0006A360 16935 0001:0006A36A 16938 0001:0006A36E 16939 0001:0006A374
 16936 0001:0006A375 16941 0001:0006A385 16944 0001:0006A38C 16946 0001:0006A393
 16947 0001:0006A39F 16948 0001:0006A3A9 16949 0001:0006A3B9 16951 0001:0006A3C0
 16953 0001:0006A3E4 16956 0001:0006A3E6 16959 0001:0006A3F4 16961 0001:0006A40D
 16964 0001:0006A416 16965 0001:0006A427 16967 0001:0006A429 16968 0001:0006A442
 16969 0001:0006A461 16971 0001:0006A469 16972 0001:0006A474 16973 0001:0006A480
 16974 0001:0006A48E 16975 0001:0006A4A0 16976 0001:0006A4AA 16979 0001:0006A4D8
 16981 0001:0006A4FF 16984 0001:0006A50D 16986 0001:0006A548 16990 0001:0006A565
 16991 0001:0006A570 16994 0001:0006A584 16995 0001:0006A591 17000 0001:0006A5B8
 17001 0001:0006A5BB 17004 0001:0006A5D6 17005 0001:0006A5DD 17006 0001:0006A5EB
 17007 0001:0006A608 17009 0001:0006A60F 17010 0001:0006A620 17011 0001:0006A629
 17012 0001:0006A635 17014 0001:0006A64C 17016 0001:0006A65B 17020 0001:0006A660
 17022 0001:0006A672 17023 0001:0006A67C 17024 0001:0006A68A 17026 0001:0006A69C
 17027 0001:0006A6AC 17028 0001:0006A6B6 17029 0001:0006A6BD 17036 0001:0006A6C0
 17037 0001:0006A6C6 17039 0001:0006A6CF 17041 0001:0006A6D7 17042 0001:0006A6E0
 17043 0001:0006A6EA 17045 0001:0006A6F1 17049 0001:0006A6F9 17050 0001:0006A702
 17053 0001:0006A708 17054 0001:0006A70E 17056 0001:0006A717 17058 0001:0006A71C
 17059 0001:0006A725 17060 0001:0006A732 17062 0001:0006A739 17066 0001:0006A741
 17067 0001:0006A74A 17071 0001:0006A750 17072 0001:0006A755 17076 0001:0006A758
 17077 0001:0006A75D 17086 0001:0006A760 17087 0001:0006A784 17090 0001:0006A7BF
 17091 0001:0006A7D6 17092 0001:0006A7DD 17096 0001:0006A7EC 17097 0001:0006A803
 17101 0001:0006A812 17102 0001:0006A829 17106 0001:0006A838 17107 0001:0006A84F
 17111 0001:0006A85E 17112 0001:0006A875 17116 0001:0006A884 17117 0001:0006A89B
 17121 0001:0006A8AA 17122 0001:0006A8C1 17123 0001:0006A8DE 17127 0001:0006A8E5
 17128 0001:0006A8FC 17132 0001:0006A908 17133 0001:0006A91F 17137 0001:0006A92B
 17138 0001:0006A942 17141 0001:0006A94C 17244 0001:0006A98C 17245 0001:0006A9A7
 17246 0001:0006A9B5 17247 0001:0006A9BE 17249 0001:0006A9C8 17250 0001:0006A9DC
 17247 0001:0006A9DF 17251 0001:0006A9E2 17264 0001:0006AA08 17265 0001:0006AA20
 17286 0001:0006AA2D 17287 0001:0006AA3B 17288 0001:0006AA42 17289 0001:0006AA49
 17291 0001:0006AA55 17292 0001:0006AA5C 17294 0001:0006AA6D 17295 0001:0006AA86
 17296 0001:0006AA8F 17298 0001:0006AA97 17301 0001:0006AAA8 17302 0001:0006AAB4
 17304 0001:0006AAD2 17306 0001:0006AAE5 17307 0001:0006AAF6 17308 0001:0006AB09
 17309 0001:0006AB1C 17310 0001:0006AB2D 17311 0001:0006AB37 17312 0001:0006AB41
 17313 0001:0006AB4B 17314 0001:0006AB55 17315 0001:0006AB64 17316 0001:0006AB6B
 17318 0001:0006AB8D 17320 0001:0006AB9B 17321 0001:0006ABA4 17322 0001:0006ABAC
 17324 0001:0006ABB4 17325 0001:0006ABC5 17326 0001:0006ABD6 17327 0001:0006ABE7
 17328 0001:0006ABEC 17329 0001:0006ABFD 17330 0001:0006AC0E 17331 0001:0006AC1F
 17333 0001:0006AC33 17335 0001:0006AC42 17343 0001:0006AC88 17344 0001:0006ACAF
 17346 0001:0006ACBC 17347 0001:0006ACC0 17348 0001:0006ACCE 17350 0001:0006ACD6
 17351 0001:0006ACE2 17352 0001:0006ACF5 17355 0001:0006AD10 17357 0001:0006AD16
 17358 0001:0006AD1A 17360 0001:0006AD1E 17361 0001:0006AD2A 17364 0001:0006AD37
 17365 0001:0006AD3B 17366 0001:0006AD5E 17367 0001:0006AD64 17368 0001:0006AD6A
 17370 0001:0006AD76 17348 0001:0006AD7A 17372 0001:0006AD83 17373 0001:0006AD8C
 17374 0001:0006AD95 17376 0001:0006ADB1 17378 0001:0006ADD5 17380 0001:0006ADE4
 17388 0001:0006AE0C 17389 0001:0006AE2E 17391 0001:0006AE3B 17393 0001:0006AE57
 17397 0001:0006AE65 17399 0001:0006AE6C 17402 0001:0006AE8C 17406 0001:0006AF09
 17408 0001:0006AF17 17410 0001:0006AF4E 17413 0001:0006AF6D 17418 0001:0006AF7E
 17419 0001:0006AF88 17422 0001:0006AF8F 17423 0001:0006AF9D 17424 0001:0006AFA4
 17425 0001:0006AFAE 17426 0001:0006AFB5 17427 0001:0006AFBF 17428 0001:0006AFC6
 17429 0001:0006AFD0 17430 0001:0006AFD7 17431 0001:0006AFE1 17432 0001:0006AFEB
 17433 0001:0006AFF5 17434 0001:0006AFFF 17435 0001:0006B009 17436 0001:0006B010
 17437 0001:0006B01A 17438 0001:0006B021 17439 0001:0006B02B 17440 0001:0006B032
 17441 0001:0006B03C 17442 0001:0006B043 17443 0001:0006B04D 17444 0001:0006B054
 17445 0001:0006B05E 17446 0001:0006B065 17447 0001:0006B06F 17448 0001:0006B076
 17449 0001:0006B080 17450 0001:0006B087 17451 0001:0006B091 17452 0001:0006B098
 17453 0001:0006B0A3 17454 0001:0006B0B2 17457 0001:0006B0B7 17458 0001:0006B0C0
 17461 0001:0006B0C9 17462 0001:0006B0D3 17463 0001:0006B0DD 17464 0001:0006B0E7
 17465 0001:0006B0F1 17466 0001:0006B0FB 17467 0001:0006B105 17468 0001:0006B10F
 17469 0001:0006B119 17470 0001:0006B123 17471 0001:0006B12D 17472 0001:0006B137
 17473 0001:0006B141 17474 0001:0006B14B 17475 0001:0006B155 17476 0001:0006B15F
 17477 0001:0006B169 17478 0001:0006B173 17479 0001:0006B17D 17480 0001:0006B187
 17481 0001:0006B191 17482 0001:0006B19B 17483 0001:0006B1A5 17484 0001:0006B1AF
 17485 0001:0006B1B9 17486 0001:0006B1C3 17487 0001:0006B1CD 17488 0001:0006B1D7
 17489 0001:0006B1E1 17490 0001:0006B1EB 17491 0001:0006B1F5 17493 0001:0006B1FA
 17496 0001:0006B213 17519 0001:0006B22E 17523 0001:0006B2C8 17524 0001:0006B2DF
 17528 0001:0006B2E0 17529 0001:0006B2F7 17536 0001:0006B2F8 17537 0001:0006B302
 17540 0001:0006B304 17542 0001:0006B317 17543 0001:0006B322 17544 0001:0006B32D
 17547 0001:0006B338 17548 0001:0006B343 17551 0001:0006B34E 17552 0001:0006B36A
 17553 0001:0006B375 17569 0001:0006B398 17570 0001:0006B3B5 17571 0001:0006B3BC
 17572 0001:0006B3BE 17573 0001:0006B3D2 17574 0001:0006B3D9 17576 0001:0006B3DD
 17578 0001:0006B3F3 17580 0001:0006B3FA 17582 0001:0006B408 17584 0001:0006B40C
 17585 0001:0006B43B 17588 0001:0006B440 17589 0001:0006B464 17590 0001:0006B470
 17591 0001:0006B480 17592 0001:0006B482 17607 0001:0006B4B0 17611 0001:0006B4B4
 17612 0001:0006B4BB 17613 0001:0006B4C0 17618 0001:0006B4C4 17619 0001:0006B4CB
 17621 0001:0006B4E8 17623 0001:0006B4ED 17625 0001:0006B4F2 17626 0001:0006B4F3
 17627 0001:0006B4F6 17629 0001:0006B4F9 17630 0001:0006B509 17635 0001:0006B510
 17636 0001:0006B517 17641 0001:0006B545 17643 0001:0006B54A 17644 0001:0006B54B
 17645 0001:0006B54E 17647 0001:0006B551 17648 0001:0006B561 17653 0001:0006B568
 17654 0001:0006B56E 17655 0001:0006B57D 17656 0001:0006B58B 17658 0001:0006B5B0
 17660 0001:0006B5C0 17665 0001:0006B5C8 17666 0001:0006B5CF 17668 0001:0006B5EC
 17670 0001:0006B5F1 17672 0001:0006B5F6 17673 0001:0006B5F7 17674 0001:0006B5FA
 17676 0001:0006B5FD 17677 0001:0006B60D 17689 0001:0006B614 17690 0001:0006B61D
 17693 0001:0006B624 17694 0001:0006B633 17695 0001:0006B641 17696 0001:0006B64B
 17697 0001:0006B65A 17699 0001:0006B665 17700 0001:0006B66F 17701 0001:0006B67E
 17703 0001:0006B689 17704 0001:0006B693 17705 0001:0006B6A2 17707 0001:0006B6AD
 17710 0001:0006B6B7 17714 0001:0006B6BE 17715 0001:0006B6CD 17716 0001:0006B6D7
 17707 0001:0006B6D8 17718 0001:0006B6DB 17721 0001:0006B6E5 17722 0001:0006B6FF
 17723 0001:0006B710 17718 0001:0006B711 17725 0001:0006B721 17727 0001:0006B731
 17737 0001:0006B738 17739 0001:0006B73B 17740 0001:0006B741 17743 0001:0006B748
 17745 0001:0006B75B 17746 0001:0006B771 17747 0001:0006B77E 17748 0001:0006B799
 17752 0001:0006B7AE 17753 0001:0006B7BB 17757 0001:0006B7C0 17758 0001:0006B7C7
 17759 0001:0006B7CD 17761 0001:0006B7D0 17762 0001:0006B7D6 17764 0001:0006B7DD
 17765 0001:0006B7E2 17766 0001:0006B7F0 17768 0001:0006B7FA 17769 0001:0006B7FF
 17771 0001:0006B818 17772 0001:0006B828 17774 0001:0006B835 17775 0001:0006B83A
 17776 0001:0006B849 17778 0001:0006B854 17779 0001:0006B859 17781 0001:0006B873
 17783 0001:0006B87F 17793 0001:0006B884 17794 0001:0006B89F 17795 0001:0006B8AC
 17796 0001:0006B8C8 17797 0001:0006B8F3 17799 0001:0006B968 17801 0001:0006B986
 17812 0001:0006B9A1 17822 0001:0006B9BC 17832 0001:0006B9C9 17835 0001:0006B9DA
 17842 0001:0006B9EB 17846 0001:0006BA06 17852 0001:0006BA21 17855 0001:0006BA26
 17859 0001:0006BA46 17868 0001:0006BA66 17869 0001:0006BA67 17871 0001:0006BA71
 17876 0001:0006BA91 17885 0001:0006BAAC 17890 0001:0006BAC7 17891 0001:0006BAD0
 17896 0001:0006BAEB 17898 0001:0006BAF9 17901 0001:0006BB14 17905 0001:0006BE00
 17906 0001:0006BE1A 17909 0001:0006BE1C 17910 0001:0006BE1F 17911 0001:0006BE30
 17914 0001:0006BE34 17918 0001:0006BE37 17920 0001:0006BE3E 17949 0001:0006BE40
 17950 0001:0006BE43 17952 0001:0006BE4A 17957 0001:0006BE4C 17958 0001:0006BE54
 17960 0001:0006BE63 17961 0001:0006BE68 17963 0001:0006BE75 17966 0001:0006BE9D
 17967 0001:0006BEB0 17969 0001:0006BEB2 17961 0001:0006BEB3 17970 0001:0006BEB6
 17981 0001:0006BEBC 17982 0001:0006BEC3 17983 0001:0006BED6 17984 0001:0006BEE4
 17986 0001:0006BEFB 17988 0001:0006BF0B 17990 0001:0006BF10 17991 0001:0006BF2D
 17992 0001:0006BF31 17994 0001:0006BF4E 17995 0001:0006BF5D 17996 0001:0006BF6B
 17997 0001:0006BF83 17999 0001:0006BF97 18000 0001:0006BFA9 18001 0001:0006BFAC
 18002 0001:0006BFB1 18003 0001:0006BFC5 18005 0001:0006BFD8 18007 0001:0006BFE8
 18009 0001:0006C014 18010 0001:0006C033 18011 0001:0006C051 18013 0001:0006C05B
 18015 0001:0006C066 18018 0001:0006C090 18029 0001:0006C0AD 18031 0001:0006C0B4
 18033 0001:0006C0BB 18034 0001:0006C0C2 18035 0001:0006C0C9 18036 0001:0006C0D0
 18038 0001:0006C0E5 18042 0001:0006C0EC 18043 0001:0006C0F3 18044 0001:0006C0FA
 18045 0001:0006C101 18046 0001:0006C108 18047 0001:0006C10F 18048 0001:0006C116
 18049 0001:0006C11D 18050 0001:0006C124 18051 0001:0006C13B 18052 0001:0006C152
 18053 0001:0006C159 18054 0001:0006C163 18055 0001:0006C16A 18056 0001:0006C179
 18057 0001:0006C180 18058 0001:0006C191 18059 0001:0006C19B 18061 0001:0006C1A2
 18062 0001:0006C1AC 18063 0001:0006C1B6 18065 0001:0006C1C0 18067 0001:0006C1C5
 18070 0001:0006C1CE 18073 0001:0006C1D3 18075 0001:0006C1E1 18076 0001:0006C1E8
 18080 0001:0006C1ED 18081 0001:0006C1FE 18083 0001:0006C20F 18084 0001:0006C228
 18085 0001:0006C231 18087 0001:0006C239 18125 0001:0006C24C 18127 0001:0006C251
 18128 0001:0006C262 18129 0001:0006C273 18130 0001:0006C284 18131 0001:0006C295
 18137 0001:0006C2A6 18138 0001:0006C2AD 18139 0001:0006C2B9 18140 0001:0006C2C0
 18141 0001:0006C2C7 18142 0001:0006C2D1 18143 0001:0006C2D8 18144 0001:0006C2DF
 18147 0001:0006C301 18148 0001:0006C314 18150 0001:0006C322 18151 0001:0006C32B
 18152 0001:0006C333 18155 0001:0006C33B 18156 0001:0006C340 18157 0001:0006C34A
 18158 0001:0006C354 18160 0001:0006C365 18161 0001:0006C376 18162 0001:0006C37B
 18163 0001:0006C382 18164 0001:0006C38C 18165 0001:0006C393 18166 0001:0006C39A
 18167 0001:0006C3A1 18168 0001:0006C3A8 18169 0001:0006C3AF 18171 0001:0006C3B6
 18172 0001:0006C3BD 18173 0001:0006C3C4 18175 0001:0006C3CB 18177 0001:0006C3D2
 18180 0001:0006C3DA 18182 0001:0006C3E4 18184 0001:0006C3FE 18185 0001:0006C40A
 18186 0001:0006C415 18187 0001:0006C421 18189 0001:0006C42C 18192 0001:0006C431
 18198 0001:0006C47E 18204 0001:0006C4CB 18210 0001:0006C518 18211 0001:0006C52D
 18213 0001:0006C536 18227 0001:0006C54F 18233 0001:0006C59C 18239 0001:0006C5E9
 18245 0001:0006C636 18247 0001:0006C644 18249 0001:0006C652 18251 0001:0006C660
 18252 0001:0006C665 18256 0001:0006C68F 18258 0001:0006C69C 18261 0001:0006C6B0
 18262 0001:0006C6E1 18266 0001:0006C71D 18270 0001:0006C724 18272 0001:0006C72D
 18273 0001:0006C732 18277 0001:0006C737 18284 0001:0006C834 18285 0001:0006C848
 18286 0001:0006C856 18288 0001:0006C869 18289 0001:0006C873 18291 0001:0006C87D
 18292 0001:0006C890 18294 0001:0006C897 18295 0001:0006C8A1 18296 0001:0006C8A8
 18297 0001:0006C8B2 18298 0001:0006C8B9 18299 0001:0006C8C3 18300 0001:0006C8CA
 18301 0001:0006C8D4 18302 0001:0006C8DB 18303 0001:0006C8E5 18305 0001:0006C8EC
 18306 0001:0006C8F1 18308 0001:0006C8FC 18310 0001:0006C90E 18311 0001:0006C91B
 18313 0001:0006C928 18315 0001:0006C931 18316 0001:0006C944 18321 0001:0006C94B
 18322 0001:0006C954 18324 0001:0006C963 18325 0001:0006C96D 18326 0001:0006C974
 18327 0001:0006C97E 18328 0001:0006C985 18329 0001:0006C98F 18331 0001:0006C996
 18332 0001:0006C9A0 18333 0001:0006C9AA 18334 0001:0006C9B4 18335 0001:0006C9BE
 18338 0001:0006C9C5 18340 0001:0006C9CE 18341 0001:0006C9DA 18342 0001:0006C9E4
 18345 0001:0006C9F7 18346 0001:0006CA01 18347 0001:0006CA08 18348 0001:0006CA12
 18349 0001:0006CA19 18350 0001:0006CA23 18352 0001:0006CA2A 18353 0001:0006CA39
 18360 0001:0006CA40 18362 0001:0006CA49 18363 0001:0006CA54 18364 0001:0006CA5E
 18365 0001:0006CA68 18373 0001:0006CA6F 18374 0001:0006CA74 18376 0001:0006CA88
 18377 0001:0006CA92 18378 0001:0006CA99 18380 0001:0006CAAB 18412 0001:0006CACC
 18422 0001:0006CAE0 18423 0001:0006CB0C 18425 0001:0006CB11

Line numbers for ExceptionLog(ExceptionLog.pas) segment .itext

 18416 0002:0000035C 18417 0002:00000380 18418 0002:0000038F 18419 0002:00000394
 18421 0002:0000039E

Line numbers for Portscan(D:\mine\\Desktop\cmdConsoleOutput\codefans.net\Cmd\Portscan.dpr) segment .text

    11 0001:0006CC90    12 0001:0006CCBD    13 0001:0006CCBF    14 0001:0006CCCD
    16 0001:0006CCF1    18 0001:0006CCF8    26 0001:0006CD28    27 0001:0006CD2D
    28 0001:0006CD36    29 0001:0006CD41    30 0001:0006CD4B    31 0001:0006CD55
    34 0001:0006CD7A    37 0001:0006CDA2    44 0001:0006CDA8    45 0001:0006CDB2
    46 0001:0006CDBB    47 0001:0006CDC6    49 0001:0006CDCA    51 0001:0006CDCE
    53 0001:0006CDD7    56 0001:0006CDE0    57 0001:0006CDE4    58 0001:0006CDE9
    59 0001:0006CDF2    63 0001:0006CDFC    64 0001:0006CE01    65 0001:0006CE0A
    66 0001:0006CE23    67 0001:0006CE3C    68 0001:0006CE55    69 0001:0006CE6E

Line numbers for Portscan(D:\mine\\Desktop\cmdConsoleOutput\codefans.net\Cmd\Portscan.dpr) segment .itext

    81 0002:000003D4    82 0002:00000406    83 0002:0000040B    84 0002:00000424
    86 0002:00000442    87 0002:0000045B    88 0002:00000479    90 0002:00000493
    94 0002:000004A4    95 0002:000004BD    96 0002:000004DB    98 0002:000004F5
   100 0002:00000506   102 0002:00000520   103 0002:00000539   105 0002:0000053E
   106 0002:00000543   107 0002:00000552   108 0002:0000055B   109 0002:00000570
   110 0002:0000057A   111 0002:0000058E   112 0002:000005A2   114 0002:000005B7
   115 0002:000005C3   116 0002:000005DC   117 0002:000005E8   119 0002:00000620
   120 0002:0000062D   121 0002:00000639   122 0002:00000646   124 0002:0000064A
   125 0002:00000657   126 0002:00000664   127 0002:0000069F   128 0002:000006A5
   130 0002:000006AB   112 0002:000006AC   131 0002:000006B3   132 0002:000006C0
   133 0002:000006D9   134 0002:000006F2   135 0002:0000070B   136 0002:00000724
   137 0002:00000729   138 0002:00000738

Bound resource files

C:\Program Files\EurekaLog 6\Delphi10\DIALOG.RES
Portscan.drf


Program entry point at 0002:000003D4
